ARM GAS  /var/folders/fs/ht5wlc7s7b56r9p0ngl7ssgc0000gn/T//ccssYOSC.s 			page 1


   1              		.cpu cortex-m7
   2              		.arch armv7e-m
   3              		.fpu fpv5-d16
   4              		.eabi_attribute 28, 1
   5              		.eabi_attribute 20, 1
   6              		.eabi_attribute 21, 1
   7              		.eabi_attribute 23, 3
   8              		.eabi_attribute 24, 1
   9              		.eabi_attribute 25, 1
  10              		.eabi_attribute 26, 1
  11              		.eabi_attribute 30, 2
  12              		.eabi_attribute 34, 1
  13              		.eabi_attribute 18, 4
  14              		.file	"Delay.cpp"
  15              		.text
  16              	.Ltext0:
  17              		.cfi_sections	.debug_frame
  18              		.section	.text._ZN5Delay9DelayHead14processReverseEf,"axG",%progbits,_ZN5Delay9DelayHead14processR
  19              		.align	1
  20              		.p2align 2,,3
  21              		.weak	_ZN5Delay9DelayHead14processReverseEf
  22              		.syntax unified
  23              		.thumb
  24              		.thumb_func
  26              	_ZN5Delay9DelayHead14processReverseEf:
  27              	.LVL0:
  28              	.LFB4800:
  29              		.file 1 "Delay.h"
   1:Delay.h       **** #include "daisysp.h"
   2:Delay.h       **** #include "daisy_seed.h"
   3:Delay.h       **** #include "delayline_reverse.h"
   4:Delay.h       **** 
   5:Delay.h       **** #pragma once
   6:Delay.h       **** using namespace daisysp;
   7:Delay.h       **** using namespace daisy;
   8:Delay.h       **** using namespace daisy::seed;
   9:Delay.h       **** 
  10:Delay.h       **** #define MAX_DELAY static_cast<size_t>(48000 * 2.f)  // Max delay of 2 seconds which is 30 bpm
  11:Delay.h       **** const int NUM_OF_DELAY_HEADS = 4;                   // # of delay heads, simply change this number 
  12:Delay.h       **** 
  13:Delay.h       **** 
  14:Delay.h       **** 
  15:Delay.h       **** class Delay
  16:Delay.h       **** {
  17:Delay.h       ****     private:
  18:Delay.h       ****         struct DelayHead
  19:Delay.h       ****         {
  20:Delay.h       ****             DelayLine<float, MAX_DELAY> *delay; // Will point to a delayMem
  21:Delay.h       ****             DelayLineReverse<float, MAX_DELAY> *delayReverse; // Will point to a delayMem
  22:Delay.h       ****             float currentDelay;                 // The current delay 
  23:Delay.h       ****             float delayTarget;                  // The delay target that currentDelay will ramp up/
  24:Delay.h       ****             float feedback;                     // Feedback level of the delay
  25:Delay.h       ****             float modulation = 0;                   // Modulation level of the delay
  26:Delay.h       ****             float pos = 0;
  27:Delay.h       ****             float process(float in)
  28:Delay.h       ****             {
  29:Delay.h       **** 
ARM GAS  /var/folders/fs/ht5wlc7s7b56r9p0ngl7ssgc0000gn/T//ccssYOSC.s 			page 2


  30:Delay.h       ****                 float readSample; // Will store a sample from the delay line
  31:Delay.h       **** 
  32:Delay.h       ****                 // This smoothes out the delay when you turn the delay control?
  33:Delay.h       ****                 fonepole(currentDelay, delayTarget, .0002f); 
  34:Delay.h       ****                 // Set delay time
  35:Delay.h       ****                 delay->SetDelay(currentDelay + modulation);     
  36:Delay.h       ****                  
  37:Delay.h       ****                 readSample = delay->Read(); // Read in the next sample from the delay line
  38:Delay.h       **** 
  39:Delay.h       ****                 // Write the readSample * the feedback amount + the input sample into the delay lin
  40:Delay.h       ****                 delay->Write((feedback * readSample) + in); 
  41:Delay.h       ****                 
  42:Delay.h       ****                 return readSample;
  43:Delay.h       ****             }
  44:Delay.h       **** 
  45:Delay.h       ****             float processReverse(float in)
  30              		.loc 1 45 19 view -0
  31              		.cfi_startproc
  32              		@ args = 0, pretend = 0, frame = 0
  33              		@ frame_needed = 0, uses_anonymous_args = 0
  46:Delay.h       ****             {
  47:Delay.h       ****                 float readSample;
  34              		.loc 1 47 17 view .LVU1
  48:Delay.h       **** 
  49:Delay.h       ****                 fonepole(currentDelay, delayTarget, .0002f); 
  35              		.loc 1 49 17 view .LVU2
  36              	.LBB43:
  37              	.LBB44:
  38              		.file 2 "../../DaisySP//Source/Utility/dsp.h"
   1:../../DaisySP//Source/Utility/dsp.h **** /** Helpful defines, functions, and other utilities for use in/with daisysp modules.
   2:../../DaisySP//Source/Utility/dsp.h **** */
   3:../../DaisySP//Source/Utility/dsp.h **** #pragma once
   4:../../DaisySP//Source/Utility/dsp.h **** #ifndef DSY_CORE_DSP
   5:../../DaisySP//Source/Utility/dsp.h **** #define DSY_CORE_DSP
   6:../../DaisySP//Source/Utility/dsp.h **** #include <cassert>
   7:../../DaisySP//Source/Utility/dsp.h **** #include <cstdint>
   8:../../DaisySP//Source/Utility/dsp.h **** #include <random>
   9:../../DaisySP//Source/Utility/dsp.h **** #include <cmath>
  10:../../DaisySP//Source/Utility/dsp.h **** 
  11:../../DaisySP//Source/Utility/dsp.h **** /** PIs
  12:../../DaisySP//Source/Utility/dsp.h **** */
  13:../../DaisySP//Source/Utility/dsp.h **** #define PI_F 3.1415927410125732421875f
  14:../../DaisySP//Source/Utility/dsp.h **** #define TWOPI_F (2.0f * PI_F)
  15:../../DaisySP//Source/Utility/dsp.h **** #define HALFPI_F (PI_F * 0.5f)
  16:../../DaisySP//Source/Utility/dsp.h **** #define DSY_MIN(in, mn) (in < mn ? in : mn)
  17:../../DaisySP//Source/Utility/dsp.h **** #define DSY_MAX(in, mx) (in > mx ? in : mx)
  18:../../DaisySP//Source/Utility/dsp.h **** #define DSY_CLAMP(in, mn, mx) (DSY_MIN(DSY_MAX(in, mn), mx))
  19:../../DaisySP//Source/Utility/dsp.h **** #define DSY_COUNTOF(_arr) (sizeof(_arr) / sizeof(_arr[0]))
  20:../../DaisySP//Source/Utility/dsp.h **** 
  21:../../DaisySP//Source/Utility/dsp.h **** namespace daisysp
  22:../../DaisySP//Source/Utility/dsp.h **** {
  23:../../DaisySP//Source/Utility/dsp.h **** //Avoids division for random floats. e.g. rand() * kRandFrac
  24:../../DaisySP//Source/Utility/dsp.h **** static constexpr float kRandFrac = 1.f / (float)RAND_MAX;
  25:../../DaisySP//Source/Utility/dsp.h **** 
  26:../../DaisySP//Source/Utility/dsp.h **** //Convert from semitones to other units. e.g. 2 ^ (kOneTwelfth * x)
  27:../../DaisySP//Source/Utility/dsp.h **** static constexpr float kOneTwelfth = 1.f / 12.f;
  28:../../DaisySP//Source/Utility/dsp.h **** 
ARM GAS  /var/folders/fs/ht5wlc7s7b56r9p0ngl7ssgc0000gn/T//ccssYOSC.s 			page 3


  29:../../DaisySP//Source/Utility/dsp.h **** /** efficient floating point min/max
  30:../../DaisySP//Source/Utility/dsp.h **** c/o stephen mccaul
  31:../../DaisySP//Source/Utility/dsp.h **** */
  32:../../DaisySP//Source/Utility/dsp.h **** inline float fmax(float a, float b)
  33:../../DaisySP//Source/Utility/dsp.h **** {
  34:../../DaisySP//Source/Utility/dsp.h ****     float r;
  35:../../DaisySP//Source/Utility/dsp.h **** #ifdef __arm__
  36:../../DaisySP//Source/Utility/dsp.h ****     asm("vmaxnm.f32 %[d], %[n], %[m]" : [d] "=t"(r) : [n] "t"(a), [m] "t"(b) :);
  37:../../DaisySP//Source/Utility/dsp.h **** #else
  38:../../DaisySP//Source/Utility/dsp.h ****     r = (a > b) ? a : b;
  39:../../DaisySP//Source/Utility/dsp.h **** #endif // __arm__
  40:../../DaisySP//Source/Utility/dsp.h ****     return r;
  41:../../DaisySP//Source/Utility/dsp.h **** }
  42:../../DaisySP//Source/Utility/dsp.h **** 
  43:../../DaisySP//Source/Utility/dsp.h **** inline float fmin(float a, float b)
  44:../../DaisySP//Source/Utility/dsp.h **** {
  45:../../DaisySP//Source/Utility/dsp.h ****     float r;
  46:../../DaisySP//Source/Utility/dsp.h **** #ifdef __arm__
  47:../../DaisySP//Source/Utility/dsp.h ****     asm("vminnm.f32 %[d], %[n], %[m]" : [d] "=t"(r) : [n] "t"(a), [m] "t"(b) :);
  48:../../DaisySP//Source/Utility/dsp.h **** #else
  49:../../DaisySP//Source/Utility/dsp.h ****     r = (a < b) ? a : b;
  50:../../DaisySP//Source/Utility/dsp.h **** #endif // __arm__
  51:../../DaisySP//Source/Utility/dsp.h ****     return r;
  52:../../DaisySP//Source/Utility/dsp.h **** }
  53:../../DaisySP//Source/Utility/dsp.h **** 
  54:../../DaisySP//Source/Utility/dsp.h **** /** quick fp clamp
  55:../../DaisySP//Source/Utility/dsp.h **** */
  56:../../DaisySP//Source/Utility/dsp.h **** inline float fclamp(float in, float min, float max)
  57:../../DaisySP//Source/Utility/dsp.h **** {
  58:../../DaisySP//Source/Utility/dsp.h ****     return fmin(fmax(in, min), max);
  59:../../DaisySP//Source/Utility/dsp.h **** }
  60:../../DaisySP//Source/Utility/dsp.h **** 
  61:../../DaisySP//Source/Utility/dsp.h **** /** From Musicdsp.org "Fast power and root estimates for 32bit floats)
  62:../../DaisySP//Source/Utility/dsp.h **** Original code by Stefan Stenzel
  63:../../DaisySP//Source/Utility/dsp.h **** These are approximations
  64:../../DaisySP//Source/Utility/dsp.h **** */
  65:../../DaisySP//Source/Utility/dsp.h **** inline float fastpower(float f, int n)
  66:../../DaisySP//Source/Utility/dsp.h **** {
  67:../../DaisySP//Source/Utility/dsp.h ****     long *lp, l;
  68:../../DaisySP//Source/Utility/dsp.h ****     lp = (long *)(&f);
  69:../../DaisySP//Source/Utility/dsp.h ****     l  = *lp;
  70:../../DaisySP//Source/Utility/dsp.h ****     l -= 0x3F800000;
  71:../../DaisySP//Source/Utility/dsp.h ****     l <<= (n - 1);
  72:../../DaisySP//Source/Utility/dsp.h ****     l += 0x3F800000;
  73:../../DaisySP//Source/Utility/dsp.h ****     *lp = l;
  74:../../DaisySP//Source/Utility/dsp.h ****     return f;
  75:../../DaisySP//Source/Utility/dsp.h **** }
  76:../../DaisySP//Source/Utility/dsp.h **** 
  77:../../DaisySP//Source/Utility/dsp.h **** inline float fastroot(float f, int n)
  78:../../DaisySP//Source/Utility/dsp.h **** {
  79:../../DaisySP//Source/Utility/dsp.h ****     long *lp, l;
  80:../../DaisySP//Source/Utility/dsp.h ****     lp = (long *)(&f);
  81:../../DaisySP//Source/Utility/dsp.h ****     l  = *lp;
  82:../../DaisySP//Source/Utility/dsp.h ****     l -= 0x3F800000;
  83:../../DaisySP//Source/Utility/dsp.h ****     l >>= (n = 1);
  84:../../DaisySP//Source/Utility/dsp.h ****     l += 0x3F800000;
  85:../../DaisySP//Source/Utility/dsp.h ****     *lp = l;
ARM GAS  /var/folders/fs/ht5wlc7s7b56r9p0ngl7ssgc0000gn/T//ccssYOSC.s 			page 4


  86:../../DaisySP//Source/Utility/dsp.h ****     return f;
  87:../../DaisySP//Source/Utility/dsp.h **** }
  88:../../DaisySP//Source/Utility/dsp.h **** 
  89:../../DaisySP//Source/Utility/dsp.h **** /** From http://openaudio.blogspot.com/2017/02/faster-log10-and-pow.html
  90:../../DaisySP//Source/Utility/dsp.h **** No approximation, pow10f(x) gives a 90% speed increase over powf(10.f, x)
  91:../../DaisySP//Source/Utility/dsp.h **** */
  92:../../DaisySP//Source/Utility/dsp.h **** inline float pow10f(float f)
  93:../../DaisySP//Source/Utility/dsp.h **** {
  94:../../DaisySP//Source/Utility/dsp.h ****     return expf(2.302585092994046f * f);
  95:../../DaisySP//Source/Utility/dsp.h **** }
  96:../../DaisySP//Source/Utility/dsp.h **** 
  97:../../DaisySP//Source/Utility/dsp.h **** /* Original code for fastlog2f by Dr. Paul Beckmann from the ARM community forum, adapted from the 
  98:../../DaisySP//Source/Utility/dsp.h **** About 25% performance increase over std::log10f
  99:../../DaisySP//Source/Utility/dsp.h **** */
 100:../../DaisySP//Source/Utility/dsp.h **** inline float fastlog2f(float f)
 101:../../DaisySP//Source/Utility/dsp.h **** {
 102:../../DaisySP//Source/Utility/dsp.h ****     float frac;
 103:../../DaisySP//Source/Utility/dsp.h ****     int   exp;
 104:../../DaisySP//Source/Utility/dsp.h ****     frac = frexpf(fabsf(f), &exp);
 105:../../DaisySP//Source/Utility/dsp.h ****     f    = 1.23149591368684f;
 106:../../DaisySP//Source/Utility/dsp.h ****     f *= frac;
 107:../../DaisySP//Source/Utility/dsp.h ****     f += -4.11852516267426f;
 108:../../DaisySP//Source/Utility/dsp.h ****     f *= frac;
 109:../../DaisySP//Source/Utility/dsp.h ****     f += 6.02197014179219f;
 110:../../DaisySP//Source/Utility/dsp.h ****     f *= frac;
 111:../../DaisySP//Source/Utility/dsp.h ****     f += -3.13396450166353f;
 112:../../DaisySP//Source/Utility/dsp.h ****     f += exp;
 113:../../DaisySP//Source/Utility/dsp.h ****     return (f);
 114:../../DaisySP//Source/Utility/dsp.h **** }
 115:../../DaisySP//Source/Utility/dsp.h **** 
 116:../../DaisySP//Source/Utility/dsp.h **** inline float fastlog10f(float f)
 117:../../DaisySP//Source/Utility/dsp.h **** {
 118:../../DaisySP//Source/Utility/dsp.h ****     return fastlog2f(f) * 0.3010299956639812f;
 119:../../DaisySP//Source/Utility/dsp.h **** }
 120:../../DaisySP//Source/Utility/dsp.h **** 
 121:../../DaisySP//Source/Utility/dsp.h **** /** Midi to frequency helper
 122:../../DaisySP//Source/Utility/dsp.h **** */
 123:../../DaisySP//Source/Utility/dsp.h **** inline float mtof(float m)
 124:../../DaisySP//Source/Utility/dsp.h **** {
 125:../../DaisySP//Source/Utility/dsp.h ****     return powf(2, (m - 69.0f) / 12.0f) * 440.0f;
 126:../../DaisySP//Source/Utility/dsp.h **** }
 127:../../DaisySP//Source/Utility/dsp.h **** 
 128:../../DaisySP//Source/Utility/dsp.h **** 
 129:../../DaisySP//Source/Utility/dsp.h **** /** one pole lpf
 130:../../DaisySP//Source/Utility/dsp.h **** out is passed by reference, and must be retained between
 131:../../DaisySP//Source/Utility/dsp.h **** calls to properly filter the signal
 132:../../DaisySP//Source/Utility/dsp.h **** coeff can be calculated:
 133:../../DaisySP//Source/Utility/dsp.h **** coeff = 1.0 / (time * sample_rate) ; where time is in seconds
 134:../../DaisySP//Source/Utility/dsp.h **** */
 135:../../DaisySP//Source/Utility/dsp.h **** inline void fonepole(float &out, float in, float coeff)
 136:../../DaisySP//Source/Utility/dsp.h **** {
 137:../../DaisySP//Source/Utility/dsp.h ****     out += coeff * (in - out);
  39              		.loc 2 137 9 is_stmt 0 view .LVU3
  40 0000 D0ED027A 		vldr.32	s15, [r0, #8]
  41              		.loc 2 137 24 view .LVU4
  42 0004 90ED037A 		vldr.32	s14, [r0, #12]
  43              		.loc 2 137 9 view .LVU5
ARM GAS  /var/folders/fs/ht5wlc7s7b56r9p0ngl7ssgc0000gn/T//ccssYOSC.s 			page 5


  44 0008 DFED786A 		vldr.32	s13, .L17
  45              		.loc 2 137 24 view .LVU6
  46 000c 37EE677A 		vsub.f32	s14, s14, s15
  47              	.LBE44:
  48              	.LBE43:
  45:Delay.h       ****             {
  49              		.loc 1 45 19 view .LVU7
  50 0010 2DE9F047 		push	{r4, r5, r6, r7, r8, r9, r10, lr}
  51              		.cfi_def_cfa_offset 32
  52              		.cfi_offset 4, -32
  53              		.cfi_offset 5, -28
  54              		.cfi_offset 6, -24
  55              		.cfi_offset 7, -20
  56              		.cfi_offset 8, -16
  57              		.cfi_offset 9, -12
  58              		.cfi_offset 10, -8
  59              		.cfi_offset 14, -4
  60              	.LBB48:
  61              	.LBB45:
  62              		.loc 2 137 9 view .LVU8
  63 0014 E7EE267A 		vfma.f32	s15, s14, s13
  64              	.LBE45:
  65              	.LBE48:
  50:Delay.h       **** 
  51:Delay.h       ****                 delayReverse->SetDelay1(currentDelay);
  66              		.loc 1 51 17 view .LVU9
  67 0018 4468     		ldr	r4, [r0, #4]
  68              	.LBB49:
  69              	.LBB50:
  70              		.file 3 "delayline_reverse.h"
   1:delayline_reverse.h **** // Copyright 2021 Adam Fulford
   2:delayline_reverse.h **** // 
   3:delayline_reverse.h **** // Permission is hereby granted, free of charge, to any person obtaining a copy
   4:delayline_reverse.h **** // of this software and associated documentation files (the "Software"), to deal
   5:delayline_reverse.h **** // in the Software without restriction, including without limitation the rights
   6:delayline_reverse.h **** // to use, copy, modify, merge, publish, distribute, sublicense, and/or sell
   7:delayline_reverse.h **** // copies of the Software, and to permit persons to whom the Software is
   8:delayline_reverse.h **** // furnished to do so, subject to the following conditions:
   9:delayline_reverse.h **** // 
  10:delayline_reverse.h **** // The above copyright notice and this permission notice shall be included in
  11:delayline_reverse.h **** // all copies or substantial portions of the Software.
  12:delayline_reverse.h **** // 
  13:delayline_reverse.h **** // THE SOFTWARE IS PROVIDED "AS IS", WITHOUT WARRANTY OF ANY KIND, EXPRESS OR
  14:delayline_reverse.h **** // IMPLIED, INCLUDING BUT NOT LIMITED TO THE WARRANTIES OF MERCHANTABILITY,
  15:delayline_reverse.h **** // FITNESS FOR A PARTICULAR PURPOSE AND NONINFRINGEMENT. IN NO EVENT SHALL THE
  16:delayline_reverse.h **** // AUTHORS OR COPYRIGHT HOLDERS BE LIABLE FOR ANY CLAIM, DAMAGES OR OTHER
  17:delayline_reverse.h **** // LIABILITY, WHETHER IN AN ACTION OF CONTRACT, TORT OR OTHERWISE, ARISING FROM,
  18:delayline_reverse.h **** // OUT OF OR IN CONNECTION WITH THE SOFTWARE OR THE USE OR OTHER DEALINGS IN
  19:delayline_reverse.h **** // THE SOFTWARE.
  20:delayline_reverse.h **** // 
  21:delayline_reverse.h **** // See http://creativecommons.org/licenses/MIT/ for more information.
  22:delayline_reverse.h **** 
  23:delayline_reverse.h **** #pragma once
  24:delayline_reverse.h **** #ifndef DSY_DELAY_REVERSE_H
  25:delayline_reverse.h **** #define DSY_DELAY_REVERSE_H
  26:delayline_reverse.h **** #include <stdlib.h>
  27:delayline_reverse.h **** #include <stdint.h>
ARM GAS  /var/folders/fs/ht5wlc7s7b56r9p0ngl7ssgc0000gn/T//ccssYOSC.s 			page 6


  28:delayline_reverse.h **** #include <math.h>
  29:delayline_reverse.h **** namespace daisysp
  30:delayline_reverse.h **** {
  31:delayline_reverse.h **** /** Reverse Delay line
  32:delayline_reverse.h **** By: Adam Fulford
  33:delayline_reverse.h **** */
  34:delayline_reverse.h **** template <typename T, size_t max_size>
  35:delayline_reverse.h **** class DelayLineReverse
  36:delayline_reverse.h **** {
  37:delayline_reverse.h ****   public:
  38:delayline_reverse.h ****     DelayLineReverse() {}
  39:delayline_reverse.h ****     ~DelayLineReverse() {}
  40:delayline_reverse.h ****     /** initializes the delay line by clearing the values within, and setting delay to min time.
  41:delayline_reverse.h ****     */
  42:delayline_reverse.h ****     void Init() 
  43:delayline_reverse.h ****     { 
  44:delayline_reverse.h ****         Reset(); 
  45:delayline_reverse.h ****     }
  46:delayline_reverse.h ****     /** clears buffer, sets write ptr to 0, and delay to 1 sample.
  47:delayline_reverse.h ****     */
  48:delayline_reverse.h ****     void Reset()
  49:delayline_reverse.h ****     {
  50:delayline_reverse.h **** 
  51:delayline_reverse.h ****         delay1_  = 25000; //min Reverse delay time
  52:delayline_reverse.h ****         fadetime = 24000;    //in samples = 0.5 seconds
  53:delayline_reverse.h ****         
  54:delayline_reverse.h ****         for(size_t i = 0; i < max_size; i++)
  55:delayline_reverse.h ****         {
  56:delayline_reverse.h ****             line_[i] = T(0);
  57:delayline_reverse.h ****         }
  58:delayline_reverse.h ****         write_ptr_ = 0;
  59:delayline_reverse.h ****         read_ptr1_ = 0;
  60:delayline_reverse.h ****         read_ptr2_ = 0;
  61:delayline_reverse.h ****         headDiff_ = 0;
  62:delayline_reverse.h ****         playinghead_ = false;
  63:delayline_reverse.h ****         fadepos_ = 0.0f;
  64:delayline_reverse.h ****         fading_ = false;
  65:delayline_reverse.h ****     }
  66:delayline_reverse.h **** 
  67:delayline_reverse.h ****     /** sets the delay time in samples
  68:delayline_reverse.h ****     */
  69:delayline_reverse.h ****     inline void SetDelay1(size_t delay)
  70:delayline_reverse.h ****     {
  71:delayline_reverse.h ****         frac1_  = 0.0f;
  72:delayline_reverse.h ****         delay1_ = delay < max_size ? delay : max_size - 1;
  73:delayline_reverse.h ****     }
  74:delayline_reverse.h **** 
  75:delayline_reverse.h ****     /** sets the delay time in samples
  76:delayline_reverse.h ****         If a float is passed in, a fractional component will be calculated for interpolating the de
  77:delayline_reverse.h ****     */
  78:delayline_reverse.h ****     inline void SetDelay1(float delay)
  79:delayline_reverse.h ****     {
  80:delayline_reverse.h ****         int32_t int_delay = static_cast<int32_t>(delay);
  81:delayline_reverse.h ****         frac1_             = delay - static_cast<float>(int_delay);
  82:delayline_reverse.h ****         delay1_ = static_cast<size_t>(int_delay) < max_size ? int_delay
  71              		.loc 3 82 61 view .LVU10
  72 001a DFF8E481 		ldr	r8, .L17+20
ARM GAS  /var/folders/fs/ht5wlc7s7b56r9p0ngl7ssgc0000gn/T//ccssYOSC.s 			page 7


  73              	.LBE50:
  74              	.LBE49:
  45:Delay.h       ****             {
  75              		.loc 1 45 19 view .LVU11
  76 001e 0546     		mov	r5, r0
  77              	.LVL1:
  78              	.LBB57:
  79              	.LBI43:
 135:../../DaisySP//Source/Utility/dsp.h **** {
  80              		.loc 2 135 13 is_stmt 1 view .LVU12
  81              	.LBB46:
  82              		.loc 2 137 5 view .LVU13
  83              	.LBE46:
  84              	.LBE57:
  85              	.LBB58:
  86              	.LBB59:
  83:delayline_reverse.h ****                                                            : max_size - 1;
  84:delayline_reverse.h ****     }
  85:delayline_reverse.h **** 
  86:delayline_reverse.h ****     /** writes the sample of type T to the delay line, and advances the write ptr
  87:delayline_reverse.h ****     */
  88:delayline_reverse.h ****     inline void Write(const T sample)
  89:delayline_reverse.h ****     {
  90:delayline_reverse.h ****         line_[write_ptr_] = sample;
  91:delayline_reverse.h ****         //advance write ptr in forward direction
  92:delayline_reverse.h ****         write_ptr_        = (write_ptr_ + 1 + max_size) % max_size; //increment forwards
  93:delayline_reverse.h ****         
  94:delayline_reverse.h ****         //increment head difference
  95:delayline_reverse.h ****         headDiff_        = (headDiff_ + 1 + delay1_) % delay1_;   
  96:delayline_reverse.h **** 
  97:delayline_reverse.h ****         //advance read ptrs in reverse direction
  98:delayline_reverse.h ****         read_ptr1_ = (read_ptr1_ - 1 + max_size) % max_size;
  99:delayline_reverse.h ****         read_ptr2_ = (read_ptr2_ - 1 + max_size) % max_size;
 100:delayline_reverse.h ****  
 101:delayline_reverse.h ****         if (headDiff_ > (delay1_ - fadetime - 1))  //start cross fade region
 102:delayline_reverse.h ****         {
 103:delayline_reverse.h ****             if(!fading_)
 104:delayline_reverse.h ****             {
 105:delayline_reverse.h ****                 fading_ = true; //start fading
 106:delayline_reverse.h ****                 
 107:delayline_reverse.h ****                 if(!playinghead_) 
 108:delayline_reverse.h ****                 {
 109:delayline_reverse.h ****                     //jump ptr2 to fadetime beyond write position
 110:delayline_reverse.h ****                     read_ptr2_ = write_ptr_ - 1;
 111:delayline_reverse.h ****                 }
 112:delayline_reverse.h ****     
 113:delayline_reverse.h ****                 else
 114:delayline_reverse.h ****                 {
 115:delayline_reverse.h ****                     //jump ptr1 to fadetime beyond write position
 116:delayline_reverse.h ****                     read_ptr1_ = write_ptr_ - 1; 
 117:delayline_reverse.h ****                 }
 118:delayline_reverse.h ****             }
 119:delayline_reverse.h **** 
 120:delayline_reverse.h ****             else
 121:delayline_reverse.h ****             {
 122:delayline_reverse.h ****                 //continue fading
 123:delayline_reverse.h ****             }
ARM GAS  /var/folders/fs/ht5wlc7s7b56r9p0ngl7ssgc0000gn/T//ccssYOSC.s 			page 8


 124:delayline_reverse.h ****         }
 125:delayline_reverse.h **** 
 126:delayline_reverse.h ****         if(fading_)
 127:delayline_reverse.h ****         {
 128:delayline_reverse.h ****             if(!playinghead_)   //head1 playing
 129:delayline_reverse.h ****             {
 130:delayline_reverse.h ****                 fadepos_ = fadepos_ + (1.0f / (fadetime) ); //increment up to 1.
 131:delayline_reverse.h ****                 if (fadepos_ > 1.0f)
 132:delayline_reverse.h ****                 {
 133:delayline_reverse.h ****                     fadepos_ = 1.0f;
 134:delayline_reverse.h ****                     fading_ = false;    //stop fading
 135:delayline_reverse.h ****                     playinghead_ = true;
 136:delayline_reverse.h ****                 }
 137:delayline_reverse.h ****             }
 138:delayline_reverse.h **** 
 139:delayline_reverse.h ****             else    //head2 playing
 140:delayline_reverse.h ****             {
 141:delayline_reverse.h ****                 fadepos_ = fadepos_ - (1.0f / (fadetime) ); //increment down to 0
 142:delayline_reverse.h ****                 if (fadepos_ < 0.0f)
 143:delayline_reverse.h ****                 {
 144:delayline_reverse.h ****                     fadepos_ = 0.0f;
 145:delayline_reverse.h ****                     fading_ = false;    //stop fading
 146:delayline_reverse.h ****                     playinghead_ = false;
 147:delayline_reverse.h ****                 }
 148:delayline_reverse.h ****             }
 149:delayline_reverse.h ****         }
 150:delayline_reverse.h ****         else    //not fading
 151:delayline_reverse.h ****         {
 152:delayline_reverse.h ****         }
 153:delayline_reverse.h **** 
 154:delayline_reverse.h ****         
 155:delayline_reverse.h ****     }
 156:delayline_reverse.h **** 
 157:delayline_reverse.h ****     /** returns the next sample of type T in the delay line, interpolated if necessary.
 158:delayline_reverse.h ****     */
 159:delayline_reverse.h ****     inline const T ReadRev() const
 160:delayline_reverse.h ****     {
 161:delayline_reverse.h ****         T a1 = line_[read_ptr1_];
  87              		.loc 3 161 22 is_stmt 0 view .LVU14
  88 0020 D4F808A0 		ldr	r10, [r4, #8]
 162:delayline_reverse.h ****         T a2 = line_[(read_ptr2_)];
 163:delayline_reverse.h **** 
 164:delayline_reverse.h ****         float read1 = a1;
 165:delayline_reverse.h ****         float read2 = a2;
 166:delayline_reverse.h **** 
 167:delayline_reverse.h ****         float scalar_1, scalar_2;
 168:delayline_reverse.h **** 
 169:delayline_reverse.h ****         //hann
 170:delayline_reverse.h ****         //scalar_1 = sinf(fadepos_ * ((float)M_PI * 0.5f));
 171:delayline_reverse.h ****         //scalar_2 = sinf((1.0f - fadepos_) * ((float)M_PI * 0.5f));
 172:delayline_reverse.h **** 
 173:delayline_reverse.h ****         //flattenned hann
 174:delayline_reverse.h ****         scalar_1 = 2.0f*(   (9.0f/16.0f)*sinf(float(M_PI)*(1.0f/2.0f)*fadepos_)  +   (1.0f/16.0f)*s
  89              		.loc 3 174 71 view .LVU15
  90 0024 04F5BA27 		add	r7, r4, #380928
 162:delayline_reverse.h ****         T a2 = line_[(read_ptr2_)];
  91              		.loc 3 162 23 view .LVU16
ARM GAS  /var/folders/fs/ht5wlc7s7b56r9p0ngl7ssgc0000gn/T//ccssYOSC.s 			page 9


  92 0028 D4F80C90 		ldr	r9, [r4, #12]
 161:delayline_reverse.h ****         T a2 = line_[(read_ptr2_)];
  93              		.loc 3 161 11 view .LVU17
  94 002c 04EB8A03 		add	r3, r4, r10, lsl #2
  95              	.LBE59:
  96              	.LBE58:
  97              	.LBB71:
  98              	.LBB51:
  80:delayline_reverse.h ****         frac1_             = delay - static_cast<float>(int_delay);
  99              		.loc 3 80 17 view .LVU18
 100 0030 BDEEE77A 		vcvt.s32.f32	s14, s15
 101              	.LBE51:
 102              	.LBE71:
  45:Delay.h       ****             {
 103              		.loc 1 45 19 view .LVU19
 104 0034 2DED0C8B 		vpush.64	{d8, d9, d10, d11, d12, d13}
 105              		.cfi_def_cfa_offset 80
 106              		.cfi_offset 80, -80
 107              		.cfi_offset 81, -76
 108              		.cfi_offset 82, -72
 109              		.cfi_offset 83, -68
 110              		.cfi_offset 84, -64
 111              		.cfi_offset 85, -60
 112              		.cfi_offset 86, -56
 113              		.cfi_offset 87, -52
 114              		.cfi_offset 88, -48
 115              		.cfi_offset 89, -44
 116              		.cfi_offset 90, -40
 117              		.cfi_offset 91, -36
 118              	.LBB72:
 119              	.LBB52:
  82:delayline_reverse.h ****                                                            : max_size - 1;
 120              		.loc 3 82 61 view .LVU20
 121 0038 17EE106A 		vmov	r6, s14	@ int
  81:delayline_reverse.h ****         delay1_ = static_cast<size_t>(int_delay) < max_size ? int_delay
 122              		.loc 3 81 38 view .LVU21
 123 003c F8EEC76A 		vcvt.f32.s32	s13, s14
 124              	.LBE52:
 125              	.LBE72:
 126              	.LBB73:
 127              	.LBB47:
 128              		.loc 2 137 9 view .LVU22
 129 0040 C0ED027A 		vstr.32	s15, [r0, #8]
 130              	.LVL2:
 131              		.loc 2 137 9 view .LVU23
 132              	.LBE47:
 133              	.LBE73:
 134              		.loc 1 51 17 is_stmt 1 view .LVU24
 135              	.LBB74:
 136              	.LBI49:
  78:delayline_reverse.h ****     {
 137              		.loc 3 78 17 view .LVU25
  78:delayline_reverse.h ****     {
 138              		.loc 3 78 17 is_stmt 0 view .LVU26
 139              	.LBE74:
 140              	.LBB75:
 141              	.LBB60:
ARM GAS  /var/folders/fs/ht5wlc7s7b56r9p0ngl7ssgc0000gn/T//ccssYOSC.s 			page 10


 175:delayline_reverse.h ****         scalar_2 = 2.0f*(   (9.0f/16.0f)*sinf(float(M_PI)*(1.0f/2.0f)*(1.0f - fadepos_))  +   (1.0f
 142              		.loc 3 175 77 view .LVU27
 143 0044 B7EE009A 		vmov.f32	s18, #1.0e+0
 144              	.LBE60:
 145              	.LBE75:
 146              	.LBB76:
 147              	.LBB53:
  82:delayline_reverse.h ****                                                            : max_size - 1;
 148              		.loc 3 82 61 view .LVU28
 149 0048 4645     		cmp	r6, r8
 150              	.LBE53:
 151              	.LBE76:
 152              	.LBB77:
 153              	.LBB61:
 161:delayline_reverse.h ****         T a2 = line_[(read_ptr2_)];
 154              		.loc 3 161 11 view .LVU29
 155 004a 93ED06DA 		vldr.32	s26, [r3, #24]
 174:delayline_reverse.h ****         scalar_2 = 2.0f*(   (9.0f/16.0f)*sinf(float(M_PI)*(1.0f/2.0f)*(1.0f - fadepos_))  +   (1.0f
 156              		.loc 3 174 71 view .LVU30
 157 004e 07F54263 		add	r3, r7, #3104
 158              	.LBE61:
 159              	.LBE77:
 160              	.LBB78:
 161              	.LBB54:
  81:delayline_reverse.h ****         delay1_ = static_cast<size_t>(int_delay) < max_size ? int_delay
 162              		.loc 3 81 36 view .LVU31
 163 0052 77EEE67A 		vsub.f32	s15, s15, s13
 164              	.LVL3:
  82:delayline_reverse.h ****                                                            : max_size - 1;
 165              		.loc 3 82 61 view .LVU32
 166 0056 28BF     		it	cs
 167 0058 4646     		movcs	r6, r8
 168              	.LVL4:
  82:delayline_reverse.h ****                                                            : max_size - 1;
 169              		.loc 3 82 61 view .LVU33
 170              	.LBE54:
 171              	.LBE78:
 172              	.LBB79:
 173              	.LBB62:
 174:delayline_reverse.h ****         scalar_2 = 2.0f*(   (9.0f/16.0f)*sinf(float(M_PI)*(1.0f/2.0f)*(1.0f - fadepos_))  +   (1.0f
 174              		.loc 3 174 46 view .LVU34
 175 005a 9FED65CA 		vldr.32	s24, .L17+4
 174:delayline_reverse.h ****         scalar_2 = 2.0f*(   (9.0f/16.0f)*sinf(float(M_PI)*(1.0f/2.0f)*(1.0f - fadepos_))  +   (1.0f
 176              		.loc 3 174 71 view .LVU35
 177 005e D3ED009A 		vldr.32	s19, [r3]
 162:delayline_reverse.h **** 
 178              		.loc 3 162 11 view .LVU36
 179 0062 04EB8903 		add	r3, r4, r9, lsl #2
 174:delayline_reverse.h ****         scalar_2 = 2.0f*(   (9.0f/16.0f)*sinf(float(M_PI)*(1.0f/2.0f)*(1.0f - fadepos_))  +   (1.0f
 180              		.loc 3 174 103 view .LVU37
 181 0066 DFED63BA 		vldr.32	s23, .L17+8
 182              	.LBE62:
 183              	.LBE79:
  45:Delay.h       ****             {
 184              		.loc 1 45 19 view .LVU38
 185 006a F0EE408A 		vmov.f32	s17, s0
 186              	.LBB80:
ARM GAS  /var/folders/fs/ht5wlc7s7b56r9p0ngl7ssgc0000gn/T//ccssYOSC.s 			page 11


 187              	.LBB55:
  81:delayline_reverse.h ****         delay1_ = static_cast<size_t>(int_delay) < max_size ? int_delay
 188              		.loc 3 81 28 view .LVU39
 189 006e C4ED007A 		vstr.32	s15, [r4]
 190              	.LVL5:
  81:delayline_reverse.h ****         delay1_ = static_cast<size_t>(int_delay) < max_size ? int_delay
 191              		.loc 3 81 28 view .LVU40
 192              	.LBE55:
 193              	.LBE80:
 194              	.LBB81:
 195              	.LBB63:
 174:delayline_reverse.h ****         scalar_2 = 2.0f*(   (9.0f/16.0f)*sinf(float(M_PI)*(1.0f/2.0f)*(1.0f - fadepos_))  +   (1.0f
 196              		.loc 3 174 46 view .LVU41
 197 0072 29EE8C0A 		vmul.f32	s0, s19, s24
 198              	.LVL6:
 174:delayline_reverse.h ****         scalar_2 = 2.0f*(   (9.0f/16.0f)*sinf(float(M_PI)*(1.0f/2.0f)*(1.0f - fadepos_))  +   (1.0f
 199              		.loc 3 174 98 view .LVU42
 200 0076 9FED60BA 		vldr.32	s22, .L17+12
 201              		.loc 3 175 77 view .LVU43
 202 007a 39EE699A 		vsub.f32	s18, s18, s19
 203              	.LBE63:
 204              	.LBE81:
 205              	.LBB82:
 206              	.LBB56:
  82:delayline_reverse.h ****                                                            : max_size - 1;
 207              		.loc 3 82 17 view .LVU44
 208 007e 2661     		str	r6, [r4, #16]
 209              	.LVL7:
  82:delayline_reverse.h ****                                                            : max_size - 1;
 210              		.loc 3 82 17 view .LVU45
 211              	.LBE56:
 212              	.LBE82:
  52:Delay.h       **** 
  53:Delay.h       ****                 readSample = delayReverse->ReadRev();
 213              		.loc 1 53 17 is_stmt 1 view .LVU46
 214              	.LBB83:
 215              	.LBI58:
 159:delayline_reverse.h ****     {
 216              		.loc 3 159 20 view .LVU47
 217              	.LBB64:
 174:delayline_reverse.h ****         scalar_2 = 2.0f*(   (9.0f/16.0f)*sinf(float(M_PI)*(1.0f/2.0f)*(1.0f - fadepos_))  +   (1.0f
 218              		.loc 3 174 82 is_stmt 0 view .LVU48
 219 0080 F6EE02AA 		vmov.f32	s21, #5.625e-1
 162:delayline_reverse.h **** 
 220              		.loc 3 162 11 view .LVU49
 221 0084 D3ED06CA 		vldr.32	s25, [r3, #24]
 222              	.LVL8:
 174:delayline_reverse.h ****         scalar_2 = 2.0f*(   (9.0f/16.0f)*sinf(float(M_PI)*(1.0f/2.0f)*(1.0f - fadepos_))  +   (1.0f
 223              		.loc 3 174 46 view .LVU50
 224 0088 FFF7FEFF 		bl	sinf
 225              	.LVL9:
 174:delayline_reverse.h ****         scalar_2 = 2.0f*(   (9.0f/16.0f)*sinf(float(M_PI)*(1.0f/2.0f)*(1.0f - fadepos_))  +   (1.0f
 226              		.loc 3 174 46 view .LVU51
 227 008c B0EE40AA 		vmov.f32	s20, s0
 174:delayline_reverse.h ****         scalar_2 = 2.0f*(   (9.0f/16.0f)*sinf(float(M_PI)*(1.0f/2.0f)*(1.0f - fadepos_))  +   (1.0f
 228              		.loc 3 174 103 view .LVU52
 229 0090 29EEAB0A 		vmul.f32	s0, s19, s23
ARM GAS  /var/folders/fs/ht5wlc7s7b56r9p0ngl7ssgc0000gn/T//ccssYOSC.s 			page 12


 230 0094 FFF7FEFF 		bl	sinf
 231              	.LVL10:
 174:delayline_reverse.h ****         scalar_2 = 2.0f*(   (9.0f/16.0f)*sinf(float(M_PI)*(1.0f/2.0f)*(1.0f - fadepos_))  +   (1.0f
 232              		.loc 3 174 98 view .LVU53
 233 0098 20EE0B8A 		vmul.f32	s16, s0, s22
 234              		.loc 3 175 46 view .LVU54
 235 009c 29EE0C0A 		vmul.f32	s0, s18, s24
 236 00a0 FFF7FEFF 		bl	sinf
 237              	.LVL11:
 174:delayline_reverse.h ****         scalar_2 = 2.0f*(   (9.0f/16.0f)*sinf(float(M_PI)*(1.0f/2.0f)*(1.0f - fadepos_))  +   (1.0f
 238              		.loc 3 174 82 view .LVU55
 239 00a4 AAEE2A8A 		vfma.f32	s16, s20, s21
 240              	.LVL12:
 241              		.loc 3 175 46 view .LVU56
 242 00a8 B0EE40AA 		vmov.f32	s20, s0
 243              		.loc 3 175 112 view .LVU57
 244 00ac 29EE2B0A 		vmul.f32	s0, s18, s23
 245 00b0 FFF7FEFF 		bl	sinf
 246              	.LVL13:
 247              		.loc 3 175 107 view .LVU58
 248 00b4 60EE0B7A 		vmul.f32	s15, s0, s22
 249              	.LBE64:
 250              	.LBE83:
  54:Delay.h       **** 
  55:Delay.h       ****                 delayReverse->Write((feedback * readSample) + in);
 251              		.loc 1 55 36 view .LVU59
 252 00b8 95ED047A 		vldr.32	s14, [r5, #16]
 253              	.LBB84:
 254              	.LBB85:
  99:delayline_reverse.h ****  
 255              		.loc 3 99 38 view .LVU60
 256 00bc 09EB0801 		add	r1, r9, r8
  95:delayline_reverse.h **** 
 257              		.loc 3 95 43 view .LVU61
 258 00c0 6369     		ldr	r3, [r4, #20]
  98:delayline_reverse.h ****         read_ptr2_ = (read_ptr2_ - 1 + max_size) % max_size;
 259              		.loc 3 98 38 view .LVU62
 260 00c2 0AEB0800 		add	r0, r10, r8
 261              	.LBE85:
 262              	.LBE84:
 263              	.LBB95:
 264              	.LBB65:
 265              		.loc 3 175 91 view .LVU63
 266 00c6 EAEE2A7A 		vfma.f32	s15, s20, s21
 267              	.LVL14:
 268              		.loc 3 175 91 view .LVU64
 269              	.LBE65:
 270              	.LBE95:
 271              	.LBB96:
 272              	.LBB86:
  90:delayline_reverse.h ****         //advance write ptr in forward direction
 273              		.loc 3 90 15 view .LVU65
 274 00ca 6268     		ldr	r2, [r4, #4]
 275              	.LBE86:
 276              	.LBE96:
 277              	.LBB97:
 278              	.LBB66:
ARM GAS  /var/folders/fs/ht5wlc7s7b56r9p0ngl7ssgc0000gn/T//ccssYOSC.s 			page 13


 174:delayline_reverse.h ****         scalar_2 = 2.0f*(   (9.0f/16.0f)*sinf(float(M_PI)*(1.0f/2.0f)*(1.0f - fadepos_))  +   (1.0f
 279              		.loc 3 174 18 view .LVU66
 280 00cc 38EE088A 		vadd.f32	s16, s16, s16
 281              	.LVL15:
 174:delayline_reverse.h ****         scalar_2 = 2.0f*(   (9.0f/16.0f)*sinf(float(M_PI)*(1.0f/2.0f)*(1.0f - fadepos_))  +   (1.0f
 282              		.loc 3 174 18 view .LVU67
 283              	.LBE66:
 284              	.LBE97:
 285              	.LBB98:
 286              	.LBB87:
  95:delayline_reverse.h **** 
 287              		.loc 3 95 43 view .LVU68
 288 00d0 0133     		adds	r3, r3, #1
  92:delayline_reverse.h ****         
 289              		.loc 3 92 45 view .LVU69
 290 00d2 DFF830C1 		ldr	ip, .L17+24
  92:delayline_reverse.h ****         
 291              		.loc 3 92 57 view .LVU70
 292 00d6 08F10108 		add	r8, r8, #1
  95:delayline_reverse.h **** 
 293              		.loc 3 95 43 view .LVU71
 294 00da 3344     		add	r3, r3, r6
  92:delayline_reverse.h ****         
 295              		.loc 3 92 45 view .LVU72
 296 00dc 9444     		add	ip, ip, r2
  90:delayline_reverse.h ****         //advance write ptr in forward direction
 297              		.loc 3 90 27 view .LVU73
 298 00de 04EB8202 		add	r2, r4, r2, lsl #2
 299              	.LBE87:
 300              	.LBE98:
 301              	.LBB99:
 302              	.LBB67:
 303              		.loc 3 175 18 view .LVU74
 304 00e2 77EEA77A 		vadd.f32	s15, s15, s15
 305              	.LVL16:
 306              		.loc 3 175 18 view .LVU75
 307              	.LBE67:
 308              	.LBE99:
 309              	.LBB100:
 310              	.LBB88:
  95:delayline_reverse.h **** 
 311              		.loc 3 95 54 view .LVU76
 312 00e6 B3FBF6F5 		udiv	r5, r3, r6
 313              	.LVL17:
  95:delayline_reverse.h **** 
 314              		.loc 3 95 54 view .LVU77
 315              	.LBE88:
 316              	.LBE100:
 317              	.LBB101:
 318              	.LBB68:
 176:delayline_reverse.h **** 
 177:delayline_reverse.h ****         return (read2 * scalar_1) + (read1 * scalar_2); 
 319              		.loc 3 177 44 view .LVU78
 320 00ea 67EE8D7A 		vmul.f32	s15, s15, s26
 321              	.LVL18:
 322              		.loc 3 177 44 view .LVU79
 323              	.LBE68:
ARM GAS  /var/folders/fs/ht5wlc7s7b56r9p0ngl7ssgc0000gn/T//ccssYOSC.s 			page 14


 324              	.LBE101:
 325              	.LBB102:
 326              	.LBB89:
  95:delayline_reverse.h **** 
 327              		.loc 3 95 54 view .LVU80
 328 00ee 06FB1533 		mls	r3, r6, r5, r3
 329              	.LBE89:
 330              	.LBE102:
 331              	.LBB103:
 332              	.LBB69:
 333              		.loc 3 177 54 view .LVU81
 334 00f2 ECEE887A 		vfma.f32	s15, s25, s16
 335              	.LBE69:
 336              	.LBE103:
 337              		.loc 1 55 36 view .LVU82
 338 00f6 E7EE278A 		vfma.f32	s17, s14, s15
 339              	.LVL19:
 340              	.LBB104:
 341              	.LBB70:
 342              		.loc 3 177 54 view .LVU83
 343 00fa B0EE670A 		vmov.f32	s0, s15
 344              	.LVL20:
 345              		.loc 3 177 54 view .LVU84
 346              	.LBE70:
 347              	.LBE104:
 348              		.loc 1 55 17 is_stmt 1 view .LVU85
 349              	.LBB105:
 350              	.LBI84:
  88:delayline_reverse.h ****     {
 351              		.loc 3 88 17 view .LVU86
 352              	.LBB90:
  90:delayline_reverse.h ****         //advance write ptr in forward direction
 353              		.loc 3 90 27 is_stmt 0 view .LVU87
 354 00fe C2ED068A 		vstr.32	s17, [r2, #24]
  92:delayline_reverse.h ****         
 355              		.loc 3 92 57 view .LVU88
 356 0102 3E4A     		ldr	r2, .L17+16
  95:delayline_reverse.h **** 
 357              		.loc 3 95 26 view .LVU89
 358 0104 6361     		str	r3, [r4, #20]
  98:delayline_reverse.h ****         read_ptr2_ = (read_ptr2_ - 1 + max_size) % max_size;
 359              		.loc 3 98 50 view .LVU90
 360 0106 A2FB00E9 		umull	lr, r9, r2, r0
  92:delayline_reverse.h ****         
 361              		.loc 3 92 57 view .LVU91
 362 010a A2FB0CE5 		umull	lr, r5, r2, ip
  99:delayline_reverse.h ****  
 363              		.loc 3 99 50 view .LVU92
 364 010e A2FB01E2 		umull	lr, r2, r2, r1
  98:delayline_reverse.h ****         read_ptr2_ = (read_ptr2_ - 1 + max_size) % max_size;
 365              		.loc 3 98 50 view .LVU93
 366 0112 4FEAD929 		lsr	r9, r9, #11
 101:delayline_reverse.h ****         {
 367              		.loc 3 101 36 view .LVU94
 368 0116 D7F818EC 		ldr	lr, [r7, #3096]
  92:delayline_reverse.h ****         
 369              		.loc 3 92 57 view .LVU95
ARM GAS  /var/folders/fs/ht5wlc7s7b56r9p0ngl7ssgc0000gn/T//ccssYOSC.s 			page 15


 370 011a ED0A     		lsrs	r5, r5, #11
  99:delayline_reverse.h ****  
 371              		.loc 3 99 50 view .LVU96
 372 011c D20A     		lsrs	r2, r2, #11
  98:delayline_reverse.h ****         read_ptr2_ = (read_ptr2_ - 1 + max_size) % max_size;
 373              		.loc 3 98 50 view .LVU97
 374 011e 08FB1900 		mls	r0, r8, r9, r0
  92:delayline_reverse.h ****         
 375              		.loc 3 92 57 view .LVU98
 376 0122 08FB15C5 		mls	r5, r8, r5, ip
  99:delayline_reverse.h ****  
 377              		.loc 3 99 50 view .LVU99
 378 0126 08FB1212 		mls	r2, r8, r2, r1
  92:delayline_reverse.h ****         
 379              		.loc 3 92 27 view .LVU100
 380 012a 6560     		str	r5, [r4, #4]
  99:delayline_reverse.h ****  
 381              		.loc 3 99 20 view .LVU101
 382 012c C4E90202 		strd	r0, r2, [r4, #8]
 101:delayline_reverse.h ****         {
 383              		.loc 3 101 45 view .LVU102
 384 0130 6FEA0E02 		mvn	r2, lr
 385 0134 1644     		add	r6, r6, r2
 101:delayline_reverse.h ****         {
 386              		.loc 3 101 9 view .LVU103
 387 0136 B342     		cmp	r3, r6
 103:delayline_reverse.h ****             {
 388              		.loc 3 103 13 view .LVU104
 389 0138 97F8243C 		ldrb	r3, [r7, #3108]	@ zero_extendqisi2
 101:delayline_reverse.h ****         {
 390              		.loc 3 101 9 view .LVU105
 391 013c 26D9     		bls	.L2
 103:delayline_reverse.h ****             {
 392              		.loc 3 103 13 view .LVU106
 393 013e 53BB     		cbnz	r3, .L14
 105:delayline_reverse.h ****                 
 394              		.loc 3 105 25 view .LVU107
 395 0140 0123     		movs	r3, #1
 110:delayline_reverse.h ****                 }
 396              		.loc 3 110 45 view .LVU108
 397 0142 013D     		subs	r5, r5, #1
 105:delayline_reverse.h ****                 
 398              		.loc 3 105 25 view .LVU109
 399 0144 87F8243C 		strb	r3, [r7, #3108]
 107:delayline_reverse.h ****                 {
 400              		.loc 3 107 17 view .LVU110
 401 0148 97F81C3C 		ldrb	r3, [r7, #3100]	@ zero_extendqisi2
 402 014c 002B     		cmp	r3, #0
 403 014e 3ED1     		bne	.L4
 110:delayline_reverse.h ****                 }
 404              		.loc 3 110 32 view .LVU111
 405 0150 E560     		str	r5, [r4, #12]
 406              	.L5:
 130:delayline_reverse.h ****                 if (fadepos_ > 1.0f)
 407              		.loc 3 130 45 view .LVU112
 408 0152 07EE90EA 		vmov	s15, lr	@ int
 409 0156 B7EE007A 		vmov.f32	s14, #1.0e+0
ARM GAS  /var/folders/fs/ht5wlc7s7b56r9p0ngl7ssgc0000gn/T//ccssYOSC.s 			page 16


 410 015a F8EE676A 		vcvt.f32.u32	s13, s15
 411 015e C7EE267A 		vdiv.f32	s15, s14, s13
 130:delayline_reverse.h ****                 if (fadepos_ > 1.0f)
 412              		.loc 3 130 37 view .LVU113
 413 0162 77EEA99A 		vadd.f32	s19, s15, s19
 131:delayline_reverse.h ****                 {
 414              		.loc 3 131 17 view .LVU114
 415 0166 F4EEC79A 		vcmpe.f32	s19, s14
 416 016a F1EE10FA 		vmrs	APSR_nzcv, FPSCR
 417 016e 26DD     		ble	.L15
 133:delayline_reverse.h ****                     fading_ = false;    //stop fading
 418              		.loc 3 133 30 view .LVU115
 419 0170 07F54261 		add	r1, r7, #3104
 134:delayline_reverse.h ****                     playinghead_ = true;
 420              		.loc 3 134 29 view .LVU116
 421 0174 0022     		movs	r2, #0
 135:delayline_reverse.h ****                 }
 422              		.loc 3 135 34 view .LVU117
 423 0176 0123     		movs	r3, #1
 133:delayline_reverse.h ****                     fading_ = false;    //stop fading
 424              		.loc 3 133 30 view .LVU118
 425 0178 81ED007A 		vstr.32	s14, [r1]
 134:delayline_reverse.h ****                     playinghead_ = true;
 426              		.loc 3 134 29 view .LVU119
 427 017c 87F8242C 		strb	r2, [r7, #3108]
 135:delayline_reverse.h ****                 }
 428              		.loc 3 135 34 view .LVU120
 429 0180 87F81C3C 		strb	r3, [r7, #3100]
 430              	.LBE90:
 431              	.LBE105:
  56:Delay.h       **** 
  57:Delay.h       ****                 return readSample;
  58:Delay.h       **** 
  59:Delay.h       ****             }
 432              		.loc 1 59 13 view .LVU121
 433 0184 BDEC0C8B 		vldm	sp!, {d8-d13}
 434              		.cfi_remember_state
 435              		.cfi_restore 90
 436              		.cfi_restore 91
 437              		.cfi_restore 88
 438              		.cfi_restore 89
 439              		.cfi_restore 86
 440              		.cfi_restore 87
 441              		.cfi_restore 84
 442              		.cfi_restore 85
 443              		.cfi_restore 82
 444              		.cfi_restore 83
 445              		.cfi_restore 80
 446              		.cfi_restore 81
 447              		.cfi_def_cfa_offset 32
 448              	.LVL21:
 449              		.loc 1 59 13 view .LVU122
 450 0188 BDE8F087 		pop	{r4, r5, r6, r7, r8, r9, r10, pc}
 451              	.LVL22:
 452              	.L2:
 453              		.cfi_restore_state
 454              	.LBB106:
ARM GAS  /var/folders/fs/ht5wlc7s7b56r9p0ngl7ssgc0000gn/T//ccssYOSC.s 			page 17


 455              	.LBB91:
 126:delayline_reverse.h ****         {
 456              		.loc 3 126 9 view .LVU123
 457 018c 1BB9     		cbnz	r3, .L14
 458              	.LBE91:
 459              	.LBE106:
 460              		.loc 1 59 13 view .LVU124
 461 018e BDEC0C8B 		vldm	sp!, {d8-d13}
 462              		.cfi_remember_state
 463              		.cfi_restore 90
 464              		.cfi_restore 91
 465              		.cfi_restore 88
 466              		.cfi_restore 89
 467              		.cfi_restore 86
 468              		.cfi_restore 87
 469              		.cfi_restore 84
 470              		.cfi_restore 85
 471              		.cfi_restore 82
 472              		.cfi_restore 83
 473              		.cfi_restore 80
 474              		.cfi_restore 81
 475              		.cfi_def_cfa_offset 32
 476              	.LVL23:
 477              		.loc 1 59 13 view .LVU125
 478 0192 BDE8F087 		pop	{r4, r5, r6, r7, r8, r9, r10, pc}
 479              	.LVL24:
 480              	.L14:
 481              		.cfi_restore_state
 482              	.LBB107:
 483              	.LBB92:
 107:delayline_reverse.h ****                 {
 484              		.loc 3 107 21 view .LVU126
 485 0196 97F81C3C 		ldrb	r3, [r7, #3100]	@ zero_extendqisi2
 128:delayline_reverse.h ****             {
 486              		.loc 3 128 13 view .LVU127
 487 019a 002B     		cmp	r3, #0
 488 019c D9D0     		beq	.L5
 489              	.L6:
 141:delayline_reverse.h ****                 if (fadepos_ < 0.0f)
 490              		.loc 3 141 45 view .LVU128
 491 019e 07EE90EA 		vmov	s15, lr	@ int
 492 01a2 F7EE006A 		vmov.f32	s13, #1.0e+0
 142:delayline_reverse.h ****                 {
 493              		.loc 3 142 17 view .LVU129
 494 01a6 0023     		movs	r3, #0
 141:delayline_reverse.h ****                 if (fadepos_ < 0.0f)
 495              		.loc 3 141 45 view .LVU130
 496 01a8 B8EE677A 		vcvt.f32.u32	s14, s15
 497 01ac C6EE877A 		vdiv.f32	s15, s13, s14
 141:delayline_reverse.h ****                 if (fadepos_ < 0.0f)
 498              		.loc 3 141 37 view .LVU131
 499 01b0 79EEE79A 		vsub.f32	s19, s19, s15
 142:delayline_reverse.h ****                 {
 500              		.loc 3 142 17 view .LVU132
 501 01b4 F5EEC09A 		vcmpe.f32	s19, #0
 502 01b8 F1EE10FA 		vmrs	APSR_nzcv, FPSCR
 503 01bc 09D4     		bmi	.L11
ARM GAS  /var/folders/fs/ht5wlc7s7b56r9p0ngl7ssgc0000gn/T//ccssYOSC.s 			page 18


 504              	.L15:
 141:delayline_reverse.h ****                 if (fadepos_ < 0.0f)
 505              		.loc 3 141 26 view .LVU133
 506 01be 07F54267 		add	r7, r7, #3104
 507 01c2 C7ED009A 		vstr.32	s19, [r7]
 508              	.LBE92:
 509              	.LBE107:
 510              		.loc 1 59 13 view .LVU134
 511 01c6 BDEC0C8B 		vldm	sp!, {d8-d13}
 512              		.cfi_remember_state
 513              		.cfi_restore 90
 514              		.cfi_restore 91
 515              		.cfi_restore 88
 516              		.cfi_restore 89
 517              		.cfi_restore 86
 518              		.cfi_restore 87
 519              		.cfi_restore 84
 520              		.cfi_restore 85
 521              		.cfi_restore 82
 522              		.cfi_restore 83
 523              		.cfi_restore 80
 524              		.cfi_restore 81
 525              		.cfi_def_cfa_offset 32
 526              	.LVL25:
 527              		.loc 1 59 13 view .LVU135
 528 01ca BDE8F087 		pop	{r4, r5, r6, r7, r8, r9, r10, pc}
 529              	.LVL26:
 530              	.L4:
 531              		.cfi_restore_state
 532              	.LBB108:
 533              	.LBB93:
 116:delayline_reverse.h ****                 }
 534              		.loc 3 116 32 view .LVU136
 535 01ce A560     		str	r5, [r4, #8]
 536 01d0 E5E7     		b	.L6
 537              	.L11:
 145:delayline_reverse.h ****                     playinghead_ = false;
 538              		.loc 3 145 29 view .LVU137
 539 01d2 0022     		movs	r2, #0
 144:delayline_reverse.h ****                     fading_ = false;    //stop fading
 540              		.loc 3 144 30 view .LVU138
 541 01d4 07F54261 		add	r1, r7, #3104
 542              	.LBE93:
 543              	.LBE108:
 544              		.loc 1 59 13 view .LVU139
 545 01d8 BDEC0C8B 		vldm	sp!, {d8-d13}
 546              		.cfi_restore 90
 547              		.cfi_restore 91
 548              		.cfi_restore 88
 549              		.cfi_restore 89
 550              		.cfi_restore 86
 551              		.cfi_restore 87
 552              		.cfi_restore 84
 553              		.cfi_restore 85
 554              		.cfi_restore 82
 555              		.cfi_restore 83
 556              		.cfi_restore 80
ARM GAS  /var/folders/fs/ht5wlc7s7b56r9p0ngl7ssgc0000gn/T//ccssYOSC.s 			page 19


 557              		.cfi_restore 81
 558              		.cfi_def_cfa_offset 32
 559              	.LVL27:
 560              	.LBB109:
 561              	.LBB94:
 144:delayline_reverse.h ****                     fading_ = false;    //stop fading
 562              		.loc 3 144 30 view .LVU140
 563 01dc 0B60     		str	r3, [r1]	@ float
 145:delayline_reverse.h ****                     playinghead_ = false;
 564              		.loc 3 145 29 view .LVU141
 565 01de 87F8242C 		strb	r2, [r7, #3108]
 146:delayline_reverse.h ****                 }
 566              		.loc 3 146 34 view .LVU142
 567 01e2 87F81C2C 		strb	r2, [r7, #3100]
 568              	.LVL28:
 146:delayline_reverse.h ****                 }
 569              		.loc 3 146 34 view .LVU143
 570              	.LBE94:
 571              	.LBE109:
  57:Delay.h       **** 
 572              		.loc 1 57 17 is_stmt 1 view .LVU144
 573              		.loc 1 59 13 is_stmt 0 view .LVU145
 574 01e6 BDE8F087 		pop	{r4, r5, r6, r7, r8, r9, r10, pc}
 575              	.L18:
 576 01ea 00BF     		.align	2
 577              	.L17:
 578 01ec 17B75139 		.word	961656599
 579 01f0 DB0FC93F 		.word	1070141403
 580 01f4 E4CB9640 		.word	1083624420
 581 01f8 0000803D 		.word	1031798784
 582 01fc F1197605 		.word	91625969
 583 0200 FF760100 		.word	95999
 584 0204 01770100 		.word	96001
 585              		.cfi_endproc
 586              	.LFE4800:
 588              		.section	.text._ZN5Delay9initDelayEPN7daisysp9DelayLineIfLj96000EEE,"ax",%progbits
 589              		.align	1
 590              		.p2align 2,,3
 591              		.global	_ZN5Delay9initDelayEPN7daisysp9DelayLineIfLj96000EEE
 592              		.syntax unified
 593              		.thumb
 594              		.thumb_func
 596              	_ZN5Delay9initDelayEPN7daisysp9DelayLineIfLj96000EEE:
 597              	.LVL29:
 598              	.LFB4802:
 599              		.file 4 "Delay.cpp"
   1:Delay.cpp     **** #include "Delay.h"
   2:Delay.cpp     **** 
   3:Delay.cpp     **** 
   4:Delay.cpp     **** void Delay::initDelay(DelayLine<float, MAX_DELAY> delayMems[4])
   5:Delay.cpp     **** {
 600              		.loc 4 5 1 is_stmt 1 view -0
 601              		.cfi_startproc
 602              		@ args = 0, pretend = 0, frame = 0
 603              		@ frame_needed = 0, uses_anonymous_args = 0
   6:Delay.cpp     ****     for (int i = 0; i < 4; i++)
 604              		.loc 4 6 5 view .LVU147
ARM GAS  /var/folders/fs/ht5wlc7s7b56r9p0ngl7ssgc0000gn/T//ccssYOSC.s 			page 20


 605              	.LBB110:
 606              		.loc 4 6 23 view .LVU148
 607              	.LBE110:
   5:Delay.cpp     ****     for (int i = 0; i < 4; i++)
 608              		.loc 4 5 1 is_stmt 0 view .LVU149
 609 0000 70B5     		push	{r4, r5, r6, lr}
 610              		.cfi_def_cfa_offset 16
 611              		.cfi_offset 4, -16
 612              		.cfi_offset 5, -12
 613              		.cfi_offset 6, -8
 614              		.cfi_offset 14, -4
 615 0002 104E     		ldr	r6, .L23
 616 0004 0446     		mov	r4, r0
 617 0006 01F10C03 		add	r3, r1, #12
 618 000a 0E44     		add	r6, r6, r1
 619              	.LVL30:
 620              	.L20:
 621              	.LBB128:
   7:Delay.cpp     ****     {
   8:Delay.cpp     ****         delayMems[i].Init();
 622              		.loc 4 8 9 is_stmt 1 discriminator 2 view .LVU150
 623              	.LBB111:
 624              	.LBI111:
 625              		.file 5 "../../DaisySP//Source/Utility/delayline.h"
   1:../../DaisySP//Source/Utility/delayline.h **** #pragma once
   2:../../DaisySP//Source/Utility/delayline.h **** #ifndef DSY_DELAY_H
   3:../../DaisySP//Source/Utility/delayline.h **** #define DSY_DELAY_H
   4:../../DaisySP//Source/Utility/delayline.h **** #include <stdlib.h>
   5:../../DaisySP//Source/Utility/delayline.h **** #include <stdint.h>
   6:../../DaisySP//Source/Utility/delayline.h **** namespace daisysp
   7:../../DaisySP//Source/Utility/delayline.h **** {
   8:../../DaisySP//Source/Utility/delayline.h **** /** Simple Delay line.
   9:../../DaisySP//Source/Utility/delayline.h **** November 2019
  10:../../DaisySP//Source/Utility/delayline.h **** 
  11:../../DaisySP//Source/Utility/delayline.h **** Converted to Template December 2019
  12:../../DaisySP//Source/Utility/delayline.h **** 
  13:../../DaisySP//Source/Utility/delayline.h **** declaration example: (1 second of floats)
  14:../../DaisySP//Source/Utility/delayline.h **** 
  15:../../DaisySP//Source/Utility/delayline.h **** DelayLine<float, SAMPLE_RATE> del;
  16:../../DaisySP//Source/Utility/delayline.h **** 
  17:../../DaisySP//Source/Utility/delayline.h **** By: shensley
  18:../../DaisySP//Source/Utility/delayline.h **** */
  19:../../DaisySP//Source/Utility/delayline.h **** template <typename T, size_t max_size>
  20:../../DaisySP//Source/Utility/delayline.h **** class DelayLine
  21:../../DaisySP//Source/Utility/delayline.h **** {
  22:../../DaisySP//Source/Utility/delayline.h ****   public:
  23:../../DaisySP//Source/Utility/delayline.h ****     DelayLine() {}
  24:../../DaisySP//Source/Utility/delayline.h ****     ~DelayLine() {}
  25:../../DaisySP//Source/Utility/delayline.h ****     /** initializes the delay line by clearing the values within, and setting delay to 1 sample.
  26:../../DaisySP//Source/Utility/delayline.h ****     */
  27:../../DaisySP//Source/Utility/delayline.h ****     void Init() { Reset(); speed = 1;}
 626              		.loc 5 27 10 discriminator 2 view .LVU151
 627              	.LBB112:
 628              	.LBB113:
 629              	.LBI113:
  28:../../DaisySP//Source/Utility/delayline.h ****     /** clears buffer, sets write ptr to 0, and delay to 1 sample.
  29:../../DaisySP//Source/Utility/delayline.h ****     */
ARM GAS  /var/folders/fs/ht5wlc7s7b56r9p0ngl7ssgc0000gn/T//ccssYOSC.s 			page 21


  30:../../DaisySP//Source/Utility/delayline.h ****     void Reset()
 630              		.loc 5 30 10 discriminator 2 view .LVU152
 631              	.LBB114:
 632              	.LBB115:
  31:../../DaisySP//Source/Utility/delayline.h ****     {
  32:../../DaisySP//Source/Utility/delayline.h ****         for(size_t i = 0; i < max_size; i++)
 633              		.loc 5 32 29 discriminator 2 view .LVU153
  33:../../DaisySP//Source/Utility/delayline.h ****         {
  34:../../DaisySP//Source/Utility/delayline.h ****             line_[i] = T(0);
 634              		.loc 5 34 22 is_stmt 0 discriminator 2 view .LVU154
 635 000c 1846     		mov	r0, r3
 636 000e 0E4A     		ldr	r2, .L23+4
 637 0010 0021     		movs	r1, #0
 638              	.LBE115:
  35:../../DaisySP//Source/Utility/delayline.h ****         }
  36:../../DaisySP//Source/Utility/delayline.h ****         write_ptr_ = 0;
 639              		.loc 5 36 20 discriminator 2 view .LVU155
 640 0012 0025     		movs	r5, #0
 641              	.LBB116:
  34:../../DaisySP//Source/Utility/delayline.h ****         }
 642              		.loc 5 34 22 discriminator 2 view .LVU156
 643 0014 FFF7FEFF 		bl	memset
 644              	.LVL31:
  34:../../DaisySP//Source/Utility/delayline.h ****         }
 645              		.loc 5 34 22 discriminator 2 view .LVU157
 646              	.LBE116:
  37:../../DaisySP//Source/Utility/delayline.h ****         delay_     = 1;
 647              		.loc 5 37 20 discriminator 2 view .LVU158
 648 0018 0122     		movs	r2, #1
 649              	.LBB117:
  34:../../DaisySP//Source/Utility/delayline.h ****         }
 650              		.loc 5 34 22 discriminator 2 view .LVU159
 651 001a 0346     		mov	r3, r0
 652              	.LVL32:
  34:../../DaisySP//Source/Utility/delayline.h ****         }
 653              		.loc 5 34 22 discriminator 2 view .LVU160
 654              	.LBE117:
 655              	.LBE114:
 656              	.LBE113:
 657              	.LBE112:
 658              	.LBE111:
   6:Delay.cpp     ****     {
 659              		.loc 4 6 23 discriminator 2 view .LVU161
 660 001c 1C34     		adds	r4, r4, #28
 661              	.LBB125:
 662              	.LBB122:
  27:../../DaisySP//Source/Utility/delayline.h ****     /** clears buffer, sets write ptr to 0, and delay to 1 sample.
 663              		.loc 5 27 34 discriminator 2 view .LVU162
 664 001e 00F5BA20 		add	r0, r0, #380928
 665              	.LBB120:
 666              	.LBB118:
 667              		.loc 5 37 20 discriminator 2 view .LVU163
 668 0022 43F8042C 		str	r2, [r3, #-4]
 669              		.loc 5 37 20 discriminator 2 view .LVU164
 670              	.LBE118:
 671              	.LBE120:
 672              	.LBE122:
ARM GAS  /var/folders/fs/ht5wlc7s7b56r9p0ngl7ssgc0000gn/T//ccssYOSC.s 			page 22


 673              	.LBE125:
   9:Delay.cpp     ****         delayHeads[i].delay = &delayMems[i];
 674              		.loc 4 9 29 discriminator 2 view .LVU165
 675 0026 A3F10C01 		sub	r1, r3, #12
 676              	.LBB126:
 677              	.LBB123:
 678              	.LBB121:
 679              	.LBB119:
  36:../../DaisySP//Source/Utility/delayline.h ****         delay_     = 1;
 680              		.loc 5 36 20 discriminator 2 view .LVU166
 681 002a 43F8085C 		str	r5, [r3, #-8]
 682              	.LBE119:
 683              	.LBE121:
 684              	.LBE123:
 685              	.LBE126:
   6:Delay.cpp     ****     {
 686              		.loc 4 6 23 discriminator 2 view .LVU167
 687 002e 03F5BB23 		add	r3, r3, #382976
 688              	.LBB127:
 689              	.LBB124:
  27:../../DaisySP//Source/Utility/delayline.h ****     /** clears buffer, sets write ptr to 0, and delay to 1 sample.
 690              		.loc 5 27 34 discriminator 2 view .LVU168
 691 0032 C0F8002C 		str	r2, [r0, #3072]
  27:../../DaisySP//Source/Utility/delayline.h ****     /** clears buffer, sets write ptr to 0, and delay to 1 sample.
 692              		.loc 5 27 34 discriminator 2 view .LVU169
 693              	.LBE124:
 694              	.LBE127:
 695              		.loc 4 9 9 is_stmt 1 discriminator 2 view .LVU170
   6:Delay.cpp     ****     {
 696              		.loc 4 6 23 is_stmt 0 discriminator 2 view .LVU171
 697 0036 03F58263 		add	r3, r3, #1040
 698              		.loc 4 9 29 discriminator 2 view .LVU172
 699 003a 44F8081C 		str	r1, [r4, #-8]
   6:Delay.cpp     ****     {
 700              		.loc 4 6 5 is_stmt 1 discriminator 2 view .LVU173
   6:Delay.cpp     ****     {
 701              		.loc 4 6 23 discriminator 2 view .LVU174
 702 003e B342     		cmp	r3, r6
 703 0040 E4D1     		bne	.L20
 704              	.LBE128:
  10:Delay.cpp     ****     }
  11:Delay.cpp     **** }
 705              		.loc 4 11 1 is_stmt 0 view .LVU175
 706 0042 70BD     		pop	{r4, r5, r6, pc}
 707              	.L24:
 708              		.align	2
 709              	.L23:
 710 0044 4C701700 		.word	1536076
 711 0048 00DC0500 		.word	384000
 712              		.cfi_endproc
 713              	.LFE4802:
 715              		.section	.text._ZN5Delay16initDelayReverseEPN7daisysp16DelayLineReverseIfLj96000EEE,"ax",%progbits
 716              		.align	1
 717              		.p2align 2,,3
 718              		.global	_ZN5Delay16initDelayReverseEPN7daisysp16DelayLineReverseIfLj96000EEE
 719              		.syntax unified
 720              		.thumb
ARM GAS  /var/folders/fs/ht5wlc7s7b56r9p0ngl7ssgc0000gn/T//ccssYOSC.s 			page 23


 721              		.thumb_func
 723              	_ZN5Delay16initDelayReverseEPN7daisysp16DelayLineReverseIfLj96000EEE:
 724              	.LVL33:
 725              	.LFB4803:
  12:Delay.cpp     **** 
  13:Delay.cpp     **** void Delay::initDelayReverse(DelayLineReverse<float, MAX_DELAY> delayMems[4])
  14:Delay.cpp     **** {
 726              		.loc 4 14 1 is_stmt 1 view -0
 727              		.cfi_startproc
 728              		@ args = 0, pretend = 0, frame = 0
 729              		@ frame_needed = 0, uses_anonymous_args = 0
  15:Delay.cpp     ****     for (int i = 0; i < 4; i++)
 730              		.loc 4 15 5 view .LVU177
 731              	.LBB140:
 732              		.loc 4 15 23 view .LVU178
 733              	.LBE140:
  14:Delay.cpp     ****     for (int i = 0; i < 4; i++)
 734              		.loc 4 14 1 is_stmt 0 view .LVU179
 735 0000 F8B5     		push	{r3, r4, r5, r6, r7, lr}
 736              		.cfi_def_cfa_offset 24
 737              		.cfi_offset 3, -24
 738              		.cfi_offset 4, -20
 739              		.cfi_offset 5, -16
 740              		.cfi_offset 6, -12
 741              		.cfi_offset 7, -8
 742              		.cfi_offset 14, -4
 743 0002 144C     		ldr	r4, .L29
 744 0004 0546     		mov	r5, r0
 745 0006 144F     		ldr	r7, .L29+4
 746 0008 01F11803 		add	r3, r1, #24
 747 000c 0C44     		add	r4, r4, r1
 748 000e 0F44     		add	r7, r7, r1
 749              	.LVL34:
 750              	.L26:
 751              	.LBB162:
  16:Delay.cpp     ****     {
  17:Delay.cpp     ****         delayMems[i].Init();
 752              		.loc 4 17 9 is_stmt 1 discriminator 2 view .LVU180
 753              		.loc 4 17 9 is_stmt 0 discriminator 2 view .LVU181
 754              	.LBE162:
  54:delayline_reverse.h ****         {
 755              		.loc 3 54 29 is_stmt 1 discriminator 2 view .LVU182
 756              	.LBB163:
  18:Delay.cpp     ****         delayHeads[i].delayReverse = &delayMems[i];
 757              		.loc 4 18 9 discriminator 2 view .LVU183
 758              		.loc 4 18 36 is_stmt 0 discriminator 2 view .LVU184
 759 0010 A3F11802 		sub	r2, r3, #24
 760              	.LBB141:
 761              	.LBB142:
 762              	.LBB143:
  51:delayline_reverse.h ****         fadetime = 24000;    //in samples = 0.5 seconds
 763              		.loc 3 51 18 discriminator 2 view .LVU185
 764 0014 46F2A811 		movw	r1, #25000
  52:delayline_reverse.h ****         
 765              		.loc 3 52 18 discriminator 2 view .LVU186
 766 0018 45F6C056 		movw	r6, #24000
 767              	.LBB144:
ARM GAS  /var/folders/fs/ht5wlc7s7b56r9p0ngl7ssgc0000gn/T//ccssYOSC.s 			page 24


  56:delayline_reverse.h ****         }
 768              		.loc 3 56 22 discriminator 2 view .LVU187
 769 001c 1846     		mov	r0, r3
 770              	.LBE144:
 771              	.LBE143:
 772              	.LBE142:
 773              	.LBE141:
 774              		.loc 4 18 36 discriminator 2 view .LVU188
 775 001e AA61     		str	r2, [r5, #24]
  19:Delay.cpp     ****         delayHeads[i].delayReverse->Init();
 776              		.loc 4 19 9 is_stmt 1 discriminator 2 view .LVU189
 777              	.LVL35:
 778              	.LBB157:
 779              	.LBI141:
  42:delayline_reverse.h ****     { 
 780              		.loc 3 42 10 discriminator 2 view .LVU190
 781              	.LBB152:
 782              	.LBI142:
  48:delayline_reverse.h ****     {
 783              		.loc 3 48 10 discriminator 2 view .LVU191
 784              	.LBE152:
 785              	.LBE157:
  15:Delay.cpp     ****     {
 786              		.loc 4 15 23 is_stmt 0 discriminator 2 view .LVU192
 787 0020 1C35     		adds	r5, r5, #28
 788              	.LBB158:
 789              	.LBB153:
 790              	.LBB148:
  51:delayline_reverse.h ****         fadetime = 24000;    //in samples = 0.5 seconds
 791              		.loc 3 51 18 discriminator 2 view .LVU193
 792 0022 43F8081C 		str	r1, [r3, #-8]
 793              	.LBB145:
  56:delayline_reverse.h ****         }
 794              		.loc 3 56 22 discriminator 2 view .LVU194
 795 0026 0021     		movs	r1, #0
 796 0028 0C4A     		ldr	r2, .L29+8
 797              	.LVL36:
  56:delayline_reverse.h ****         }
 798              		.loc 3 56 22 discriminator 2 view .LVU195
 799              	.LBE145:
  52:delayline_reverse.h ****         
 800              		.loc 3 52 18 discriminator 2 view .LVU196
 801 002a 2660     		str	r6, [r4]
 802              	.LVL37:
 803              	.LBB146:
  54:delayline_reverse.h ****         {
 804              		.loc 3 54 29 is_stmt 1 discriminator 2 view .LVU197
  56:delayline_reverse.h ****         }
 805              		.loc 3 56 22 is_stmt 0 discriminator 2 view .LVU198
 806 002c FFF7FEFF 		bl	memset
 807              	.LVL38:
  56:delayline_reverse.h ****         }
 808              		.loc 3 56 22 discriminator 2 view .LVU199
 809              	.LBE146:
  58:delayline_reverse.h ****         read_ptr1_ = 0;
 810              		.loc 3 58 20 discriminator 2 view .LVU200
 811 0030 0022     		movs	r2, #0
ARM GAS  /var/folders/fs/ht5wlc7s7b56r9p0ngl7ssgc0000gn/T//ccssYOSC.s 			page 25


 812              	.LBB147:
  56:delayline_reverse.h ****         }
 813              		.loc 3 56 22 discriminator 2 view .LVU201
 814 0032 0346     		mov	r3, r0
 815              	.LVL39:
  56:delayline_reverse.h ****         }
 816              		.loc 3 56 22 discriminator 2 view .LVU202
 817              	.LBE147:
 818              	.LBE148:
 819              	.LBE153:
 820              	.LBE158:
  15:Delay.cpp     ****     {
 821              		.loc 4 15 23 discriminator 2 view .LVU203
 822 0034 0A49     		ldr	r1, .L29+12
 823              	.LBB159:
 824              	.LBB154:
 825              	.LBB149:
  63:delayline_reverse.h ****         fading_ = false;
 826              		.loc 3 63 18 discriminator 2 view .LVU204
 827 0036 0020     		movs	r0, #0
  60:delayline_reverse.h ****         headDiff_ = 0;
 828              		.loc 3 60 20 discriminator 2 view .LVU205
 829 0038 43F80C2C 		str	r2, [r3, #-12]
  61:delayline_reverse.h ****         playinghead_ = false;
 830              		.loc 3 61 19 discriminator 2 view .LVU206
 831 003c 43F8042C 		str	r2, [r3, #-4]
  59:delayline_reverse.h ****         read_ptr2_ = 0;
 832              		.loc 3 59 20 discriminator 2 view .LVU207
 833 0040 43E90522 		strd	r2, r2, [r3, #-20]
 834              	.LBE149:
 835              	.LBE154:
 836              	.LBE159:
  15:Delay.cpp     ****     {
 837              		.loc 4 15 23 discriminator 2 view .LVU208
 838 0044 0B44     		add	r3, r3, r1
 839              	.LBB160:
 840              	.LBB155:
 841              	.LBB150:
  62:delayline_reverse.h ****         fadepos_ = 0.0f;
 842              		.loc 3 62 22 discriminator 2 view .LVU209
 843 0046 2271     		strb	r2, [r4, #4]
  63:delayline_reverse.h ****         fading_ = false;
 844              		.loc 3 63 18 discriminator 2 view .LVU210
 845 0048 A060     		str	r0, [r4, #8]	@ float
 846              	.LBE150:
 847              	.LBE155:
 848              	.LBE160:
  15:Delay.cpp     ****     {
 849              		.loc 4 15 23 discriminator 2 view .LVU211
 850 004a 9F42     		cmp	r7, r3
 851              	.LBB161:
 852              	.LBB156:
 853              	.LBB151:
  64:delayline_reverse.h ****     }
 854              		.loc 3 64 17 discriminator 2 view .LVU212
 855 004c 2273     		strb	r2, [r4, #12]
  64:delayline_reverse.h ****     }
ARM GAS  /var/folders/fs/ht5wlc7s7b56r9p0ngl7ssgc0000gn/T//ccssYOSC.s 			page 26


 856              		.loc 3 64 17 discriminator 2 view .LVU213
 857              	.LBE151:
 858              	.LBE156:
 859              	.LBE161:
  15:Delay.cpp     ****     {
 860              		.loc 4 15 5 is_stmt 1 discriminator 2 view .LVU214
  15:Delay.cpp     ****     {
 861              		.loc 4 15 23 discriminator 2 view .LVU215
 862 004e 0C44     		add	r4, r4, r1
 863 0050 DED1     		bne	.L26
 864              	.LBE163:
  20:Delay.cpp     ****     }
  21:Delay.cpp     **** }
 865              		.loc 4 21 1 is_stmt 0 view .LVU216
 866 0052 F8BD     		pop	{r3, r4, r5, r6, r7, pc}
 867              	.L30:
 868              		.align	2
 869              	.L29:
 870 0054 18DC0500 		.word	384024
 871 0058 B8701700 		.word	1536184
 872 005c 00DC0500 		.word	384000
 873 0060 28DC0500 		.word	384040
 874              		.cfi_endproc
 875              	.LFE4803:
 877              		.section	.text._ZN5DelayC2Ev,"ax",%progbits
 878              		.align	1
 879              		.p2align 2,,3
 880              		.global	_ZN5DelayC2Ev
 881              		.syntax unified
 882              		.thumb
 883              		.thumb_func
 885              	_ZN5DelayC2Ev:
 886              	.LVL40:
 887              	.LFB4808:
  22:Delay.cpp     **** 
  23:Delay.cpp     **** Delay::Delay()
 888              		.loc 4 23 1 is_stmt 1 view -0
 889              		.cfi_startproc
 890              		@ args = 0, pretend = 0, frame = 0
 891              		@ frame_needed = 0, uses_anonymous_args = 0
 892              		@ link register save eliminated.
 893              	.LBB164:
 894              		.loc 4 23 14 view .LVU218
 895 0000 00F11403 		add	r3, r0, #20
 896 0004 00F18401 		add	r1, r0, #132
 897              	.L32:
 898              	.LVL41:
 899              	.LBB165:
 900              	.LBI165:
  18:Delay.h       ****         {
 901              		.loc 1 18 16 view .LVU219
 902              	.LBE165:
 903              		.loc 4 23 14 is_stmt 0 view .LVU220
 904 0008 1C33     		adds	r3, r3, #28
 905              	.LVL42:
 906              	.LBB168:
 907              	.LBB166:
ARM GAS  /var/folders/fs/ht5wlc7s7b56r9p0ngl7ssgc0000gn/T//ccssYOSC.s 			page 27


  18:Delay.h       ****         {
 908              		.loc 1 18 16 view .LVU221
 909 000a 0022     		movs	r2, #0
 910              	.LBE166:
 911              	.LBE168:
 912              		.loc 4 23 14 view .LVU222
 913 000c 8B42     		cmp	r3, r1
 914              	.LBB169:
 915              	.LBB167:
  18:Delay.h       ****         {
 916              		.loc 1 18 16 view .LVU223
 917 000e 43F8082C 		str	r2, [r3, #-8]	@ float
 918 0012 43F8042C 		str	r2, [r3, #-4]	@ float
 919              	.LVL43:
  18:Delay.h       ****         {
 920              		.loc 1 18 16 view .LVU224
 921              	.LBE167:
 922              	.LBE169:
 923              		.loc 4 23 14 is_stmt 1 view .LVU225
 924              		.loc 4 23 14 view .LVU226
 925 0016 F7D1     		bne	.L32
 926              	.LVL44:
 927              	.LBB170:
 928              	.LBB171:
  24:Delay.cpp     **** {
  25:Delay.cpp     ****     //delayMems = temp;
  26:Delay.cpp     ****     for(int i = 0; i < 4; i++)
 929              		.loc 4 26 22 view .LVU227
  27:Delay.cpp     ****     {
  28:Delay.cpp     ****         // Init the feedback
  29:Delay.cpp     ****         delayHeads[i].feedback = 0; 
 930              		.loc 4 29 9 view .LVU228
  30:Delay.cpp     ****         // Make sure they are all off
  31:Delay.cpp     ****         delayHeadOn[i] = false;
 931              		.loc 4 31 24 is_stmt 0 view .LVU229
 932 0018 0023     		movs	r3, #0
 933              	.LBE171:
  32:Delay.cpp     ****     }
  33:Delay.cpp     ****     bpm = 10;
 934              		.loc 4 33 9 view .LVU230
 935 001a 0449     		ldr	r1, .L36
 936              	.LBB172:
  29:Delay.cpp     ****         // Make sure they are all off
 937              		.loc 4 29 32 view .LVU231
 938 001c 4262     		str	r2, [r0, #36]	@ float
  31:Delay.cpp     ****     }
 939              		.loc 4 31 9 is_stmt 1 view .LVU232
  26:Delay.cpp     ****     {
 940              		.loc 4 26 5 view .LVU233
 941              	.LVL45:
  26:Delay.cpp     ****     {
 942              		.loc 4 26 22 view .LVU234
  29:Delay.cpp     ****         // Make sure they are all off
 943              		.loc 4 29 9 view .LVU235
  29:Delay.cpp     ****         // Make sure they are all off
 944              		.loc 4 29 32 is_stmt 0 view .LVU236
 945 001e 0264     		str	r2, [r0, #64]	@ float
ARM GAS  /var/folders/fs/ht5wlc7s7b56r9p0ngl7ssgc0000gn/T//ccssYOSC.s 			page 28


  31:Delay.cpp     ****     }
 946              		.loc 4 31 9 is_stmt 1 view .LVU237
  26:Delay.cpp     ****     {
 947              		.loc 4 26 5 view .LVU238
 948              	.LVL46:
  26:Delay.cpp     ****     {
 949              		.loc 4 26 22 view .LVU239
  29:Delay.cpp     ****         // Make sure they are all off
 950              		.loc 4 29 9 view .LVU240
  29:Delay.cpp     ****         // Make sure they are all off
 951              		.loc 4 29 32 is_stmt 0 view .LVU241
 952 0020 C265     		str	r2, [r0, #92]	@ float
  31:Delay.cpp     ****     }
 953              		.loc 4 31 9 is_stmt 1 view .LVU242
  26:Delay.cpp     ****     {
 954              		.loc 4 26 5 view .LVU243
 955              	.LVL47:
  26:Delay.cpp     ****     {
 956              		.loc 4 26 22 view .LVU244
  29:Delay.cpp     ****         // Make sure they are all off
 957              		.loc 4 29 9 view .LVU245
  29:Delay.cpp     ****         // Make sure they are all off
 958              		.loc 4 29 32 is_stmt 0 view .LVU246
 959 0022 8267     		str	r2, [r0, #120]	@ float
  31:Delay.cpp     ****     }
 960              		.loc 4 31 9 is_stmt 1 view .LVU247
  26:Delay.cpp     ****     {
 961              		.loc 4 26 5 view .LVU248
 962              	.LVL48:
  26:Delay.cpp     ****     {
 963              		.loc 4 26 22 view .LVU249
 964              	.LBE172:
 965              		.loc 4 33 5 view .LVU250
 966              	.LBB173:
  31:Delay.cpp     ****     }
 967              		.loc 4 31 24 is_stmt 0 view .LVU251
 968 0024 0360     		str	r3, [r0]
 969              	.LBE173:
 970              		.loc 4 33 9 view .LVU252
 971 0026 4160     		str	r1, [r0, #4]	@ float
  34:Delay.cpp     ****     proccessReverse = false;
 972              		.loc 4 34 5 is_stmt 1 view .LVU253
 973              		.loc 4 34 21 is_stmt 0 view .LVU254
 974 0028 0374     		strb	r3, [r0, #16]
 975              	.LBE170:
 976              	.LBE164:
  35:Delay.cpp     **** 
  36:Delay.cpp     **** }
 977              		.loc 4 36 1 view .LVU255
 978 002a 7047     		bx	lr
 979              	.L37:
 980              		.align	2
 981              	.L36:
 982 002c 00002041 		.word	1092616192
 983              		.cfi_endproc
 984              	.LFE4808:
 986              		.global	_ZN5DelayC1Ev
ARM GAS  /var/folders/fs/ht5wlc7s7b56r9p0ngl7ssgc0000gn/T//ccssYOSC.s 			page 29


 987              		.thumb_set _ZN5DelayC1Ev,_ZN5DelayC2Ev
 988              		.section	.text._ZN5Delay7stopAllEv,"ax",%progbits
 989              		.align	1
 990              		.p2align 2,,3
 991              		.global	_ZN5Delay7stopAllEv
 992              		.syntax unified
 993              		.thumb
 994              		.thumb_func
 996              	_ZN5Delay7stopAllEv:
 997              	.LVL49:
 998              	.LFB4810:
  37:Delay.cpp     **** 
  38:Delay.cpp     **** void Delay::stopAll()
  39:Delay.cpp     **** {
 999              		.loc 4 39 1 is_stmt 1 view -0
 1000              		.cfi_startproc
 1001              		@ args = 0, pretend = 0, frame = 0
 1002              		@ frame_needed = 0, uses_anonymous_args = 0
 1003              		@ link register save eliminated.
  40:Delay.cpp     ****     for(int i = 0;i < NUM_OF_DELAY_HEADS;i++)
 1004              		.loc 4 40 5 view .LVU257
 1005              	.LBB174:
 1006              		.loc 4 40 21 view .LVU258
  41:Delay.cpp     ****         delayHeadOn[i] = false;
 1007              		.loc 4 41 9 view .LVU259
  40:Delay.cpp     ****     for(int i = 0;i < NUM_OF_DELAY_HEADS;i++)
 1008              		.loc 4 40 5 view .LVU260
  40:Delay.cpp     ****     for(int i = 0;i < NUM_OF_DELAY_HEADS;i++)
 1009              		.loc 4 40 21 view .LVU261
 1010              		.loc 4 41 9 view .LVU262
  40:Delay.cpp     ****     for(int i = 0;i < NUM_OF_DELAY_HEADS;i++)
 1011              		.loc 4 40 5 view .LVU263
  40:Delay.cpp     ****     for(int i = 0;i < NUM_OF_DELAY_HEADS;i++)
 1012              		.loc 4 40 21 view .LVU264
 1013              		.loc 4 41 9 view .LVU265
  40:Delay.cpp     ****     for(int i = 0;i < NUM_OF_DELAY_HEADS;i++)
 1014              		.loc 4 40 5 view .LVU266
  40:Delay.cpp     ****     for(int i = 0;i < NUM_OF_DELAY_HEADS;i++)
 1015              		.loc 4 40 21 view .LVU267
 1016              		.loc 4 41 9 view .LVU268
 1017              		.loc 4 41 24 is_stmt 0 view .LVU269
 1018 0000 0023     		movs	r3, #0
 1019 0002 0360     		str	r3, [r0]
  40:Delay.cpp     ****     for(int i = 0;i < NUM_OF_DELAY_HEADS;i++)
 1020              		.loc 4 40 5 is_stmt 1 view .LVU270
 1021              	.LVL50:
  40:Delay.cpp     ****     for(int i = 0;i < NUM_OF_DELAY_HEADS;i++)
 1022              		.loc 4 40 21 view .LVU271
 1023              	.LBE174:
  42:Delay.cpp     **** }
 1024              		.loc 4 42 1 is_stmt 0 view .LVU272
 1025 0004 7047     		bx	lr
 1026              		.cfi_endproc
 1027              	.LFE4810:
 1029 0006 00BF     		.section	.text._ZN5Delay6setBPMEf,"ax",%progbits
 1030              		.align	1
 1031              		.p2align 2,,3
ARM GAS  /var/folders/fs/ht5wlc7s7b56r9p0ngl7ssgc0000gn/T//ccssYOSC.s 			page 30


 1032              		.global	_ZN5Delay6setBPMEf
 1033              		.syntax unified
 1034              		.thumb
 1035              		.thumb_func
 1037              	_ZN5Delay6setBPMEf:
 1038              	.LVL51:
 1039              	.LFB4811:
  43:Delay.cpp     **** 
  44:Delay.cpp     **** void Delay::setBPM(float bpm)
  45:Delay.cpp     **** {
 1040              		.loc 4 45 1 is_stmt 1 view -0
 1041              		.cfi_startproc
 1042              		@ args = 0, pretend = 0, frame = 0
 1043              		@ frame_needed = 0, uses_anonymous_args = 0
 1044              		@ link register save eliminated.
  46:Delay.cpp     ****     this->bpm = bpm;
 1045              		.loc 4 46 5 view .LVU274
 1046              		.loc 4 46 15 is_stmt 0 view .LVU275
 1047 0000 80ED010A 		vstr.32	s0, [r0, #4]
  47:Delay.cpp     **** }
 1048              		.loc 4 47 1 view .LVU276
 1049 0004 7047     		bx	lr
 1050              		.cfi_endproc
 1051              	.LFE4811:
 1053 0006 00BF     		.section	.text._ZN5Delay11setFeedbackERKf,"ax",%progbits
 1054              		.align	1
 1055              		.p2align 2,,3
 1056              		.global	_ZN5Delay11setFeedbackERKf
 1057              		.syntax unified
 1058              		.thumb
 1059              		.thumb_func
 1061              	_ZN5Delay11setFeedbackERKf:
 1062              	.LVL52:
 1063              	.LFB4812:
  48:Delay.cpp     **** 
  49:Delay.cpp     **** void Delay::setFeedback(const float& feed)                           
  50:Delay.cpp     **** {
 1064              		.loc 4 50 1 is_stmt 1 view -0
 1065              		.cfi_startproc
 1066              		@ args = 0, pretend = 0, frame = 0
 1067              		@ frame_needed = 0, uses_anonymous_args = 0
 1068              		@ link register save eliminated.
  51:Delay.cpp     ****     
  52:Delay.cpp     ****     this->feedback = feed;
 1069              		.loc 4 52 5 view .LVU278
 1070              		.loc 4 52 22 is_stmt 0 view .LVU279
 1071 0000 0B68     		ldr	r3, [r1]	@ float
 1072              		.loc 4 52 20 view .LVU280
 1073 0002 8360     		str	r3, [r0, #8]	@ float
  53:Delay.cpp     **** 
  54:Delay.cpp     **** }
 1074              		.loc 4 54 1 view .LVU281
 1075 0004 7047     		bx	lr
 1076              		.cfi_endproc
 1077              	.LFE4812:
 1079 0006 00BF     		.section	.text._ZN5Delay7processEf,"ax",%progbits
 1080              		.align	1
ARM GAS  /var/folders/fs/ht5wlc7s7b56r9p0ngl7ssgc0000gn/T//ccssYOSC.s 			page 31


 1081              		.p2align 2,,3
 1082              		.global	_ZN5Delay7processEf
 1083              		.syntax unified
 1084              		.thumb
 1085              		.thumb_func
 1087              	_ZN5Delay7processEf:
 1088              	.LVL53:
 1089              	.LFB4813:
  55:Delay.cpp     **** 
  56:Delay.cpp     **** float Delay::process(float in)
  57:Delay.cpp     **** {
 1090              		.loc 4 57 1 is_stmt 1 view -0
 1091              		.cfi_startproc
 1092              		@ args = 0, pretend = 0, frame = 8
 1093              		@ frame_needed = 0, uses_anonymous_args = 0
  58:Delay.cpp     **** 
  59:Delay.cpp     **** 
  60:Delay.cpp     ****         float allDelaySignals = 0;
 1094              		.loc 4 60 9 view .LVU283
  61:Delay.cpp     **** 
  62:Delay.cpp     ****         for (int i = 0; i < NUM_OF_DELAY_HEADS; i++)
 1095              		.loc 4 62 9 view .LVU284
 1096              	.LBB188:
 1097              		.loc 4 62 27 view .LVU285
 1098              	.LBE188:
  57:Delay.cpp     **** 
 1099              		.loc 4 57 1 is_stmt 0 view .LVU286
 1100 0000 2DE9F04F 		push	{r4, r5, r6, r7, r8, r9, r10, fp, lr}
 1101              		.cfi_def_cfa_offset 36
 1102              		.cfi_offset 4, -36
 1103              		.cfi_offset 5, -32
 1104              		.cfi_offset 6, -28
 1105              		.cfi_offset 7, -24
 1106              		.cfi_offset 8, -20
 1107              		.cfi_offset 9, -16
 1108              		.cfi_offset 10, -12
 1109              		.cfi_offset 11, -8
 1110              		.cfi_offset 14, -4
 1111 0004 2DED028B 		vpush.64	{d8}
 1112              		.cfi_def_cfa_offset 44
 1113              		.cfi_offset 80, -44
 1114              		.cfi_offset 81, -40
 1115 0008 F0EE408A 		vmov.f32	s17, s0
 1116 000c 83B0     		sub	sp, sp, #12
 1117              		.cfi_def_cfa_offset 56
 1118              	.LBB253:
 1119              		.loc 4 62 18 view .LVU287
 1120 000e 0026     		movs	r6, #0
 1121              	.LBE253:
  60:Delay.cpp     **** 
 1122              		.loc 4 60 15 view .LVU288
 1123 0010 9FED538A 		vldr.32	s16, .L54
  57:Delay.cpp     **** 
 1124              		.loc 4 57 1 view .LVU289
 1125 0014 0546     		mov	r5, r0
 1126 0016 00F11404 		add	r4, r0, #20
 1127 001a 00F1FF3B 		add	fp, r0, #-1
ARM GAS  /var/folders/fs/ht5wlc7s7b56r9p0ngl7ssgc0000gn/T//ccssYOSC.s 			page 32


 1128              	.LVL54:
 1129              	.L44:
 1130              	.LBB254:
  63:Delay.cpp     ****         {
  64:Delay.cpp     ****             delayHeads[i].feedback = this->feedback;
 1131              		.loc 4 64 13 is_stmt 1 view .LVU290
 1132              		.loc 4 64 44 is_stmt 0 view .LVU291
 1133 001e AB68     		ldr	r3, [r5, #8]	@ float
  65:Delay.cpp     ****             delayHeads[i].modulation = this->modulation;
  66:Delay.cpp     ****             //The (i+0.25-i*0.75) just sets the delay intervals to (1/16 note, 1/8 note, dotted 1/8
  67:Delay.cpp     ****             delayHeads[i].delayTarget = ((i+0.25-i*0.75)* (48000*(60/bpm)));
 1134              		.loc 4 67 44 view .LVU292
 1135 0020 07EE906A 		vmov	s15, r6	@ int
 1136              		.loc 4 67 69 view .LVU293
 1137 0024 DFED4F2A 		vldr.32	s5, .L54+4
 1138              		.loc 4 67 44 view .LVU294
 1139 0028 B5EE006B 		vmov.f64	d6, #2.5e-1
  64:Delay.cpp     ****             delayHeads[i].modulation = this->modulation;
 1140              		.loc 4 64 36 view .LVU295
 1141 002c 2361     		str	r3, [r4, #16]	@ float
  65:Delay.cpp     ****             delayHeads[i].modulation = this->modulation;
 1142              		.loc 4 65 13 is_stmt 1 view .LVU296
 1143              		.loc 4 67 44 is_stmt 0 view .LVU297
 1144 002e B8EEE75B 		vcvt.f64.s32	d5, s15
  65:Delay.cpp     ****             delayHeads[i].modulation = this->modulation;
 1145              		.loc 4 65 46 view .LVU298
 1146 0032 D5ED034A 		vldr.32	s9, [r5, #12]
 1147              		.loc 4 67 49 view .LVU299
 1148 0036 B6EE083B 		vmov.f64	d3, #7.5e-1
 1149              		.loc 4 67 65 view .LVU300
 1150 003a 9FED4B7A 		vldr.32	s14, .L54+8
  65:Delay.cpp     ****             delayHeads[i].modulation = this->modulation;
 1151              		.loc 4 65 38 view .LVU301
 1152 003e C4ED054A 		vstr.32	s9, [r4, #20]
 1153              		.loc 4 67 13 is_stmt 1 view .LVU302
 1154              		.loc 4 67 44 is_stmt 0 view .LVU303
 1155 0042 35EE066B 		vadd.f64	d6, d5, d6
 1156              		.loc 4 67 69 view .LVU304
 1157 0046 95ED014A 		vldr.32	s8, [r5, #4]
  68:Delay.cpp     ****             if(delayHeadOn[i])
 1158              		.loc 4 68 13 view .LVU305
 1159 004a 1BF8013F 		ldrb	r3, [fp, #1]!	@ zero_extendqisi2
  67:Delay.cpp     ****             if(delayHeadOn[i])
 1160              		.loc 4 67 69 view .LVU306
 1161 004e C2EE847A 		vdiv.f32	s15, s5, s8
  67:Delay.cpp     ****             if(delayHeadOn[i])
 1162              		.loc 4 67 49 view .LVU307
 1163 0052 A5EE436B 		vfms.f64	d6, d5, d3
  67:Delay.cpp     ****             if(delayHeadOn[i])
 1164              		.loc 4 67 65 view .LVU308
 1165 0056 27EE877A 		vmul.f32	s14, s15, s14
 1166 005a B7EEC77A 		vcvt.f64.f32	d7, s14
  67:Delay.cpp     ****             if(delayHeadOn[i])
 1167              		.loc 4 67 57 view .LVU309
 1168 005e 27EE067B 		vmul.f64	d7, d7, d6
 1169 0062 B7EEC77B 		vcvt.f32.f64	s14, d7
  67:Delay.cpp     ****             if(delayHeadOn[i])
ARM GAS  /var/folders/fs/ht5wlc7s7b56r9p0ngl7ssgc0000gn/T//ccssYOSC.s 			page 33


 1170              		.loc 4 67 39 view .LVU310
 1171 0066 84ED037A 		vstr.32	s14, [r4, #12]
 1172              		.loc 4 68 13 is_stmt 1 view .LVU311
 1173 006a 53B9     		cbnz	r3, .L53
 1174              	.L42:
  62:Delay.cpp     ****         {
 1175              		.loc 4 62 9 discriminator 2 view .LVU312
 1176 006c 0136     		adds	r6, r6, #1
 1177              	.LVL55:
  62:Delay.cpp     ****         {
 1178              		.loc 4 62 27 discriminator 2 view .LVU313
 1179 006e 1C34     		adds	r4, r4, #28
 1180 0070 042E     		cmp	r6, #4
 1181 0072 D4D1     		bne	.L44
  62:Delay.cpp     ****         {
 1182              		.loc 4 62 27 is_stmt 0 discriminator 2 view .LVU314
 1183              	.LBE254:
  69:Delay.cpp     ****             {
  70:Delay.cpp     ****                 allDelaySignals += delayHeads[i].process(in);
  71:Delay.cpp     ****                 if(i == 1 || i == 3)
  72:Delay.cpp     ****                     delayHeads[i].delay->speedUp(true);
  73:Delay.cpp     ****                 if(proccessReverse)
  74:Delay.cpp     ****                     allDelaySignals += delayHeads[i].processReverse(in);
  75:Delay.cpp     ****             }
  76:Delay.cpp     ****                 
  77:Delay.cpp     ****         }
  78:Delay.cpp     **** 
  79:Delay.cpp     ****         return allDelaySignals;
 1184              		.loc 4 79 9 is_stmt 1 view .LVU315
  80:Delay.cpp     ****     //}
  81:Delay.cpp     **** }
 1185              		.loc 4 81 1 is_stmt 0 view .LVU316
 1186 0074 B0EE480A 		vmov.f32	s0, s16
 1187 0078 03B0     		add	sp, sp, #12
 1188              		.cfi_remember_state
 1189              		.cfi_def_cfa_offset 44
 1190              		@ sp needed
 1191 007a BDEC028B 		vldm	sp!, {d8}
 1192              		.cfi_restore 80
 1193              		.cfi_restore 81
 1194              		.cfi_def_cfa_offset 36
 1195              	.LVL56:
 1196              		.loc 4 81 1 view .LVU317
 1197 007e BDE8F08F 		pop	{r4, r5, r6, r7, r8, r9, r10, fp, pc}
 1198              	.LVL57:
 1199              	.L53:
 1200              		.cfi_restore_state
 1201              	.LBB255:
  70:Delay.cpp     ****                 if(i == 1 || i == 3)
 1202              		.loc 4 70 17 is_stmt 1 view .LVU318
 1203              	.LBB189:
 1204              	.LBI189:
  27:Delay.h       ****             {
 1205              		.loc 1 27 19 view .LVU319
 1206              	.LBB190:
  30:Delay.h       **** 
 1207              		.loc 1 30 17 view .LVU320
ARM GAS  /var/folders/fs/ht5wlc7s7b56r9p0ngl7ssgc0000gn/T//ccssYOSC.s 			page 34


  33:Delay.h       ****                 // Set delay time
 1208              		.loc 1 33 17 view .LVU321
 1209              	.LBB191:
 1210              	.LBI191:
 135:../../DaisySP//Source/Utility/dsp.h **** {
 1211              		.loc 2 135 13 view .LVU322
 1212              	.LBB192:
 1213              		.loc 2 137 5 view .LVU323
 1214              	.LBE192:
 1215              	.LBE191:
 1216              	.LBE190:
 1217              	.LBE189:
  72:Delay.cpp     ****                 if(proccessReverse)
 1218              		.loc 4 72 21 view .LVU324
 1219              	.LBB246:
 1220              	.LBI246:
  38:../../DaisySP//Source/Utility/delayline.h ****     }
  39:../../DaisySP//Source/Utility/delayline.h **** 
  40:../../DaisySP//Source/Utility/delayline.h ****     /** sets the delay time in samples
  41:../../DaisySP//Source/Utility/delayline.h ****         If a float is passed in, a fractional component will be calculated for interpolating the de
  42:../../DaisySP//Source/Utility/delayline.h ****     */
  43:../../DaisySP//Source/Utility/delayline.h ****     inline void SetDelay(size_t delay)
  44:../../DaisySP//Source/Utility/delayline.h ****     {
  45:../../DaisySP//Source/Utility/delayline.h ****         frac_  = 0.0f;
  46:../../DaisySP//Source/Utility/delayline.h ****         delay_ = delay < max_size ? delay : max_size - 1;
  47:../../DaisySP//Source/Utility/delayline.h ****         
  48:../../DaisySP//Source/Utility/delayline.h ****     }
  49:../../DaisySP//Source/Utility/delayline.h **** 
  50:../../DaisySP//Source/Utility/delayline.h ****     /** sets the delay time in samples
  51:../../DaisySP//Source/Utility/delayline.h ****         If a float is passed in, a fractional component will be calculated for interpolating the de
  52:../../DaisySP//Source/Utility/delayline.h ****     */
  53:../../DaisySP//Source/Utility/delayline.h ****     inline void SetDelay(float delay)
  54:../../DaisySP//Source/Utility/delayline.h ****     {
  55:../../DaisySP//Source/Utility/delayline.h ****         int32_t int_delay = static_cast<int32_t>(delay/speed);
  56:../../DaisySP//Source/Utility/delayline.h ****         frac_             = delay/speed - static_cast<float>(int_delay);
  57:../../DaisySP//Source/Utility/delayline.h ****         delay_ = static_cast<size_t>(int_delay) < max_size ? int_delay
  58:../../DaisySP//Source/Utility/delayline.h ****                                                            : max_size - 1;
  59:../../DaisySP//Source/Utility/delayline.h ****                                                 
  60:../../DaisySP//Source/Utility/delayline.h ****     }
  61:../../DaisySP//Source/Utility/delayline.h **** 
  62:../../DaisySP//Source/Utility/delayline.h ****     /** writes the sample of type T to the delay line, and advances the write ptr
  63:../../DaisySP//Source/Utility/delayline.h ****     */
  64:../../DaisySP//Source/Utility/delayline.h ****     inline void Write(const T sample)
  65:../../DaisySP//Source/Utility/delayline.h ****     {
  66:../../DaisySP//Source/Utility/delayline.h ****         line_[write_ptr_] = sample;
  67:../../DaisySP//Source/Utility/delayline.h ****         write_ptr_        = (write_ptr_ - 1 + max_size) % max_size;
  68:../../DaisySP//Source/Utility/delayline.h ****     }
  69:../../DaisySP//Source/Utility/delayline.h **** 
  70:../../DaisySP//Source/Utility/delayline.h ****     /** returns the next sample of type T in the delay line, interpolated if necessary.
  71:../../DaisySP//Source/Utility/delayline.h ****     */
  72:../../DaisySP//Source/Utility/delayline.h ****     inline const T Read() const
  73:../../DaisySP//Source/Utility/delayline.h ****     {
  74:../../DaisySP//Source/Utility/delayline.h ****         T a = line_[(speed*(write_ptr_ + delay_)) % max_size];
  75:../../DaisySP//Source/Utility/delayline.h ****         T b = line_[(speed*(write_ptr_ + delay_ + 1)) % max_size];
  76:../../DaisySP//Source/Utility/delayline.h ****         return a + (b - a) * frac_;
  77:../../DaisySP//Source/Utility/delayline.h ****     }
  78:../../DaisySP//Source/Utility/delayline.h **** 
ARM GAS  /var/folders/fs/ht5wlc7s7b56r9p0ngl7ssgc0000gn/T//ccssYOSC.s 			page 35


  79:../../DaisySP//Source/Utility/delayline.h ****     /** Read from a set location */
  80:../../DaisySP//Source/Utility/delayline.h ****     inline const T Read(float delay) const
  81:../../DaisySP//Source/Utility/delayline.h ****     {
  82:../../DaisySP//Source/Utility/delayline.h ****         int32_t delay_integral   = static_cast<int32_t>(delay);
  83:../../DaisySP//Source/Utility/delayline.h ****         float   delay_fractional = delay - static_cast<float>(delay_integral);
  84:../../DaisySP//Source/Utility/delayline.h ****         const T a = line_[(write_ptr_ + delay_integral) % max_size];
  85:../../DaisySP//Source/Utility/delayline.h ****         const T b = line_[(write_ptr_ + delay_integral + 1) % max_size];
  86:../../DaisySP//Source/Utility/delayline.h ****         return a + (b - a) * delay_fractional;
  87:../../DaisySP//Source/Utility/delayline.h ****     }
  88:../../DaisySP//Source/Utility/delayline.h **** 
  89:../../DaisySP//Source/Utility/delayline.h ****     inline const T ReadHermite(float delay) const
  90:../../DaisySP//Source/Utility/delayline.h ****     {
  91:../../DaisySP//Source/Utility/delayline.h ****         int32_t delay_integral   = static_cast<int32_t>(delay);
  92:../../DaisySP//Source/Utility/delayline.h ****         float   delay_fractional = delay - static_cast<float>(delay_integral);
  93:../../DaisySP//Source/Utility/delayline.h **** 
  94:../../DaisySP//Source/Utility/delayline.h ****         int32_t     t     = (write_ptr_ + delay_integral + max_size);
  95:../../DaisySP//Source/Utility/delayline.h ****         const T     xm1   = line_[(t - 1) % max_size];
  96:../../DaisySP//Source/Utility/delayline.h ****         const T     x0    = line_[(t) % max_size];
  97:../../DaisySP//Source/Utility/delayline.h ****         const T     x1    = line_[(t + 1) % max_size];
  98:../../DaisySP//Source/Utility/delayline.h ****         const T     x2    = line_[(t + 2) % max_size];
  99:../../DaisySP//Source/Utility/delayline.h ****         const float c     = (x1 - xm1) * 0.5f;
 100:../../DaisySP//Source/Utility/delayline.h ****         const float v     = x0 - x1;
 101:../../DaisySP//Source/Utility/delayline.h ****         const float w     = c + v;
 102:../../DaisySP//Source/Utility/delayline.h ****         const float a     = w + v + (x2 - x0) * 0.5f;
 103:../../DaisySP//Source/Utility/delayline.h ****         const float b_neg = w + a;
 104:../../DaisySP//Source/Utility/delayline.h ****         const float f     = delay_fractional;
 105:../../DaisySP//Source/Utility/delayline.h ****         return (((a * f) - b_neg) * f + c) * f + x0;
 106:../../DaisySP//Source/Utility/delayline.h ****     }
 107:../../DaisySP//Source/Utility/delayline.h **** 
 108:../../DaisySP//Source/Utility/delayline.h ****     inline const T Allpass(const T sample, size_t delay, const T coefficient)
 109:../../DaisySP//Source/Utility/delayline.h ****     {
 110:../../DaisySP//Source/Utility/delayline.h ****         T read  = line_[(write_ptr_ + delay) % max_size];
 111:../../DaisySP//Source/Utility/delayline.h ****         T write = sample + coefficient * read;
 112:../../DaisySP//Source/Utility/delayline.h ****         Write(write);
 113:../../DaisySP//Source/Utility/delayline.h ****         return -write * coefficient + read;
 114:../../DaisySP//Source/Utility/delayline.h ****     }
 115:../../DaisySP//Source/Utility/delayline.h ****     void speedUp(bool speedUp)
 1221              		.loc 5 115 10 view .LVU325
 1222              		.loc 5 115 10 is_stmt 0 view .LVU326
 1223              	.LBE246:
  73:Delay.cpp     ****                     allDelaySignals += delayHeads[i].processReverse(in);
 1224              		.loc 4 73 17 is_stmt 1 view .LVU327
 1225              	.LBB248:
 1226              	.LBB242:
 1227              	.LBB197:
 1228              	.LBB193:
 1229              		.loc 2 137 9 is_stmt 0 view .LVU328
 1230 0082 D4ED027A 		vldr.32	s15, [r4, #8]
 1231              	.LBE193:
 1232              	.LBE197:
 1233              	.LBE242:
 1234              	.LBE248:
  71:Delay.cpp     ****                     delayHeads[i].delay->speedUp(true);
 1235              		.loc 4 71 22 view .LVU329
 1236 0086 26F0020E 		bic	lr, r6, #2
 1237              	.LBB249:
 1238              	.LBB243:
ARM GAS  /var/folders/fs/ht5wlc7s7b56r9p0ngl7ssgc0000gn/T//ccssYOSC.s 			page 36


 1239              	.LBB198:
 1240              	.LBB194:
 1241              		.loc 2 137 9 view .LVU330
 1242 008a DFED386A 		vldr.32	s13, .L54+12
 1243              		.loc 2 137 24 view .LVU331
 1244 008e 37EE677A 		vsub.f32	s14, s14, s15
 1245              	.LVL58:
 1246              		.loc 2 137 24 view .LVU332
 1247              	.LBE194:
 1248              	.LBE198:
  35:Delay.h       ****                  
 1249              		.loc 1 35 17 view .LVU333
 1250 0092 2268     		ldr	r2, [r4]
 1251              	.LBB199:
 1252              	.LBB200:
  57:../../DaisySP//Source/Utility/delayline.h ****                                                            : max_size - 1;
 1253              		.loc 5 57 60 view .LVU334
 1254 0094 3649     		ldr	r1, .L54+16
  55:../../DaisySP//Source/Utility/delayline.h ****         frac_             = delay/speed - static_cast<float>(int_delay);
 1255              		.loc 5 55 56 view .LVU335
 1256 0096 02F5BA2A 		add	r10, r2, #380928
 1257              	.LBE200:
 1258              	.LBE199:
 1259              	.LBB205:
 1260              	.LBB206:
  74:../../DaisySP//Source/Utility/delayline.h ****         T b = line_[(speed*(write_ptr_ + delay_ + 1)) % max_size];
 1261              		.loc 5 74 29 view .LVU336
 1262 009a 5068     		ldr	r0, [r2, #4]
 1263              	.LBE206:
 1264              	.LBE205:
 1265              	.LBB214:
 1266              	.LBB195:
 1267              		.loc 2 137 9 view .LVU337
 1268 009c E7EE267A 		vfma.f32	s15, s14, s13
 1269              	.LBE195:
 1270              	.LBE214:
  40:Delay.h       ****                 
 1271              		.loc 1 40 29 view .LVU338
 1272 00a0 94ED046A 		vldr.32	s12, [r4, #16]
 1273              	.LBB215:
 1274              	.LBB201:
  55:../../DaisySP//Source/Utility/delayline.h ****         frac_             = delay/speed - static_cast<float>(int_delay);
 1275              		.loc 5 55 56 view .LVU339
 1276 00a4 DAF80C7C 		ldr	r7, [r10, #3084]
 1277              	.LBE201:
 1278              	.LBE215:
 1279              	.LBB216:
 1280              	.LBB207:
  74:../../DaisySP//Source/Utility/delayline.h ****         T b = line_[(speed*(write_ptr_ + delay_ + 1)) % max_size];
 1281              		.loc 5 74 51 view .LVU340
 1282 00a8 DFF8CC80 		ldr	r8, .L54+24
 1283              	.LBE207:
 1284              	.LBE216:
 1285              	.LBB217:
 1286              	.LBB196:
 1287              		.loc 2 137 9 view .LVU341
 1288 00ac C4ED027A 		vstr.32	s15, [r4, #8]
ARM GAS  /var/folders/fs/ht5wlc7s7b56r9p0ngl7ssgc0000gn/T//ccssYOSC.s 			page 37


 1289              	.LBE196:
 1290              	.LBE217:
  35:Delay.h       ****                  
 1291              		.loc 1 35 32 view .LVU342
 1292 00b0 77EEA44A 		vadd.f32	s9, s15, s9
 1293              	.LVL59:
  35:Delay.h       ****                  
 1294              		.loc 1 35 17 is_stmt 1 view .LVU343
 1295              	.LBB218:
 1296              	.LBI199:
  53:../../DaisySP//Source/Utility/delayline.h ****     {
 1297              		.loc 5 53 17 view .LVU344
 1298              	.LBB202:
  55:../../DaisySP//Source/Utility/delayline.h ****         frac_             = delay/speed - static_cast<float>(int_delay);
 1299              		.loc 5 55 55 is_stmt 0 view .LVU345
 1300 00b4 07EE907A 		vmov	s15, r7	@ int
 1301              	.LVL60:
  55:../../DaisySP//Source/Utility/delayline.h ****         frac_             = delay/speed - static_cast<float>(int_delay);
 1302              		.loc 5 55 55 view .LVU346
 1303 00b8 F8EE677A 		vcvt.f32.u32	s15, s15
 1304 00bc 84EEA77A 		vdiv.f32	s14, s9, s15
  55:../../DaisySP//Source/Utility/delayline.h ****         frac_             = delay/speed - static_cast<float>(int_delay);
 1305              		.loc 5 55 17 view .LVU347
 1306 00c0 FDEEC77A 		vcvt.s32.f32	s15, s14
 1307              	.LVL61:
  57:../../DaisySP//Source/Utility/delayline.h ****                                                            : max_size - 1;
 1308              		.loc 5 57 60 view .LVU348
 1309 00c4 17EE903A 		vmov	r3, s15	@ int
  56:../../DaisySP//Source/Utility/delayline.h ****         delay_ = static_cast<size_t>(int_delay) < max_size ? int_delay
 1310              		.loc 5 56 43 view .LVU349
 1311 00c8 F8EEE76A 		vcvt.f32.s32	s13, s15
  57:../../DaisySP//Source/Utility/delayline.h ****                                                            : max_size - 1;
 1312              		.loc 5 57 60 view .LVU350
 1313 00cc 8B42     		cmp	r3, r1
  56:../../DaisySP//Source/Utility/delayline.h ****         delay_ = static_cast<size_t>(int_delay) < max_size ? int_delay
 1314              		.loc 5 56 41 view .LVU351
 1315 00ce 37EE667A 		vsub.f32	s14, s14, s13
  57:../../DaisySP//Source/Utility/delayline.h ****                                                            : max_size - 1;
 1316              		.loc 5 57 60 view .LVU352
 1317 00d2 28BF     		it	cs
 1318 00d4 0B46     		movcs	r3, r1
 1319              	.LBE202:
 1320              	.LBE218:
 1321              	.LBB219:
 1322              	.LBB220:
  67:../../DaisySP//Source/Utility/delayline.h ****     }
 1323              		.loc 5 67 45 view .LVU353
 1324 00d6 0144     		add	r1, r1, r0
 1325              	.LBE220:
 1326              	.LBE219:
 1327              	.LBE243:
 1328              	.LBE249:
  71:Delay.cpp     ****                     delayHeads[i].delay->speedUp(true);
 1329              		.loc 4 71 17 view .LVU354
 1330 00d8 BEF1010F 		cmp	lr, #1
 1331              	.LBB250:
 1332              	.LBB244:
ARM GAS  /var/folders/fs/ht5wlc7s7b56r9p0ngl7ssgc0000gn/T//ccssYOSC.s 			page 38


 1333              	.LBB227:
 1334              	.LBB203:
  57:../../DaisySP//Source/Utility/delayline.h ****                                                            : max_size - 1;
 1335              		.loc 5 57 16 view .LVU355
 1336 00dc 9360     		str	r3, [r2, #8]
 1337              	.LVL62:
  57:../../DaisySP//Source/Utility/delayline.h ****                                                            : max_size - 1;
 1338              		.loc 5 57 16 view .LVU356
 1339              	.LBE203:
 1340              	.LBE227:
  37:Delay.h       **** 
 1341              		.loc 1 37 17 is_stmt 1 view .LVU357
 1342              	.LBB228:
 1343              	.LBI205:
  72:../../DaisySP//Source/Utility/delayline.h ****     {
 1344              		.loc 5 72 20 view .LVU358
 1345              	.LBB208:
  74:../../DaisySP//Source/Utility/delayline.h ****         T b = line_[(speed*(write_ptr_ + delay_ + 1)) % max_size];
 1346              		.loc 5 74 40 is_stmt 0 view .LVU359
 1347 00de 0344     		add	r3, r3, r0
 1348              	.LBE208:
 1349              	.LBE228:
 1350              	.LBB229:
 1351              	.LBB221:
  66:../../DaisySP//Source/Utility/delayline.h ****         write_ptr_        = (write_ptr_ - 1 + max_size) % max_size;
 1352              		.loc 5 66 27 view .LVU360
 1353 00e0 02EB8000 		add	r0, r2, r0, lsl #2
 1354              	.LBE221:
 1355              	.LBE229:
 1356              	.LBB230:
 1357              	.LBB204:
  56:../../DaisySP//Source/Utility/delayline.h ****         delay_ = static_cast<size_t>(int_delay) < max_size ? int_delay
 1358              		.loc 5 56 27 view .LVU361
 1359 00e4 82ED007A 		vstr.32	s14, [r2]
 1360              	.LBE204:
 1361              	.LBE230:
 1362              	.LBB231:
 1363              	.LBB209:
  74:../../DaisySP//Source/Utility/delayline.h ****         T b = line_[(speed*(write_ptr_ + delay_ + 1)) % max_size];
 1364              		.loc 5 74 27 view .LVU362
 1365 00e8 07FB03F3 		mul	r3, r7, r3
 1366              	.LBE209:
 1367              	.LBE231:
 1368              	.LBB232:
 1369              	.LBB222:
  66:../../DaisySP//Source/Utility/delayline.h ****         write_ptr_        = (write_ptr_ - 1 + max_size) % max_size;
 1370              		.loc 5 66 27 view .LVU363
 1371 00ec 0190     		str	r0, [sp, #4]
 1372              	.LBE222:
 1373              	.LBE232:
 1374              	.LBB233:
 1375              	.LBB210:
  74:../../DaisySP//Source/Utility/delayline.h ****         T b = line_[(speed*(write_ptr_ + delay_ + 1)) % max_size];
 1376              		.loc 5 74 51 view .LVU364
 1377 00ee 2148     		ldr	r0, .L54+20
  75:../../DaisySP//Source/Utility/delayline.h ****         return a + (b - a) * frac_;
 1378              		.loc 5 75 27 view .LVU365
ARM GAS  /var/folders/fs/ht5wlc7s7b56r9p0ngl7ssgc0000gn/T//ccssYOSC.s 			page 39


 1379 00f0 1F44     		add	r7, r7, r3
  74:../../DaisySP//Source/Utility/delayline.h ****         T b = line_[(speed*(write_ptr_ + delay_ + 1)) % max_size];
 1380              		.loc 5 74 51 view .LVU366
 1381 00f2 A0FB03C9 		umull	ip, r9, r0, r3
 1382 00f6 4FEAD929 		lsr	r9, r9, #11
 1383 00fa 08FB1933 		mls	r3, r8, r9, r3
  74:../../DaisySP//Source/Utility/delayline.h ****         T b = line_[(speed*(write_ptr_ + delay_ + 1)) % max_size];
 1384              		.loc 5 74 11 view .LVU367
 1385 00fe 02EB8303 		add	r3, r2, r3, lsl #2
 1386 0102 D3ED037A 		vldr.32	s15, [r3, #12]
 1387              	.LVL63:
  75:../../DaisySP//Source/Utility/delayline.h ****         return a + (b - a) * frac_;
 1388              		.loc 5 75 55 view .LVU368
 1389 0106 A0FB07C3 		umull	ip, r3, r0, r7
 1390              	.LBE210:
 1391              	.LBE233:
 1392              	.LBB234:
 1393              	.LBB223:
  67:../../DaisySP//Source/Utility/delayline.h ****     }
 1394              		.loc 5 67 57 view .LVU369
 1395 010a A0FB01C0 		umull	ip, r0, r0, r1
 1396              	.LBE223:
 1397              	.LBE234:
 1398              	.LBB235:
 1399              	.LBB211:
  75:../../DaisySP//Source/Utility/delayline.h ****         return a + (b - a) * frac_;
 1400              		.loc 5 75 55 view .LVU370
 1401 010e 4FEAD323 		lsr	r3, r3, #11
 1402              	.LBE211:
 1403              	.LBE235:
 1404              	.LBB236:
 1405              	.LBB224:
  67:../../DaisySP//Source/Utility/delayline.h ****     }
 1406              		.loc 5 67 57 view .LVU371
 1407 0112 4FEAD020 		lsr	r0, r0, #11
 1408              	.LBE224:
 1409              	.LBE236:
 1410              	.LBB237:
 1411              	.LBB212:
  75:../../DaisySP//Source/Utility/delayline.h ****         return a + (b - a) * frac_;
 1412              		.loc 5 75 55 view .LVU372
 1413 0116 08FB1377 		mls	r7, r8, r3, r7
 1414              	.LBE212:
 1415              	.LBE237:
 1416              	.LBB238:
 1417              	.LBB225:
  66:../../DaisySP//Source/Utility/delayline.h ****         write_ptr_        = (write_ptr_ - 1 + max_size) % max_size;
 1418              		.loc 5 66 27 view .LVU373
 1419 011a 019B     		ldr	r3, [sp, #4]
  67:../../DaisySP//Source/Utility/delayline.h ****     }
 1420              		.loc 5 67 57 view .LVU374
 1421 011c 08FB1011 		mls	r1, r8, r0, r1
 1422              	.LBE225:
 1423              	.LBE238:
 1424              	.LBB239:
 1425              	.LBB213:
  75:../../DaisySP//Source/Utility/delayline.h ****         return a + (b - a) * frac_;
ARM GAS  /var/folders/fs/ht5wlc7s7b56r9p0ngl7ssgc0000gn/T//ccssYOSC.s 			page 40


 1426              		.loc 5 75 11 view .LVU375
 1427 0120 02EB8707 		add	r7, r2, r7, lsl #2
  76:../../DaisySP//Source/Utility/delayline.h ****     }
 1428              		.loc 5 76 23 view .LVU376
 1429 0124 D7ED036A 		vldr.32	s13, [r7, #12]
 1430 0128 76EEE76A 		vsub.f32	s13, s13, s15
  76:../../DaisySP//Source/Utility/delayline.h ****     }
 1431              		.loc 5 76 30 view .LVU377
 1432 012c E7EE267A 		vfma.f32	s15, s14, s13
 1433              	.LVL64:
  76:../../DaisySP//Source/Utility/delayline.h ****     }
 1434              		.loc 5 76 30 view .LVU378
 1435              	.LBE213:
 1436              	.LBE239:
  40:Delay.h       ****                 
 1437              		.loc 1 40 17 is_stmt 1 view .LVU379
  40:Delay.h       ****                 
 1438              		.loc 1 40 29 is_stmt 0 view .LVU380
 1439 0130 B0EE687A 		vmov.f32	s14, s17
 1440 0134 A6EE277A 		vfma.f32	s14, s12, s15
 1441              	.LVL65:
 1442              	.LBB240:
 1443              	.LBI219:
  64:../../DaisySP//Source/Utility/delayline.h ****     {
 1444              		.loc 5 64 17 is_stmt 1 view .LVU381
 1445              	.LBE240:
 1446              	.LBE244:
 1447              	.LBE250:
  70:Delay.cpp     ****                 if(i == 1 || i == 3)
 1448              		.loc 4 70 33 is_stmt 0 view .LVU382
 1449 0138 38EE278A 		vadd.f32	s16, s16, s15
 1450              	.LVL66:
 1451              	.LBB251:
 1452              	.LBB245:
 1453              	.LBB241:
 1454              	.LBB226:
  66:../../DaisySP//Source/Utility/delayline.h ****         write_ptr_        = (write_ptr_ - 1 + max_size) % max_size;
 1455              		.loc 5 66 27 view .LVU383
 1456 013c 83ED037A 		vstr.32	s14, [r3, #12]
  67:../../DaisySP//Source/Utility/delayline.h ****     }
 1457              		.loc 5 67 27 view .LVU384
 1458 0140 5160     		str	r1, [r2, #4]
 1459              	.LVL67:
  67:../../DaisySP//Source/Utility/delayline.h ****     }
 1460              		.loc 5 67 27 view .LVU385
 1461              	.LBE226:
 1462              	.LBE241:
  42:Delay.h       ****             }
 1463              		.loc 1 42 17 is_stmt 1 view .LVU386
  42:Delay.h       ****             }
 1464              		.loc 1 42 17 is_stmt 0 view .LVU387
 1465              	.LBE245:
 1466              	.LBE251:
  71:Delay.cpp     ****                     delayHeads[i].delay->speedUp(true);
 1467              		.loc 4 71 17 is_stmt 1 view .LVU388
 1468 0142 02D1     		bne	.L43
 1469              	.LBB252:
ARM GAS  /var/folders/fs/ht5wlc7s7b56r9p0ngl7ssgc0000gn/T//ccssYOSC.s 			page 41


 1470              	.LBB247:
 116:../../DaisySP//Source/Utility/delayline.h ****     {
 117:../../DaisySP//Source/Utility/delayline.h ****         if(speedUp)
 118:../../DaisySP//Source/Utility/delayline.h ****             speed = 2;
 1471              		.loc 5 118 19 is_stmt 0 view .LVU389
 1472 0144 0223     		movs	r3, #2
 1473 0146 CAF80C3C 		str	r3, [r10, #3084]
 1474              	.L43:
 1475              	.LBE247:
 1476              	.LBE252:
  73:Delay.cpp     ****                     allDelaySignals += delayHeads[i].processReverse(in);
 1477              		.loc 4 73 17 view .LVU390
 1478 014a 2B7C     		ldrb	r3, [r5, #16]	@ zero_extendqisi2
 1479 014c 002B     		cmp	r3, #0
 1480 014e 8DD0     		beq	.L42
  74:Delay.cpp     ****             }
 1481              		.loc 4 74 21 is_stmt 1 view .LVU391
  74:Delay.cpp     ****             }
 1482              		.loc 4 74 68 is_stmt 0 view .LVU392
 1483 0150 B0EE680A 		vmov.f32	s0, s17
 1484 0154 2046     		mov	r0, r4
 1485 0156 FFF7FEFF 		bl	_ZN5Delay9DelayHead14processReverseEf
 1486              	.LVL68:
  74:Delay.cpp     ****             }
 1487              		.loc 4 74 37 view .LVU393
 1488 015a 38EE008A 		vadd.f32	s16, s16, s0
 1489              	.LVL69:
  74:Delay.cpp     ****             }
 1490              		.loc 4 74 37 view .LVU394
 1491 015e 85E7     		b	.L42
 1492              	.L55:
 1493              		.align	2
 1494              	.L54:
 1495 0160 00000000 		.word	0
 1496 0164 00007042 		.word	1114636288
 1497 0168 00803B47 		.word	1195081728
 1498 016c 17B75139 		.word	961656599
 1499 0170 FF760100 		.word	95999
 1500 0174 F1197605 		.word	91625969
 1501 0178 00770100 		.word	96000
 1502              	.LBE255:
 1503              		.cfi_endproc
 1504              	.LFE4813:
 1506              		.section	.text._ZN5Delay10toggleHeadERKi,"ax",%progbits
 1507              		.align	1
 1508              		.p2align 2,,3
 1509              		.global	_ZN5Delay10toggleHeadERKi
 1510              		.syntax unified
 1511              		.thumb
 1512              		.thumb_func
 1514              	_ZN5Delay10toggleHeadERKi:
 1515              	.LVL70:
 1516              	.LFB4814:
  82:Delay.cpp     **** 
  83:Delay.cpp     **** void Delay::toggleHead(const int& headNum)
  84:Delay.cpp     **** {
 1517              		.loc 4 84 1 is_stmt 1 view -0
ARM GAS  /var/folders/fs/ht5wlc7s7b56r9p0ngl7ssgc0000gn/T//ccssYOSC.s 			page 42


 1518              		.cfi_startproc
 1519              		@ args = 0, pretend = 0, frame = 0
 1520              		@ frame_needed = 0, uses_anonymous_args = 0
 1521              		@ link register save eliminated.
  85:Delay.cpp     ****     if(headNum >= NUM_OF_DELAY_HEADS || headNum < 0)
 1522              		.loc 4 85 5 view .LVU396
 1523              		.loc 4 85 8 is_stmt 0 view .LVU397
 1524 0000 0B68     		ldr	r3, [r1]
 1525              		.loc 4 85 5 view .LVU398
 1526 0002 032B     		cmp	r3, #3
 1527 0004 03D8     		bhi	.L56
  86:Delay.cpp     ****         return;
  87:Delay.cpp     ****     else
  88:Delay.cpp     ****         delayHeadOn[headNum] = !delayHeadOn[headNum];
 1528              		.loc 4 88 9 is_stmt 1 view .LVU399
 1529              		.loc 4 88 32 is_stmt 0 view .LVU400
 1530 0006 C25C     		ldrb	r2, [r0, r3]	@ zero_extendqisi2
 1531 0008 82F00102 		eor	r2, r2, #1
 1532              		.loc 4 88 30 view .LVU401
 1533 000c C254     		strb	r2, [r0, r3]
 1534              	.L56:
  89:Delay.cpp     **** }
 1535              		.loc 4 89 1 view .LVU402
 1536 000e 7047     		bx	lr
 1537              		.cfi_endproc
 1538              	.LFE4814:
 1540              		.section	.text._ZN5Delay10enableHeadERKi,"ax",%progbits
 1541              		.align	1
 1542              		.p2align 2,,3
 1543              		.global	_ZN5Delay10enableHeadERKi
 1544              		.syntax unified
 1545              		.thumb
 1546              		.thumb_func
 1548              	_ZN5Delay10enableHeadERKi:
 1549              	.LVL71:
 1550              	.LFB4815:
  90:Delay.cpp     **** 
  91:Delay.cpp     **** void Delay::enableHead(const int& headNum)
  92:Delay.cpp     **** {
 1551              		.loc 4 92 1 is_stmt 1 view -0
 1552              		.cfi_startproc
 1553              		@ args = 0, pretend = 0, frame = 0
 1554              		@ frame_needed = 0, uses_anonymous_args = 0
 1555              		@ link register save eliminated.
  93:Delay.cpp     ****     if(headNum >= NUM_OF_DELAY_HEADS || headNum < 0)
 1556              		.loc 4 93 5 view .LVU404
 1557              		.loc 4 93 8 is_stmt 0 view .LVU405
 1558 0000 0B68     		ldr	r3, [r1]
 1559              		.loc 4 93 5 view .LVU406
 1560 0002 032B     		cmp	r3, #3
 1561 0004 01D8     		bhi	.L58
  94:Delay.cpp     ****         return;
  95:Delay.cpp     ****     else
  96:Delay.cpp     ****         delayHeadOn[headNum] = true;
 1562              		.loc 4 96 9 is_stmt 1 view .LVU407
 1563              		.loc 4 96 30 is_stmt 0 view .LVU408
 1564 0006 0122     		movs	r2, #1
ARM GAS  /var/folders/fs/ht5wlc7s7b56r9p0ngl7ssgc0000gn/T//ccssYOSC.s 			page 43


 1565 0008 C254     		strb	r2, [r0, r3]
 1566              	.L58:
  97:Delay.cpp     **** }
 1567              		.loc 4 97 1 view .LVU409
 1568 000a 7047     		bx	lr
 1569              		.cfi_endproc
 1570              	.LFE4815:
 1572              		.section	.text._ZN5Delay11disableHeadERKi,"ax",%progbits
 1573              		.align	1
 1574              		.p2align 2,,3
 1575              		.global	_ZN5Delay11disableHeadERKi
 1576              		.syntax unified
 1577              		.thumb
 1578              		.thumb_func
 1580              	_ZN5Delay11disableHeadERKi:
 1581              	.LVL72:
 1582              	.LFB4816:
  98:Delay.cpp     **** 
  99:Delay.cpp     **** void Delay::disableHead(const int& headNum)
 100:Delay.cpp     **** {
 1583              		.loc 4 100 1 is_stmt 1 view -0
 1584              		.cfi_startproc
 1585              		@ args = 0, pretend = 0, frame = 0
 1586              		@ frame_needed = 0, uses_anonymous_args = 0
 101:Delay.cpp     ****     if(headNum >= NUM_OF_DELAY_HEADS || headNum < 0)
 1587              		.loc 4 101 5 view .LVU411
 1588              		.loc 4 101 8 is_stmt 0 view .LVU412
 1589 0000 0A68     		ldr	r2, [r1]
 1590              		.loc 4 101 5 view .LVU413
 1591 0002 032A     		cmp	r2, #3
 1592 0004 00D9     		bls	.L66
 1593 0006 7047     		bx	lr
 1594              	.L66:
 102:Delay.cpp     ****         return;
 103:Delay.cpp     ****     else
 104:Delay.cpp     ****     {
 105:Delay.cpp     ****         delayHeadOn[headNum] = false;
 1595              		.loc 4 105 9 is_stmt 1 view .LVU414
 106:Delay.cpp     ****         delayHeads[headNum].feedback = 0;
 1596              		.loc 4 106 38 is_stmt 0 view .LVU415
 1597 0008 C2EBC203 		rsb	r3, r2, r2, lsl #3
 1598              	.LBB266:
 1599              	.LBB267:
 1600              	.LBB268:
 1601              	.LBB269:
 1602              		.loc 2 137 9 view .LVU416
 1603 000c 9FED2F6A 		vldr.32	s12, .L67
 1604              	.LBE269:
 1605              	.LBE268:
 1606              	.LBE267:
 1607              	.LBE266:
 1608              		.loc 4 106 38 view .LVU417
 1609 0010 DFED2F6A 		vldr.32	s13, .L67+4
 107:Delay.cpp     ****         delayHeads[headNum].process(0);
 1610              		.loc 4 107 36 view .LVU418
 1611 0014 00EB8301 		add	r1, r0, r3, lsl #2
 1612              	.LVL73:
ARM GAS  /var/folders/fs/ht5wlc7s7b56r9p0ngl7ssgc0000gn/T//ccssYOSC.s 			page 44


 1613              	.LBB323:
 1614              	.LBB317:
 1615              	.LBB274:
 1616              	.LBB270:
 1617              		.loc 2 137 9 view .LVU419
 1618 0018 D1ED077A 		vldr.32	s15, [r1, #28]
 1619              	.LBE270:
 1620              	.LBE274:
 1621              	.LBE317:
 1622              	.LBE323:
 106:Delay.cpp     ****         delayHeads[headNum].feedback = 0;
 1623              		.loc 4 106 38 view .LVU420
 1624 001c 0B46     		mov	r3, r1
 1625              	.LBB324:
 1626              	.LBB318:
 1627              	.LBB275:
 1628              	.LBB271:
 1629              		.loc 2 137 24 view .LVU421
 1630 001e 91ED087A 		vldr.32	s14, [r1, #32]
 1631 0022 37EE677A 		vsub.f32	s14, s14, s15
 1632              	.LBE271:
 1633              	.LBE275:
 1634              	.LBE318:
 1635              	.LBE324:
 100:Delay.cpp     ****     if(headNum >= NUM_OF_DELAY_HEADS || headNum < 0)
 1636              		.loc 4 100 1 view .LVU422
 1637 0026 70B5     		push	{r4, r5, r6, lr}
 1638              		.cfi_def_cfa_offset 16
 1639              		.cfi_offset 4, -16
 1640              		.cfi_offset 5, -12
 1641              		.cfi_offset 6, -8
 1642              		.cfi_offset 14, -4
 1643              	.LBB325:
 1644              	.LBB319:
 1645              	.LBB276:
 1646              	.LBB272:
 1647              		.loc 2 137 9 view .LVU423
 1648 0028 E7EE067A 		vfma.f32	s15, s14, s12
 1649              	.LBE272:
 1650              	.LBE276:
 1651              	.LBE319:
 1652              	.LBE325:
 105:Delay.cpp     ****         delayHeads[headNum].feedback = 0;
 1653              		.loc 4 105 30 view .LVU424
 1654 002c 0024     		movs	r4, #0
 1655              	.LBB326:
 1656              	.LBB320:
 1657              	.LBB277:
 1658              	.LBB278:
  74:../../DaisySP//Source/Utility/delayline.h ****         T b = line_[(speed*(write_ptr_ + delay_ + 1)) % max_size];
 1659              		.loc 5 74 51 view .LVU425
 1660 002e 294D     		ldr	r5, .L67+8
 1661              	.LBE278:
 1662              	.LBE277:
 1663              	.LBE320:
 1664              	.LBE326:
 105:Delay.cpp     ****         delayHeads[headNum].feedback = 0;
ARM GAS  /var/folders/fs/ht5wlc7s7b56r9p0ngl7ssgc0000gn/T//ccssYOSC.s 			page 45


 1665              		.loc 4 105 30 view .LVU426
 1666 0030 8454     		strb	r4, [r0, r2]
 106:Delay.cpp     ****         delayHeads[headNum].process(0);
 1667              		.loc 4 106 9 is_stmt 1 view .LVU427
 106:Delay.cpp     ****         delayHeads[headNum].process(0);
 1668              		.loc 4 106 38 is_stmt 0 view .LVU428
 1669 0032 C1ED096A 		vstr.32	s13, [r1, #36]
 1670              	.LBB327:
 1671              	.LBB321:
 1672              	.LBB285:
 1673              	.LBB286:
  57:../../DaisySP//Source/Utility/delayline.h ****                                                            : max_size - 1;
 1674              		.loc 5 57 60 view .LVU429
 1675 0036 2848     		ldr	r0, .L67+12
 1676              	.LVL74:
  57:../../DaisySP//Source/Utility/delayline.h ****                                                            : max_size - 1;
 1677              		.loc 5 57 60 view .LVU430
 1678              	.LBE286:
 1679              	.LBE285:
 1680              	.LBE321:
 1681              	.LBE327:
 1682              		.loc 4 107 9 is_stmt 1 view .LVU431
 1683              	.LBB328:
 1684              	.LBI266:
  27:Delay.h       ****             {
 1685              		.loc 1 27 19 view .LVU432
 1686              	.LBB322:
  30:Delay.h       **** 
 1687              		.loc 1 30 17 view .LVU433
  33:Delay.h       ****                 // Set delay time
 1688              		.loc 1 33 17 view .LVU434
 1689              	.LBB292:
 1690              	.LBI268:
 135:../../DaisySP//Source/Utility/dsp.h **** {
 1691              		.loc 2 135 13 view .LVU435
 1692              	.LBB273:
 1693              		.loc 2 137 5 view .LVU436
 1694              		.loc 2 137 9 is_stmt 0 view .LVU437
 1695 0038 C1ED077A 		vstr.32	s15, [r1, #28]
 1696              	.LVL75:
 1697              		.loc 2 137 9 view .LVU438
 1698              	.LBE273:
 1699              	.LBE292:
  35:Delay.h       ****                  
 1700              		.loc 1 35 17 is_stmt 1 view .LVU439
 1701 003c 4969     		ldr	r1, [r1, #20]
 1702              	.LVL76:
 1703              	.LBB293:
 1704              	.LBI285:
  53:../../DaisySP//Source/Utility/delayline.h ****     {
 1705              		.loc 5 53 17 view .LVU440
 1706              	.LBE293:
  35:Delay.h       ****                  
 1707              		.loc 1 35 32 is_stmt 0 view .LVU441
 1708 003e 93ED0A7A 		vldr.32	s14, [r3, #40]
 1709              	.LBB294:
 1710              	.LBB287:
ARM GAS  /var/folders/fs/ht5wlc7s7b56r9p0ngl7ssgc0000gn/T//ccssYOSC.s 			page 46


  55:../../DaisySP//Source/Utility/delayline.h ****         frac_             = delay/speed - static_cast<float>(int_delay);
 1711              		.loc 5 55 56 view .LVU442
 1712 0042 01F5BA23 		add	r3, r1, #380928
 1713              	.LBE287:
 1714              	.LBE294:
 1715              	.LBB295:
 1716              	.LBB279:
  74:../../DaisySP//Source/Utility/delayline.h ****         T b = line_[(speed*(write_ptr_ + delay_ + 1)) % max_size];
 1717              		.loc 5 74 29 view .LVU443
 1718 0046 4C68     		ldr	r4, [r1, #4]
 1719              	.LBE279:
 1720              	.LBE295:
  35:Delay.h       ****                  
 1721              		.loc 1 35 32 view .LVU444
 1722 0048 77EE877A 		vadd.f32	s15, s15, s14
 1723              	.LVL77:
 1724              	.LBB296:
 1725              	.LBB288:
  55:../../DaisySP//Source/Utility/delayline.h ****         frac_             = delay/speed - static_cast<float>(int_delay);
 1726              		.loc 5 55 56 view .LVU445
 1727 004c D3F80C2C 		ldr	r2, [r3, #3084]
 1728              	.LVL78:
  55:../../DaisySP//Source/Utility/delayline.h ****         frac_             = delay/speed - static_cast<float>(int_delay);
 1729              		.loc 5 55 56 view .LVU446
 1730              	.LBE288:
 1731              	.LBE296:
 1732              	.LBB297:
 1733              	.LBB298:
  66:../../DaisySP//Source/Utility/delayline.h ****         write_ptr_        = (write_ptr_ - 1 + max_size) % max_size;
 1734              		.loc 5 66 27 view .LVU447
 1735 0050 01EB840C 		add	ip, r1, r4, lsl #2
 1736              	.LBE298:
 1737              	.LBE297:
 1738              	.LBB304:
 1739              	.LBB289:
  55:../../DaisySP//Source/Utility/delayline.h ****         frac_             = delay/speed - static_cast<float>(int_delay);
 1740              		.loc 5 55 55 view .LVU448
 1741 0054 07EE102A 		vmov	s14, r2	@ int
 1742 0058 B8EE476A 		vcvt.f32.u32	s12, s14
 1743 005c 87EE867A 		vdiv.f32	s14, s15, s12
  55:../../DaisySP//Source/Utility/delayline.h ****         frac_             = delay/speed - static_cast<float>(int_delay);
 1744              		.loc 5 55 17 view .LVU449
 1745 0060 FDEEC77A 		vcvt.s32.f32	s15, s14
 1746              	.LVL79:
  57:../../DaisySP//Source/Utility/delayline.h ****                                                            : max_size - 1;
 1747              		.loc 5 57 60 view .LVU450
 1748 0064 17EE903A 		vmov	r3, s15	@ int
  56:../../DaisySP//Source/Utility/delayline.h ****         delay_ = static_cast<size_t>(int_delay) < max_size ? int_delay
 1749              		.loc 5 56 43 view .LVU451
 1750 0068 F8EEE77A 		vcvt.f32.s32	s15, s15
 1751              	.LVL80:
  57:../../DaisySP//Source/Utility/delayline.h ****                                                            : max_size - 1;
 1752              		.loc 5 57 60 view .LVU452
 1753 006c 8342     		cmp	r3, r0
  56:../../DaisySP//Source/Utility/delayline.h ****         delay_ = static_cast<size_t>(int_delay) < max_size ? int_delay
 1754              		.loc 5 56 41 view .LVU453
 1755 006e 77EE677A 		vsub.f32	s15, s14, s15
ARM GAS  /var/folders/fs/ht5wlc7s7b56r9p0ngl7ssgc0000gn/T//ccssYOSC.s 			page 47


  57:../../DaisySP//Source/Utility/delayline.h ****                                                            : max_size - 1;
 1756              		.loc 5 57 60 view .LVU454
 1757 0072 28BF     		it	cs
 1758 0074 0346     		movcs	r3, r0
 1759              	.LVL81:
  57:../../DaisySP//Source/Utility/delayline.h ****                                                            : max_size - 1;
 1760              		.loc 5 57 60 view .LVU455
 1761              	.LBE289:
 1762              	.LBE304:
 1763              	.LBB305:
 1764              	.LBB299:
  67:../../DaisySP//Source/Utility/delayline.h ****     }
 1765              		.loc 5 67 45 view .LVU456
 1766 0076 2044     		add	r0, r0, r4
 1767              	.LBE299:
 1768              	.LBE305:
 1769              	.LBB306:
 1770              	.LBB290:
  57:../../DaisySP//Source/Utility/delayline.h ****                                                            : max_size - 1;
 1771              		.loc 5 57 16 view .LVU457
 1772 0078 8B60     		str	r3, [r1, #8]
 1773              	.LVL82:
  57:../../DaisySP//Source/Utility/delayline.h ****                                                            : max_size - 1;
 1774              		.loc 5 57 16 view .LVU458
 1775              	.LBE290:
 1776              	.LBE306:
  37:Delay.h       **** 
 1777              		.loc 1 37 17 is_stmt 1 view .LVU459
 1778              	.LBB307:
 1779              	.LBI277:
  72:../../DaisySP//Source/Utility/delayline.h ****     {
 1780              		.loc 5 72 20 view .LVU460
 1781              	.LBB280:
  74:../../DaisySP//Source/Utility/delayline.h ****         T b = line_[(speed*(write_ptr_ + delay_ + 1)) % max_size];
 1782              		.loc 5 74 40 is_stmt 0 view .LVU461
 1783 007a 2344     		add	r3, r3, r4
  74:../../DaisySP//Source/Utility/delayline.h ****         T b = line_[(speed*(write_ptr_ + delay_ + 1)) % max_size];
 1784              		.loc 5 74 51 view .LVU462
 1785 007c 174C     		ldr	r4, .L67+16
  74:../../DaisySP//Source/Utility/delayline.h ****         T b = line_[(speed*(write_ptr_ + delay_ + 1)) % max_size];
 1786              		.loc 5 74 27 view .LVU463
 1787 007e 02FB03F3 		mul	r3, r2, r3
 1788              	.LBE280:
 1789              	.LBE307:
 1790              	.LBB308:
 1791              	.LBB291:
  56:../../DaisySP//Source/Utility/delayline.h ****         delay_ = static_cast<size_t>(int_delay) < max_size ? int_delay
 1792              		.loc 5 56 27 view .LVU464
 1793 0082 C1ED007A 		vstr.32	s15, [r1]
 1794              	.LBE291:
 1795              	.LBE308:
 1796              	.LBB309:
 1797              	.LBB281:
  74:../../DaisySP//Source/Utility/delayline.h ****         T b = line_[(speed*(write_ptr_ + delay_ + 1)) % max_size];
 1798              		.loc 5 74 51 view .LVU465
 1799 0086 A4FB036E 		umull	r6, lr, r4, r3
  75:../../DaisySP//Source/Utility/delayline.h ****         return a + (b - a) * frac_;
ARM GAS  /var/folders/fs/ht5wlc7s7b56r9p0ngl7ssgc0000gn/T//ccssYOSC.s 			page 48


 1800              		.loc 5 75 27 view .LVU466
 1801 008a 1A44     		add	r2, r2, r3
  74:../../DaisySP//Source/Utility/delayline.h ****         T b = line_[(speed*(write_ptr_ + delay_ + 1)) % max_size];
 1802              		.loc 5 74 51 view .LVU467
 1803 008c 4FEADE2E 		lsr	lr, lr, #11
 1804 0090 05FB1E33 		mls	r3, r5, lr, r3
  74:../../DaisySP//Source/Utility/delayline.h ****         T b = line_[(speed*(write_ptr_ + delay_ + 1)) % max_size];
 1805              		.loc 5 74 11 view .LVU468
 1806 0094 01EB8303 		add	r3, r1, r3, lsl #2
 1807 0098 93ED037A 		vldr.32	s14, [r3, #12]
 1808              	.LVL83:
  75:../../DaisySP//Source/Utility/delayline.h ****         return a + (b - a) * frac_;
 1809              		.loc 5 75 55 view .LVU469
 1810 009c A4FB0263 		umull	r6, r3, r4, r2
 1811              	.LBE281:
 1812              	.LBE309:
 1813              	.LBB310:
 1814              	.LBB300:
  67:../../DaisySP//Source/Utility/delayline.h ****     }
 1815              		.loc 5 67 57 view .LVU470
 1816 00a0 A4FB0064 		umull	r6, r4, r4, r0
 1817              	.LBE300:
 1818              	.LBE310:
 1819              	.LBB311:
 1820              	.LBB282:
  75:../../DaisySP//Source/Utility/delayline.h ****         return a + (b - a) * frac_;
 1821              		.loc 5 75 55 view .LVU471
 1822 00a4 DB0A     		lsrs	r3, r3, #11
 1823              	.LBE282:
 1824              	.LBE311:
 1825              	.LBB312:
 1826              	.LBB301:
  67:../../DaisySP//Source/Utility/delayline.h ****     }
 1827              		.loc 5 67 57 view .LVU472
 1828 00a6 E40A     		lsrs	r4, r4, #11
 1829              	.LBE301:
 1830              	.LBE312:
 1831              	.LBB313:
 1832              	.LBB283:
  75:../../DaisySP//Source/Utility/delayline.h ****         return a + (b - a) * frac_;
 1833              		.loc 5 75 55 view .LVU473
 1834 00a8 05FB1322 		mls	r2, r5, r3, r2
 1835              	.LBE283:
 1836              	.LBE313:
 1837              	.LBB314:
 1838              	.LBB302:
  67:../../DaisySP//Source/Utility/delayline.h ****     }
 1839              		.loc 5 67 57 view .LVU474
 1840 00ac 05FB1404 		mls	r4, r5, r4, r0
 1841              	.LBE302:
 1842              	.LBE314:
 1843              	.LBB315:
 1844              	.LBB284:
  75:../../DaisySP//Source/Utility/delayline.h ****         return a + (b - a) * frac_;
 1845              		.loc 5 75 11 view .LVU475
 1846 00b0 01EB8202 		add	r2, r1, r2, lsl #2
  76:../../DaisySP//Source/Utility/delayline.h ****     }
ARM GAS  /var/folders/fs/ht5wlc7s7b56r9p0ngl7ssgc0000gn/T//ccssYOSC.s 			page 49


 1847              		.loc 5 76 23 view .LVU476
 1848 00b4 92ED036A 		vldr.32	s12, [r2, #12]
 1849 00b8 36EE476A 		vsub.f32	s12, s12, s14
  76:../../DaisySP//Source/Utility/delayline.h ****     }
 1850              		.loc 5 76 30 view .LVU477
 1851 00bc A7EE867A 		vfma.f32	s14, s15, s12
 1852              	.LVL84:
  76:../../DaisySP//Source/Utility/delayline.h ****     }
 1853              		.loc 5 76 30 view .LVU478
 1854              	.LBE284:
 1855              	.LBE315:
  40:Delay.h       ****                 
 1856              		.loc 1 40 17 is_stmt 1 view .LVU479
  40:Delay.h       ****                 
 1857              		.loc 1 40 29 is_stmt 0 view .LVU480
 1858 00c0 E6EE876A 		vfma.f32	s13, s13, s14
 1859              	.LVL85:
 1860              	.LBB316:
 1861              	.LBI297:
  64:../../DaisySP//Source/Utility/delayline.h ****     {
 1862              		.loc 5 64 17 is_stmt 1 view .LVU481
 1863              	.LBB303:
  66:../../DaisySP//Source/Utility/delayline.h ****         write_ptr_        = (write_ptr_ - 1 + max_size) % max_size;
 1864              		.loc 5 66 27 is_stmt 0 view .LVU482
 1865 00c4 CCED036A 		vstr.32	s13, [ip, #12]
  67:../../DaisySP//Source/Utility/delayline.h ****     }
 1866              		.loc 5 67 27 view .LVU483
 1867 00c8 4C60     		str	r4, [r1, #4]
 1868              	.LVL86:
  67:../../DaisySP//Source/Utility/delayline.h ****     }
 1869              		.loc 5 67 27 view .LVU484
 1870              	.LBE303:
 1871              	.LBE316:
  42:Delay.h       ****             }
 1872              		.loc 1 42 17 is_stmt 1 view .LVU485
  42:Delay.h       ****             }
 1873              		.loc 1 42 17 is_stmt 0 view .LVU486
 1874              	.LBE322:
 1875              	.LBE328:
 108:Delay.cpp     ****     }
 109:Delay.cpp     **** }
 1876              		.loc 4 109 1 view .LVU487
 1877 00ca 70BD     		pop	{r4, r5, r6, pc}
 1878              	.L68:
 1879              		.align	2
 1880              	.L67:
 1881 00cc 17B75139 		.word	961656599
 1882 00d0 00000000 		.word	0
 1883 00d4 00770100 		.word	96000
 1884 00d8 FF760100 		.word	95999
 1885 00dc F1197605 		.word	91625969
 1886              		.cfi_endproc
 1887              	.LFE4816:
 1889              		.section	.text._ZN5Delay5clearEv,"ax",%progbits
 1890              		.align	1
 1891              		.p2align 2,,3
 1892              		.global	_ZN5Delay5clearEv
ARM GAS  /var/folders/fs/ht5wlc7s7b56r9p0ngl7ssgc0000gn/T//ccssYOSC.s 			page 50


 1893              		.syntax unified
 1894              		.thumb
 1895              		.thumb_func
 1897              	_ZN5Delay5clearEv:
 1898              	.LVL87:
 1899              	.LFB4817:
 110:Delay.cpp     **** 
 111:Delay.cpp     **** void Delay::clear()
 112:Delay.cpp     **** {
 1900              		.loc 4 112 1 is_stmt 1 view -0
 1901              		.cfi_startproc
 1902              		@ args = 0, pretend = 0, frame = 0
 1903              		@ frame_needed = 0, uses_anonymous_args = 0
 113:Delay.cpp     ****     
 114:Delay.cpp     ****     for (int i = 0; i < NUM_OF_DELAY_HEADS; i++)
 1904              		.loc 4 114 5 view .LVU489
 1905              	.LBB340:
 1906              		.loc 4 114 23 view .LVU490
 1907              	.LBE340:
 112:Delay.cpp     ****     
 1908              		.loc 4 112 1 is_stmt 0 view .LVU491
 1909 0000 2DE9F843 		push	{r3, r4, r5, r6, r7, r8, r9, lr}
 1910              		.cfi_def_cfa_offset 32
 1911              		.cfi_offset 3, -32
 1912              		.cfi_offset 4, -28
 1913              		.cfi_offset 5, -24
 1914              		.cfi_offset 6, -20
 1915              		.cfi_offset 7, -16
 1916              		.cfi_offset 8, -12
 1917              		.cfi_offset 9, -8
 1918              		.cfi_offset 14, -4
 112:Delay.cpp     ****     
 1919              		.loc 4 112 1 view .LVU492
 1920 0004 0546     		mov	r5, r0
 1921 0006 00F11404 		add	r4, r0, #20
 1922 000a 00F18406 		add	r6, r0, #132
 1923              	.LVL88:
 1924              	.L70:
 1925              	.LBB410:
 115:Delay.cpp     ****     {
 116:Delay.cpp     ****         feedback = 0;
 1926              		.loc 4 116 9 is_stmt 1 discriminator 2 view .LVU493
 1927              		.loc 4 116 18 is_stmt 0 discriminator 2 view .LVU494
 1928 000e 9FED350A 		vldr.32	s0, .L73
 1929              	.LBB341:
 1930              	.LBB342:
 1931              	.LBB343:
 1932              	.LBB344:
 1933              		.loc 2 137 9 discriminator 2 view .LVU495
 1934 0012 DFED355A 		vldr.32	s11, .L73+4
 1935              	.LBE344:
 1936              	.LBE343:
 1937              	.LBE342:
 1938              	.LBE341:
 1939              		.loc 4 116 18 discriminator 2 view .LVU496
 1940 0016 85ED020A 		vstr.32	s0, [r5, #8]
 117:Delay.cpp     ****         delayHeads[i].feedback = 0;
ARM GAS  /var/folders/fs/ht5wlc7s7b56r9p0ngl7ssgc0000gn/T//ccssYOSC.s 			page 51


 1941              		.loc 4 117 9 is_stmt 1 discriminator 2 view .LVU497
 1942              	.LBB406:
 1943              	.LBB402:
 1944              	.LBB350:
 1945              	.LBB345:
 1946              		.loc 2 137 9 is_stmt 0 discriminator 2 view .LVU498
 1947 001a D4ED027A 		vldr.32	s15, [r4, #8]
 1948              		.loc 2 137 24 discriminator 2 view .LVU499
 1949 001e D4ED036A 		vldr.32	s13, [r4, #12]
 1950              	.LBE345:
 1951              	.LBE350:
  35:Delay.h       ****                  
 1952              		.loc 1 35 17 discriminator 2 view .LVU500
 1953 0022 2168     		ldr	r1, [r4]
 1954              	.LBB351:
 1955              	.LBB346:
 1956              		.loc 2 137 24 discriminator 2 view .LVU501
 1957 0024 76EEE76A 		vsub.f32	s13, s13, s15
 1958              	.LBE346:
 1959              	.LBE351:
  35:Delay.h       ****                  
 1960              		.loc 1 35 32 discriminator 2 view .LVU502
 1961 0028 94ED057A 		vldr.32	s14, [r4, #20]
 1962              	.LBB352:
 1963              	.LBB353:
  55:../../DaisySP//Source/Utility/delayline.h ****         frac_             = delay/speed - static_cast<float>(int_delay);
 1964              		.loc 5 55 56 discriminator 2 view .LVU503
 1965 002c 01F5BA23 		add	r3, r1, #380928
 1966              	.LBE353:
 1967              	.LBE352:
 1968              	.LBB361:
 1969              	.LBB362:
  74:../../DaisySP//Source/Utility/delayline.h ****         T b = line_[(speed*(write_ptr_ + delay_ + 1)) % max_size];
 1970              		.loc 5 74 29 discriminator 2 view .LVU504
 1971 0030 D1F804C0 		ldr	ip, [r1, #4]
 1972              	.LBE362:
 1973              	.LBE361:
 1974              	.LBB371:
 1975              	.LBB354:
  57:../../DaisySP//Source/Utility/delayline.h ****                                                            : max_size - 1;
 1976              		.loc 5 57 60 discriminator 2 view .LVU505
 1977 0034 2D48     		ldr	r0, .L73+8
 1978              	.LBE354:
 1979              	.LBE371:
 1980              	.LBB372:
 1981              	.LBB347:
 1982              		.loc 2 137 9 discriminator 2 view .LVU506
 1983 0036 E6EEA57A 		vfma.f32	s15, s13, s11
 1984              	.LBE347:
 1985              	.LBE372:
 1986              	.LBB373:
 1987              	.LBB355:
  55:../../DaisySP//Source/Utility/delayline.h ****         frac_             = delay/speed - static_cast<float>(int_delay);
 1988              		.loc 5 55 56 discriminator 2 view .LVU507
 1989 003a D3F80C3C 		ldr	r3, [r3, #3084]
 1990              	.LBE355:
 1991              	.LBE373:
ARM GAS  /var/folders/fs/ht5wlc7s7b56r9p0ngl7ssgc0000gn/T//ccssYOSC.s 			page 52


 1992              	.LBB374:
 1993              	.LBB363:
  74:../../DaisySP//Source/Utility/delayline.h ****         T b = line_[(speed*(write_ptr_ + delay_ + 1)) % max_size];
 1994              		.loc 5 74 51 discriminator 2 view .LVU508
 1995 003e 2C4F     		ldr	r7, .L73+12
 1996              	.LBE363:
 1997              	.LBE374:
 1998              	.LBB375:
 1999              	.LBB356:
  55:../../DaisySP//Source/Utility/delayline.h ****         frac_             = delay/speed - static_cast<float>(int_delay);
 2000              		.loc 5 55 55 discriminator 2 view .LVU509
 2001 0040 06EE903A 		vmov	s13, r3	@ int
 2002              	.LBE356:
 2003              	.LBE375:
 2004              	.LBE402:
 2005              	.LBE406:
 2006              		.loc 4 117 32 discriminator 2 view .LVU510
 2007 0044 84ED040A 		vstr.32	s0, [r4, #16]
 118:Delay.cpp     ****         delayHeads[i].process(0);
 2008              		.loc 4 118 9 is_stmt 1 discriminator 2 view .LVU511
 2009              	.LVL89:
 2010              	.LBB407:
 2011              	.LBI341:
  27:Delay.h       ****             {
 2012              		.loc 1 27 19 discriminator 2 view .LVU512
 2013              	.LBB403:
  30:Delay.h       **** 
 2014              		.loc 1 30 17 discriminator 2 view .LVU513
  33:Delay.h       ****                 // Set delay time
 2015              		.loc 1 33 17 discriminator 2 view .LVU514
 2016              	.LBB376:
 2017              	.LBI343:
 135:../../DaisySP//Source/Utility/dsp.h **** {
 2018              		.loc 2 135 13 discriminator 2 view .LVU515
 2019              	.LBB348:
 2020              		.loc 2 137 5 discriminator 2 view .LVU516
 2021              	.LBE348:
 2022              	.LBE376:
 2023              	.LBB377:
 2024              	.LBB364:
  74:../../DaisySP//Source/Utility/delayline.h ****         T b = line_[(speed*(write_ptr_ + delay_ + 1)) % max_size];
 2025              		.loc 5 74 51 is_stmt 0 discriminator 2 view .LVU517
 2026 0048 DFF8A8E0 		ldr	lr, .L73+16
 2027              	.LBE364:
 2028              	.LBE377:
 2029              	.LBB378:
 2030              	.LBB357:
  55:../../DaisySP//Source/Utility/delayline.h ****         frac_             = delay/speed - static_cast<float>(int_delay);
 2031              		.loc 5 55 55 discriminator 2 view .LVU518
 2032 004c F8EE666A 		vcvt.f32.u32	s13, s13
 2033              	.LBE357:
 2034              	.LBE378:
  35:Delay.h       ****                  
 2035              		.loc 1 35 32 discriminator 2 view .LVU519
 2036 0050 37EE877A 		vadd.f32	s14, s15, s14
 2037              	.LBB379:
 2038              	.LBB349:
ARM GAS  /var/folders/fs/ht5wlc7s7b56r9p0ngl7ssgc0000gn/T//ccssYOSC.s 			page 53


 2039              		.loc 2 137 9 discriminator 2 view .LVU520
 2040 0054 C4ED027A 		vstr.32	s15, [r4, #8]
 2041              	.LVL90:
 2042              		.loc 2 137 9 discriminator 2 view .LVU521
 2043              	.LBE349:
 2044              	.LBE379:
  35:Delay.h       ****                  
 2045              		.loc 1 35 17 is_stmt 1 discriminator 2 view .LVU522
 2046              	.LBB380:
 2047              	.LBI352:
  53:../../DaisySP//Source/Utility/delayline.h ****     {
 2048              		.loc 5 53 17 discriminator 2 view .LVU523
 2049              	.LBB358:
  55:../../DaisySP//Source/Utility/delayline.h ****         frac_             = delay/speed - static_cast<float>(int_delay);
 2050              		.loc 5 55 55 is_stmt 0 discriminator 2 view .LVU524
 2051 0058 C7EE267A 		vdiv.f32	s15, s14, s13
 2052              	.LVL91:
  55:../../DaisySP//Source/Utility/delayline.h ****         frac_             = delay/speed - static_cast<float>(int_delay);
 2053              		.loc 5 55 17 discriminator 2 view .LVU525
 2054 005c BDEEE77A 		vcvt.s32.f32	s14, s15
 2055              	.LVL92:
  57:../../DaisySP//Source/Utility/delayline.h ****                                                            : max_size - 1;
 2056              		.loc 5 57 60 discriminator 2 view .LVU526
 2057 0060 17EE108A 		vmov	r8, s14	@ int
  56:../../DaisySP//Source/Utility/delayline.h ****         delay_ = static_cast<size_t>(int_delay) < max_size ? int_delay
 2058              		.loc 5 56 43 discriminator 2 view .LVU527
 2059 0064 B8EEC77A 		vcvt.f32.s32	s14, s14
 2060              	.LVL93:
  57:../../DaisySP//Source/Utility/delayline.h ****                                                            : max_size - 1;
 2061              		.loc 5 57 60 discriminator 2 view .LVU528
 2062 0068 8045     		cmp	r8, r0
  56:../../DaisySP//Source/Utility/delayline.h ****         delay_ = static_cast<size_t>(int_delay) < max_size ? int_delay
 2063              		.loc 5 56 41 discriminator 2 view .LVU529
 2064 006a 77EEC77A 		vsub.f32	s15, s15, s14
  57:../../DaisySP//Source/Utility/delayline.h ****                                                            : max_size - 1;
 2065              		.loc 5 57 60 discriminator 2 view .LVU530
 2066 006e 28BF     		it	cs
 2067 0070 8046     		movcs	r8, r0
 2068              	.LVL94:
  57:../../DaisySP//Source/Utility/delayline.h ****                                                            : max_size - 1;
 2069              		.loc 5 57 60 discriminator 2 view .LVU531
 2070              	.LBE358:
 2071              	.LBE380:
 2072              	.LBB381:
 2073              	.LBB382:
  67:../../DaisySP//Source/Utility/delayline.h ****     }
 2074              		.loc 5 67 45 discriminator 2 view .LVU532
 2075 0072 6044     		add	r0, r0, ip
 2076              	.LBE382:
 2077              	.LBE381:
 2078              	.LBB388:
 2079              	.LBB365:
  74:../../DaisySP//Source/Utility/delayline.h ****         T b = line_[(speed*(write_ptr_ + delay_ + 1)) % max_size];
 2080              		.loc 5 74 40 discriminator 2 view .LVU533
 2081 0074 08EB0C02 		add	r2, r8, ip
 2082              	.LBE365:
 2083              	.LBE388:
ARM GAS  /var/folders/fs/ht5wlc7s7b56r9p0ngl7ssgc0000gn/T//ccssYOSC.s 			page 54


 2084              	.LBB389:
 2085              	.LBB359:
  57:../../DaisySP//Source/Utility/delayline.h ****                                                            : max_size - 1;
 2086              		.loc 5 57 16 discriminator 2 view .LVU534
 2087 0078 C1F80880 		str	r8, [r1, #8]
 2088              	.LVL95:
  57:../../DaisySP//Source/Utility/delayline.h ****                                                            : max_size - 1;
 2089              		.loc 5 57 16 discriminator 2 view .LVU535
 2090              	.LBE359:
 2091              	.LBE389:
  37:Delay.h       **** 
 2092              		.loc 1 37 17 is_stmt 1 discriminator 2 view .LVU536
 2093              	.LBB390:
 2094              	.LBI361:
  72:../../DaisySP//Source/Utility/delayline.h ****     {
 2095              		.loc 5 72 20 discriminator 2 view .LVU537
 2096              	.LBE390:
 2097              	.LBB391:
 2098              	.LBB360:
  56:../../DaisySP//Source/Utility/delayline.h ****         delay_ = static_cast<size_t>(int_delay) < max_size ? int_delay
 2099              		.loc 5 56 27 is_stmt 0 discriminator 2 view .LVU538
 2100 007c C1ED007A 		vstr.32	s15, [r1]
 2101              	.LBE360:
 2102              	.LBE391:
 2103              	.LBB392:
 2104              	.LBB383:
  66:../../DaisySP//Source/Utility/delayline.h ****         write_ptr_        = (write_ptr_ - 1 + max_size) % max_size;
 2105              		.loc 5 66 27 discriminator 2 view .LVU539
 2106 0080 01EB8C0C 		add	ip, r1, ip, lsl #2
 2107              	.LBE383:
 2108              	.LBE392:
 2109              	.LBB393:
 2110              	.LBB366:
  74:../../DaisySP//Source/Utility/delayline.h ****         T b = line_[(speed*(write_ptr_ + delay_ + 1)) % max_size];
 2111              		.loc 5 74 27 discriminator 2 view .LVU540
 2112 0084 03FB02F2 		mul	r2, r3, r2
  74:../../DaisySP//Source/Utility/delayline.h ****         T b = line_[(speed*(write_ptr_ + delay_ + 1)) % max_size];
 2113              		.loc 5 74 51 discriminator 2 view .LVU541
 2114 0088 A7FB0298 		umull	r9, r8, r7, r2
  75:../../DaisySP//Source/Utility/delayline.h ****         return a + (b - a) * frac_;
 2115              		.loc 5 75 27 discriminator 2 view .LVU542
 2116 008c 1344     		add	r3, r3, r2
  74:../../DaisySP//Source/Utility/delayline.h ****         T b = line_[(speed*(write_ptr_ + delay_ + 1)) % max_size];
 2117              		.loc 5 74 51 discriminator 2 view .LVU543
 2118 008e 4FEAD828 		lsr	r8, r8, #11
 2119 0092 0EFB1822 		mls	r2, lr, r8, r2
  75:../../DaisySP//Source/Utility/delayline.h ****         return a + (b - a) * frac_;
 2120              		.loc 5 75 55 discriminator 2 view .LVU544
 2121 0096 A7FB0398 		umull	r9, r8, r7, r3
  74:../../DaisySP//Source/Utility/delayline.h ****         T b = line_[(speed*(write_ptr_ + delay_ + 1)) % max_size];
 2122              		.loc 5 74 11 discriminator 2 view .LVU545
 2123 009a 01EB8202 		add	r2, r1, r2, lsl #2
 2124              	.LBE366:
 2125              	.LBE393:
 2126              	.LBB394:
 2127              	.LBB384:
  67:../../DaisySP//Source/Utility/delayline.h ****     }
ARM GAS  /var/folders/fs/ht5wlc7s7b56r9p0ngl7ssgc0000gn/T//ccssYOSC.s 			page 55


 2128              		.loc 5 67 57 discriminator 2 view .LVU546
 2129 009e A7FB0097 		umull	r9, r7, r7, r0
 2130              	.LBE384:
 2131              	.LBE394:
 2132              	.LBB395:
 2133              	.LBB367:
  75:../../DaisySP//Source/Utility/delayline.h ****         return a + (b - a) * frac_;
 2134              		.loc 5 75 55 discriminator 2 view .LVU547
 2135 00a2 4FEAD828 		lsr	r8, r8, #11
  74:../../DaisySP//Source/Utility/delayline.h ****         T b = line_[(speed*(write_ptr_ + delay_ + 1)) % max_size];
 2136              		.loc 5 74 11 discriminator 2 view .LVU548
 2137 00a6 92ED037A 		vldr.32	s14, [r2, #12]
 2138              	.LVL96:
  74:../../DaisySP//Source/Utility/delayline.h ****         T b = line_[(speed*(write_ptr_ + delay_ + 1)) % max_size];
 2139              		.loc 5 74 11 discriminator 2 view .LVU549
 2140              	.LBE367:
 2141              	.LBE395:
 2142              	.LBB396:
 2143              	.LBB385:
  67:../../DaisySP//Source/Utility/delayline.h ****     }
 2144              		.loc 5 67 57 discriminator 2 view .LVU550
 2145 00aa FF0A     		lsrs	r7, r7, #11
 2146              	.LBE385:
 2147              	.LBE396:
 2148              	.LBB397:
 2149              	.LBB368:
  75:../../DaisySP//Source/Utility/delayline.h ****         return a + (b - a) * frac_;
 2150              		.loc 5 75 55 discriminator 2 view .LVU551
 2151 00ac 0EFB1833 		mls	r3, lr, r8, r3
 2152              	.LBE368:
 2153              	.LBE397:
 2154              	.LBB398:
 2155              	.LBB386:
  67:../../DaisySP//Source/Utility/delayline.h ****     }
 2156              		.loc 5 67 57 discriminator 2 view .LVU552
 2157 00b0 0EFB1707 		mls	r7, lr, r7, r0
 2158              	.LBE386:
 2159              	.LBE398:
 2160              	.LBE403:
 2161              	.LBE407:
 119:Delay.cpp     ****         delayHeads[i].processReverse(0);
 2162              		.loc 4 119 37 discriminator 2 view .LVU553
 2163 00b4 2046     		mov	r0, r4
 2164              	.LBB408:
 2165              	.LBB404:
 2166              	.LBB399:
 2167              	.LBB369:
  75:../../DaisySP//Source/Utility/delayline.h ****         return a + (b - a) * frac_;
 2168              		.loc 5 75 11 discriminator 2 view .LVU554
 2169 00b6 01EB8303 		add	r3, r1, r3, lsl #2
 2170              	.LBE369:
 2171              	.LBE399:
 2172              	.LBE404:
 2173              	.LBE408:
 114:Delay.cpp     ****     {
 2174              		.loc 4 114 23 discriminator 2 view .LVU555
 2175 00ba 1C34     		adds	r4, r4, #28
ARM GAS  /var/folders/fs/ht5wlc7s7b56r9p0ngl7ssgc0000gn/T//ccssYOSC.s 			page 56


 2176              	.LVL97:
 2177              	.LBB409:
 2178              	.LBB405:
 2179              	.LBB400:
 2180              	.LBB370:
  76:../../DaisySP//Source/Utility/delayline.h ****     }
 2181              		.loc 5 76 23 discriminator 2 view .LVU556
 2182 00bc D3ED036A 		vldr.32	s13, [r3, #12]
 2183 00c0 76EEC76A 		vsub.f32	s13, s13, s14
  76:../../DaisySP//Source/Utility/delayline.h ****     }
 2184              		.loc 5 76 30 discriminator 2 view .LVU557
 2185 00c4 A7EEA67A 		vfma.f32	s14, s15, s13
 2186              	.LVL98:
  76:../../DaisySP//Source/Utility/delayline.h ****     }
 2187              		.loc 5 76 30 discriminator 2 view .LVU558
 2188              	.LBE370:
 2189              	.LBE400:
  40:Delay.h       ****                 
 2190              		.loc 1 40 17 is_stmt 1 discriminator 2 view .LVU559
  40:Delay.h       ****                 
 2191              		.loc 1 40 29 is_stmt 0 discriminator 2 view .LVU560
 2192 00c8 F0EE407A 		vmov.f32	s15, s0
 2193 00cc E0EE077A 		vfma.f32	s15, s0, s14
 2194              	.LVL99:
 2195              	.LBB401:
 2196              	.LBI381:
  64:../../DaisySP//Source/Utility/delayline.h ****     {
 2197              		.loc 5 64 17 is_stmt 1 discriminator 2 view .LVU561
 2198              	.LBB387:
  66:../../DaisySP//Source/Utility/delayline.h ****         write_ptr_        = (write_ptr_ - 1 + max_size) % max_size;
 2199              		.loc 5 66 27 is_stmt 0 discriminator 2 view .LVU562
 2200 00d0 CCED037A 		vstr.32	s15, [ip, #12]
  67:../../DaisySP//Source/Utility/delayline.h ****     }
 2201              		.loc 5 67 27 discriminator 2 view .LVU563
 2202 00d4 4F60     		str	r7, [r1, #4]
 2203              	.LVL100:
  67:../../DaisySP//Source/Utility/delayline.h ****     }
 2204              		.loc 5 67 27 discriminator 2 view .LVU564
 2205              	.LBE387:
 2206              	.LBE401:
  42:Delay.h       ****             }
 2207              		.loc 1 42 17 is_stmt 1 discriminator 2 view .LVU565
  42:Delay.h       ****             }
 2208              		.loc 1 42 17 is_stmt 0 discriminator 2 view .LVU566
 2209              	.LBE405:
 2210              	.LBE409:
 2211              		.loc 4 119 9 is_stmt 1 discriminator 2 view .LVU567
 2212              		.loc 4 119 37 is_stmt 0 discriminator 2 view .LVU568
 2213 00d6 FFF7FEFF 		bl	_ZN5Delay9DelayHead14processReverseEf
 2214              	.LVL101:
 114:Delay.cpp     ****     {
 2215              		.loc 4 114 5 is_stmt 1 discriminator 2 view .LVU569
 114:Delay.cpp     ****     {
 2216              		.loc 4 114 23 discriminator 2 view .LVU570
 2217 00da B442     		cmp	r4, r6
 2218 00dc 97D1     		bne	.L70
 2219              	.LBE410:
ARM GAS  /var/folders/fs/ht5wlc7s7b56r9p0ngl7ssgc0000gn/T//ccssYOSC.s 			page 57


 120:Delay.cpp     ****     }
 121:Delay.cpp     ****     
 122:Delay.cpp     ****     
 123:Delay.cpp     **** }
 2220              		.loc 4 123 1 is_stmt 0 view .LVU571
 2221 00de BDE8F883 		pop	{r3, r4, r5, r6, r7, r8, r9, pc}
 2222              	.LVL102:
 2223              	.L74:
 2224              		.loc 4 123 1 view .LVU572
 2225 00e2 00BF     		.align	2
 2226              	.L73:
 2227 00e4 00000000 		.word	0
 2228 00e8 17B75139 		.word	961656599
 2229 00ec FF760100 		.word	95999
 2230 00f0 F1197605 		.word	91625969
 2231 00f4 00770100 		.word	96000
 2232              		.cfi_endproc
 2233              	.LFE4817:
 2235              		.section	.text._ZN5Delay13setModulationERKf,"ax",%progbits
 2236              		.align	1
 2237              		.p2align 2,,3
 2238              		.global	_ZN5Delay13setModulationERKf
 2239              		.syntax unified
 2240              		.thumb
 2241              		.thumb_func
 2243              	_ZN5Delay13setModulationERKf:
 2244              	.LVL103:
 2245              	.LFB4818:
 124:Delay.cpp     **** void  Delay::setModulation(const float& mod)
 125:Delay.cpp     **** {
 2246              		.loc 4 125 1 is_stmt 1 view -0
 2247              		.cfi_startproc
 2248              		@ args = 0, pretend = 0, frame = 0
 2249              		@ frame_needed = 0, uses_anonymous_args = 0
 2250              		@ link register save eliminated.
 126:Delay.cpp     ****     modulation = mod;
 2251              		.loc 4 126 5 view .LVU574
 2252              		.loc 4 126 18 is_stmt 0 view .LVU575
 2253 0000 0B68     		ldr	r3, [r1]	@ float
 2254              		.loc 4 126 16 view .LVU576
 2255 0002 C360     		str	r3, [r0, #12]	@ float
 127:Delay.cpp     **** }
 2256              		.loc 4 127 1 view .LVU577
 2257 0004 7047     		bx	lr
 2258              		.cfi_endproc
 2259              	.LFE4818:
 2261 0006 00BF     		.section	.text._ZN5Delay10setReverseEb,"ax",%progbits
 2262              		.align	1
 2263              		.p2align 2,,3
 2264              		.global	_ZN5Delay10setReverseEb
 2265              		.syntax unified
 2266              		.thumb
 2267              		.thumb_func
 2269              	_ZN5Delay10setReverseEb:
 2270              	.LVL104:
 2271              	.LFB4819:
 128:Delay.cpp     **** void  Delay::setReverse(bool reverse)
ARM GAS  /var/folders/fs/ht5wlc7s7b56r9p0ngl7ssgc0000gn/T//ccssYOSC.s 			page 58


 129:Delay.cpp     **** {
 2272              		.loc 4 129 1 is_stmt 1 view -0
 2273              		.cfi_startproc
 2274              		@ args = 0, pretend = 0, frame = 0
 2275              		@ frame_needed = 0, uses_anonymous_args = 0
 2276              		@ link register save eliminated.
 130:Delay.cpp     ****     proccessReverse = reverse;
 2277              		.loc 4 130 5 view .LVU579
 2278              		.loc 4 130 21 is_stmt 0 view .LVU580
 2279 0000 0174     		strb	r1, [r0, #16]
 131:Delay.cpp     **** }
 2280              		.loc 4 131 1 view .LVU581
 2281 0002 7047     		bx	lr
 2282              		.cfi_endproc
 2283              	.LFE4819:
 2285              		.section	.text._ZN5Delay6getBPMEv,"ax",%progbits
 2286              		.align	1
 2287              		.p2align 2,,3
 2288              		.global	_ZN5Delay6getBPMEv
 2289              		.syntax unified
 2290              		.thumb
 2291              		.thumb_func
 2293              	_ZN5Delay6getBPMEv:
 2294              	.LVL105:
 2295              	.LFB4820:
 132:Delay.cpp     **** float Delay::getBPM()
 133:Delay.cpp     **** {
 2296              		.loc 4 133 1 is_stmt 1 view -0
 2297              		.cfi_startproc
 2298              		@ args = 0, pretend = 0, frame = 0
 2299              		@ frame_needed = 0, uses_anonymous_args = 0
 2300              		@ link register save eliminated.
 134:Delay.cpp     ****     return bpm;
 2301              		.loc 4 134 5 view .LVU583
 135:Delay.cpp     **** }...
 2302              		.loc 4 135 1 is_stmt 0 view .LVU584
 2303 0000 90ED010A 		vldr.32	s0, [r0, #4]
 2304 0004 7047     		bx	lr
 2305              		.cfi_endproc
 2306              	.LFE4820:
 2308 0006 00BF     		.text
 2309              	.Letext0:
 2310              		.file 6 "/Library/DaisyToolchain/0.2.0/arm/arm-none-eabi/include/machine/_default_types.h"
 2311              		.file 7 "/Library/DaisyToolchain/0.2.0/arm/arm-none-eabi/include/sys/_stdint.h"
 2312              		.file 8 "/Library/DaisyToolchain/0.2.0/arm/arm-none-eabi/include/stdint.h"
 2313              		.file 9 "/Library/DaisyToolchain/0.2.0/arm/lib/gcc/arm-none-eabi/10.3.1/include/stddef.h"
 2314              		.file 10 "/Library/DaisyToolchain/0.2.0/arm/arm-none-eabi/include/c++/10.3.1/cmath"
 2315              		.file 11 "/Library/DaisyToolchain/0.2.0/arm/arm-none-eabi/include/c++/10.3.1/bits/std_abs.h"
 2316              		.file 12 "/Library/DaisyToolchain/0.2.0/arm/arm-none-eabi/include/c++/10.3.1/cstdint"
 2317              		.file 13 "/Library/DaisyToolchain/0.2.0/arm/arm-none-eabi/include/c++/10.3.1/cstdlib"
 2318              		.file 14 "/Library/DaisyToolchain/0.2.0/arm/arm-none-eabi/include/c++/10.3.1/type_traits"
 2319              		.file 15 "/Library/DaisyToolchain/0.2.0/arm/arm-none-eabi/include/c++/10.3.1/debug/debug.h"
 2320              		.file 16 "/Library/DaisyToolchain/0.2.0/arm/arm-none-eabi/include/c++/10.3.1/cwchar"
 2321              		.file 17 "/Library/DaisyToolchain/0.2.0/arm/arm-none-eabi/include/c++/10.3.1/bits/stl_pair.h"
 2322              		.file 18 "/Library/DaisyToolchain/0.2.0/arm/arm-none-eabi/include/c++/10.3.1/bits/exception_ptr.h"
 2323              		.file 19 "/Library/DaisyToolchain/0.2.0/arm/arm-none-eabi/include/c++/10.3.1/arm-none-eabi/thumb/v
 2324              		.file 20 "/Library/DaisyToolchain/0.2.0/arm/arm-none-eabi/include/c++/10.3.1/clocale"
ARM GAS  /var/folders/fs/ht5wlc7s7b56r9p0ngl7ssgc0000gn/T//ccssYOSC.s 			page 59


 2325              		.file 21 "/Library/DaisyToolchain/0.2.0/arm/arm-none-eabi/include/c++/10.3.1/cstdio"
 2326              		.file 22 "/Library/DaisyToolchain/0.2.0/arm/arm-none-eabi/include/c++/10.3.1/bits/basic_string.h"
 2327              		.file 23 "/Library/DaisyToolchain/0.2.0/arm/arm-none-eabi/include/c++/10.3.1/bits/stl_iterator.h"
 2328              		.file 24 "/Library/DaisyToolchain/0.2.0/arm/arm-none-eabi/include/c++/10.3.1/cstring"
 2329              		.file 25 "/Library/DaisyToolchain/0.2.0/arm/arm-none-eabi/include/c++/10.3.1/bits/algorithmfwd.h"
 2330              		.file 26 "/Library/DaisyToolchain/0.2.0/arm/arm-none-eabi/include/c++/10.3.1/cstdarg"
 2331              		.file 27 "/Library/DaisyToolchain/0.2.0/arm/arm-none-eabi/include/c++/10.3.1/bits/predefined_ops.h
 2332              		.file 28 "/Library/DaisyToolchain/0.2.0/arm/arm-none-eabi/include/sys/_types.h"
 2333              		.file 29 "/Library/DaisyToolchain/0.2.0/arm/arm-none-eabi/include/sys/reent.h"
 2334              		.file 30 "/Library/DaisyToolchain/0.2.0/arm/arm-none-eabi/include/sys/lock.h"
 2335              		.file 31 "/Library/DaisyToolchain/0.2.0/arm/arm-none-eabi/include/math.h"
 2336              		.file 32 "/Library/DaisyToolchain/0.2.0/arm/arm-none-eabi/include/stdlib.h"
 2337              		.file 33 "/Library/DaisyToolchain/0.2.0/arm/arm-none-eabi/include/c++/10.3.1/math.h"
 2338              		.file 34 "../../DaisySP//Source/Control/adenv.h"
 2339              		.file 35 "/Library/DaisyToolchain/0.2.0/arm/lib/gcc/arm-none-eabi/10.3.1/include/stdarg.h"
 2340              		.file 36 "/Library/DaisyToolchain/0.2.0/arm/arm-none-eabi/include/wchar.h"
 2341              		.file 37 "/Library/DaisyToolchain/0.2.0/arm/arm-none-eabi/include/locale.h"
 2342              		.file 38 "/Library/DaisyToolchain/0.2.0/arm/arm-none-eabi/include/stdio.h"
 2343              		.file 39 "/Library/DaisyToolchain/0.2.0/arm/arm-none-eabi/include/c++/10.3.1/stdlib.h"
 2344              		.file 40 "/Library/DaisyToolchain/0.2.0/arm/arm-none-eabi/include/string.h"
 2345              		.file 41 "../../libDaisy//src/daisy_core.h"
 2346              		.file 42 "../../libDaisy//src/util/wav_format.h"
 2347              		.file 43 "../../libDaisy//src/dev/max11300.h"
 2348              		.file 44 "../../libDaisy//src/daisy_seed.h"
 2349              		.file 45 "../../libDaisy//src/dev/sr_595.h"
 2350              		.file 46 "<built-in>"
ARM GAS  /var/folders/fs/ht5wlc7s7b56r9p0ngl7ssgc0000gn/T//ccssYOSC.s 			page 60

