ARM GAS  /var/folders/fs/ht5wlc7s7b56r9p0ngl7ssgc0000gn/T//ccHBcJ2G.s 			page 1


   1              		.cpu cortex-m7
   2              		.arch armv7e-m
   3              		.fpu fpv5-d16
   4              		.eabi_attribute 28, 1
   5              		.eabi_attribute 20, 1
   6              		.eabi_attribute 21, 1
   7              		.eabi_attribute 23, 3
   8              		.eabi_attribute 24, 1
   9              		.eabi_attribute 25, 1
  10              		.eabi_attribute 26, 1
  11              		.eabi_attribute 30, 2
  12              		.eabi_attribute 34, 1
  13              		.eabi_attribute 18, 4
  14              		.file	"Pedal.cpp"
  15              		.text
  16              	.Ltext0:
  17              		.cfi_sections	.debug_frame
  18              		.section	.text._ZN5daisy9ParameterD2Ev,"axG",%progbits,_ZN5daisy9ParameterD5Ev,comdat
  19              		.align	1
  20              		.p2align 2,,3
  21              		.weak	_ZN5daisy9ParameterD2Ev
  22              		.syntax unified
  23              		.thumb
  24              		.thumb_func
  26              	_ZN5daisy9ParameterD2Ev:
  27              	.LVL0:
  28              	.LFB1655:
  29              		.file 1 "../../libDaisy//src/hid/parameter.h"
   1:../../libDaisy//src/hid/parameter.h **** #pragma once
   2:../../libDaisy//src/hid/parameter.h **** #include <stdint.h>
   3:../../libDaisy//src/hid/parameter.h **** #include "hid/ctrl.h"
   4:../../libDaisy//src/hid/parameter.h **** 
   5:../../libDaisy//src/hid/parameter.h **** namespace daisy
   6:../../libDaisy//src/hid/parameter.h **** {
   7:../../libDaisy//src/hid/parameter.h **** /** @addtogroup controls
   8:../../libDaisy//src/hid/parameter.h ****     @{
   9:../../libDaisy//src/hid/parameter.h **** */
  10:../../libDaisy//src/hid/parameter.h **** 
  11:../../libDaisy//src/hid/parameter.h **** /**      Simple parameter mapping tool that takes a 0-1 input from an hid_ctrl. */
  12:../../libDaisy//src/hid/parameter.h **** class Parameter
  13:../../libDaisy//src/hid/parameter.h **** {
  14:../../libDaisy//src/hid/parameter.h ****   public:
  15:../../libDaisy//src/hid/parameter.h ****     /** Curves are applied to the output signal */
  16:../../libDaisy//src/hid/parameter.h ****     enum Curve
  17:../../libDaisy//src/hid/parameter.h ****     {
  18:../../libDaisy//src/hid/parameter.h ****         LINEAR,      /**< Linear curve */
  19:../../libDaisy//src/hid/parameter.h ****         EXPONENTIAL, /**< Exponential curve */
  20:../../libDaisy//src/hid/parameter.h ****         LOGARITHMIC, /**<  Logarithmic curve */
  21:../../libDaisy//src/hid/parameter.h ****         CUBE,        /**< Cubic curve */
  22:../../libDaisy//src/hid/parameter.h ****         LAST,        /**< Final enum element. */
  23:../../libDaisy//src/hid/parameter.h ****     };
  24:../../libDaisy//src/hid/parameter.h ****     /** Constructor */
  25:../../libDaisy//src/hid/parameter.h ****     Parameter() {}
  26:../../libDaisy//src/hid/parameter.h ****     /** Destructor */
  27:../../libDaisy//src/hid/parameter.h ****     ~Parameter() {}
  30              		.loc 1 27 5 view -0
  31              		.cfi_startproc
ARM GAS  /var/folders/fs/ht5wlc7s7b56r9p0ngl7ssgc0000gn/T//ccHBcJ2G.s 			page 2


  32              		@ args = 0, pretend = 0, frame = 0
  33              		@ frame_needed = 0, uses_anonymous_args = 0
  34              		@ link register save eliminated.
  35              	.LBB266:
  36              	.LBI266:
  37              		.file 2 "../../libDaisy//src/hid/ctrl.h"
   1:../../libDaisy//src/hid/ctrl.h **** #pragma once
   2:../../libDaisy//src/hid/ctrl.h **** #ifndef DSY_KNOB_H
   3:../../libDaisy//src/hid/ctrl.h **** #define DSY_KNOB_H /**< & */
   4:../../libDaisy//src/hid/ctrl.h **** #include <stdint.h>
   5:../../libDaisy//src/hid/ctrl.h **** 
   6:../../libDaisy//src/hid/ctrl.h **** #ifdef __cplusplus
   7:../../libDaisy//src/hid/ctrl.h **** namespace daisy
   8:../../libDaisy//src/hid/ctrl.h **** {
   9:../../libDaisy//src/hid/ctrl.h **** /**
  10:../../libDaisy//src/hid/ctrl.h ****     @brief Hardware Interface for control inputs \n 
  11:../../libDaisy//src/hid/ctrl.h ****     Primarily designed for ADC input controls such as \n 
  12:../../libDaisy//src/hid/ctrl.h ****     potentiometers, and control voltage. \n 
  13:../../libDaisy//src/hid/ctrl.h ****     @author Stephen Hensley
  14:../../libDaisy//src/hid/ctrl.h ****     @date November 2019
  15:../../libDaisy//src/hid/ctrl.h ****     @ingroup controls
  16:../../libDaisy//src/hid/ctrl.h **** */
  17:../../libDaisy//src/hid/ctrl.h **** class AnalogControl
  18:../../libDaisy//src/hid/ctrl.h **** {
  19:../../libDaisy//src/hid/ctrl.h ****   public:
  20:../../libDaisy//src/hid/ctrl.h ****     /** Constructor */
  21:../../libDaisy//src/hid/ctrl.h ****     AnalogControl() {}
  22:../../libDaisy//src/hid/ctrl.h ****     /** destructor */
  23:../../libDaisy//src/hid/ctrl.h ****     ~AnalogControl() {}
  38              		.loc 2 23 5 view .LVU1
  39              		.loc 2 23 5 is_stmt 0 view .LVU2
  40              	.LBE266:
  41              		.loc 1 27 19 view .LVU3
  42 0000 7047     		bx	lr
  43              		.cfi_endproc
  44              	.LFE1655:
  46              		.weak	_ZN5daisy9ParameterD1Ev
  47              		.thumb_set _ZN5daisy9ParameterD1Ev,_ZN5daisy9ParameterD2Ev
  48 0002 00BF     		.section	.text._ZN5daisy10DaisyPetalD2Ev,"axG",%progbits,_ZN5daisy10DaisyPetalD5Ev,comdat
  49              		.align	1
  50              		.p2align 2,,3
  51              		.weak	_ZN5daisy10DaisyPetalD2Ev
  52              		.syntax unified
  53              		.thumb
  54              		.thumb_func
  56              	_ZN5daisy10DaisyPetalD2Ev:
  57              	.LVL1:
  58              	.LFB2541:
  59              		.file 3 "../../libDaisy//src/daisy_petal.h"
   1:../../libDaisy//src/daisy_petal.h **** #pragma once
   2:../../libDaisy//src/daisy_petal.h **** #ifndef DSY_PETAL_H
   3:../../libDaisy//src/daisy_petal.h **** #define DSY_PETAL_H /**< & */
   4:../../libDaisy//src/daisy_petal.h **** 
   5:../../libDaisy//src/daisy_petal.h **** #include "daisy_seed.h"
   6:../../libDaisy//src/daisy_petal.h **** 
   7:../../libDaisy//src/daisy_petal.h **** namespace daisy
   8:../../libDaisy//src/daisy_petal.h **** {
ARM GAS  /var/folders/fs/ht5wlc7s7b56r9p0ngl7ssgc0000gn/T//ccHBcJ2G.s 			page 3


   9:../../libDaisy//src/daisy_petal.h **** /**
  10:../../libDaisy//src/daisy_petal.h ****    @brief Helpers and hardware definitions for daisy petal.
  11:../../libDaisy//src/daisy_petal.h ****    @ingroup boards
  12:../../libDaisy//src/daisy_petal.h **** */
  13:../../libDaisy//src/daisy_petal.h **** class DaisyPetal
  14:../../libDaisy//src/daisy_petal.h **** {
  15:../../libDaisy//src/daisy_petal.h ****   public:
  16:../../libDaisy//src/daisy_petal.h ****     /** Switches */
  17:../../libDaisy//src/daisy_petal.h ****     enum Sw
  18:../../libDaisy//src/daisy_petal.h ****     {
  19:../../libDaisy//src/daisy_petal.h ****         SW_1,    /**< Footswitch */
  20:../../libDaisy//src/daisy_petal.h ****         SW_2,    /**< Footswitch */
  21:../../libDaisy//src/daisy_petal.h ****         SW_3,    /**< Footswitch */
  22:../../libDaisy//src/daisy_petal.h ****         SW_4,    /**< Footswitch */
  23:../../libDaisy//src/daisy_petal.h ****         SW_5,    /**< Toggle */
  24:../../libDaisy//src/daisy_petal.h ****         SW_6,    /**< Toggle */
  25:../../libDaisy//src/daisy_petal.h ****         SW_7,    /**< Toggle */
  26:../../libDaisy//src/daisy_petal.h ****         SW_LAST, /**< Last enum item */
  27:../../libDaisy//src/daisy_petal.h ****     };
  28:../../libDaisy//src/daisy_petal.h **** 
  29:../../libDaisy//src/daisy_petal.h ****     /** Knobs */
  30:../../libDaisy//src/daisy_petal.h ****     enum Knob
  31:../../libDaisy//src/daisy_petal.h ****     {
  32:../../libDaisy//src/daisy_petal.h ****         KNOB_1,    /**< & */
  33:../../libDaisy//src/daisy_petal.h ****         KNOB_2,    /**< & */
  34:../../libDaisy//src/daisy_petal.h ****         KNOB_3,    /**< & */
  35:../../libDaisy//src/daisy_petal.h ****         KNOB_4,    /**< & */
  36:../../libDaisy//src/daisy_petal.h ****         KNOB_5,    /**< & */
  37:../../libDaisy//src/daisy_petal.h ****         KNOB_6,    /**< & */
  38:../../libDaisy//src/daisy_petal.h ****         KNOB_LAST, /**< & */
  39:../../libDaisy//src/daisy_petal.h ****     };
  40:../../libDaisy//src/daisy_petal.h **** 
  41:../../libDaisy//src/daisy_petal.h ****     /** Leds in ringled */
  42:../../libDaisy//src/daisy_petal.h ****     enum RingLed
  43:../../libDaisy//src/daisy_petal.h ****     {
  44:../../libDaisy//src/daisy_petal.h ****         RING_LED_1,   /**< & */
  45:../../libDaisy//src/daisy_petal.h ****         RING_LED_2,   /**< & */
  46:../../libDaisy//src/daisy_petal.h ****         RING_LED_3,   /**< & */
  47:../../libDaisy//src/daisy_petal.h ****         RING_LED_4,   /**< & */
  48:../../libDaisy//src/daisy_petal.h ****         RING_LED_5,   /**< & */
  49:../../libDaisy//src/daisy_petal.h ****         RING_LED_6,   /**< & */
  50:../../libDaisy//src/daisy_petal.h ****         RING_LED_7,   /**< & */
  51:../../libDaisy//src/daisy_petal.h ****         RING_LED_8,   /**< & */
  52:../../libDaisy//src/daisy_petal.h ****         RING_LED_LAST /**< & */
  53:../../libDaisy//src/daisy_petal.h ****     };
  54:../../libDaisy//src/daisy_petal.h **** 
  55:../../libDaisy//src/daisy_petal.h ****     /** footswitch leds */
  56:../../libDaisy//src/daisy_petal.h ****     enum FootswitchLed
  57:../../libDaisy//src/daisy_petal.h ****     {
  58:../../libDaisy//src/daisy_petal.h ****         FOOTSWITCH_LED_1,    /**< & */
  59:../../libDaisy//src/daisy_petal.h ****         FOOTSWITCH_LED_2,    /**< & */
  60:../../libDaisy//src/daisy_petal.h ****         FOOTSWITCH_LED_3,    /**< & */
  61:../../libDaisy//src/daisy_petal.h ****         FOOTSWITCH_LED_4,    /**< & */
  62:../../libDaisy//src/daisy_petal.h ****         FOOTSWITCH_LED_LAST, /**< & */
  63:../../libDaisy//src/daisy_petal.h ****     };
  64:../../libDaisy//src/daisy_petal.h **** 
  65:../../libDaisy//src/daisy_petal.h ****     /** Constructor */
ARM GAS  /var/folders/fs/ht5wlc7s7b56r9p0ngl7ssgc0000gn/T//ccHBcJ2G.s 			page 4


  66:../../libDaisy//src/daisy_petal.h ****     DaisyPetal() {}
  67:../../libDaisy//src/daisy_petal.h ****     /** Destructor */
  68:../../libDaisy//src/daisy_petal.h ****     ~DaisyPetal() {}
  60              		.loc 3 68 5 is_stmt 1 view -0
  61              		.cfi_startproc
  62              		@ args = 0, pretend = 0, frame = 0
  63              		@ frame_needed = 0, uses_anonymous_args = 0
  64              		@ link register save eliminated.
  65              	.LBB267:
  66              	.LBI267:
  67              		.loc 2 23 5 view .LVU5
  68              		.loc 2 23 5 is_stmt 0 view .LVU6
  69              	.LBE267:
  70              	.LBB268:
  71              	.LBI268:
  72              		.file 4 "../../libDaisy//src/hid/encoder.h"
   1:../../libDaisy//src/hid/encoder.h **** #pragma once
   2:../../libDaisy//src/hid/encoder.h **** #ifndef DSY_ENCODER_H
   3:../../libDaisy//src/hid/encoder.h **** #define DSY_ENCODER_H
   4:../../libDaisy//src/hid/encoder.h **** #include "daisy_core.h"
   5:../../libDaisy//src/hid/encoder.h **** #include "per/gpio.h"
   6:../../libDaisy//src/hid/encoder.h **** #include "hid/switch.h"
   7:../../libDaisy//src/hid/encoder.h **** 
   8:../../libDaisy//src/hid/encoder.h **** namespace daisy
   9:../../libDaisy//src/hid/encoder.h **** {
  10:../../libDaisy//src/hid/encoder.h **** /** 
  11:../../libDaisy//src/hid/encoder.h ****     @brief Generic Class for handling Quadrature Encoders \n 
  12:../../libDaisy//src/hid/encoder.h ****     Inspired/influenced by Mutable Instruments (pichenettes) Encoder classes
  13:../../libDaisy//src/hid/encoder.h ****     @author Stephen Hensley
  14:../../libDaisy//src/hid/encoder.h ****     @date December 2019
  15:../../libDaisy//src/hid/encoder.h ****     @ingroup controls
  16:../../libDaisy//src/hid/encoder.h **** */
  17:../../libDaisy//src/hid/encoder.h **** class Encoder
  18:../../libDaisy//src/hid/encoder.h **** {
  19:../../libDaisy//src/hid/encoder.h ****   public:
  20:../../libDaisy//src/hid/encoder.h ****     Encoder() {}
  21:../../libDaisy//src/hid/encoder.h ****     ~Encoder() {}
  73              		.loc 4 21 5 is_stmt 1 view .LVU7
  74              	.LBB269:
  75              	.LBI269:
  76              		.file 5 "../../libDaisy//src/hid/switch.h"
   1:../../libDaisy//src/hid/switch.h **** #pragma once
   2:../../libDaisy//src/hid/switch.h **** #ifndef DSY_SWITCH_H
   3:../../libDaisy//src/hid/switch.h **** #define DSY_SWITCH_H
   4:../../libDaisy//src/hid/switch.h **** #include "daisy_core.h"
   5:../../libDaisy//src/hid/switch.h **** #include "per/gpio.h"
   6:../../libDaisy//src/hid/switch.h **** #include "sys/system.h"
   7:../../libDaisy//src/hid/switch.h **** 
   8:../../libDaisy//src/hid/switch.h **** namespace daisy
   9:../../libDaisy//src/hid/switch.h **** {
  10:../../libDaisy//src/hid/switch.h **** /** 
  11:../../libDaisy//src/hid/switch.h ****     Generic Class for handling momentary/latching switches \n 
  12:../../libDaisy//src/hid/switch.h ****     Inspired/influenced by Mutable Instruments (pichenettes) Switch classes
  13:../../libDaisy//src/hid/switch.h ****     @author Stephen Hensley
  14:../../libDaisy//src/hid/switch.h ****     @date December 2019
  15:../../libDaisy//src/hid/switch.h ****     @ingroup controls
  16:../../libDaisy//src/hid/switch.h **** */
ARM GAS  /var/folders/fs/ht5wlc7s7b56r9p0ngl7ssgc0000gn/T//ccHBcJ2G.s 			page 5


  17:../../libDaisy//src/hid/switch.h **** class Switch
  18:../../libDaisy//src/hid/switch.h **** {
  19:../../libDaisy//src/hid/switch.h ****   public:
  20:../../libDaisy//src/hid/switch.h ****     /** Specifies the expected behavior of the switch */
  21:../../libDaisy//src/hid/switch.h ****     enum Type
  22:../../libDaisy//src/hid/switch.h ****     {
  23:../../libDaisy//src/hid/switch.h ****         TYPE_TOGGLE,    /**< & */
  24:../../libDaisy//src/hid/switch.h ****         TYPE_MOMENTARY, /**< & */
  25:../../libDaisy//src/hid/switch.h ****     };
  26:../../libDaisy//src/hid/switch.h ****     /** Specifies whether the pressed is HIGH or LOW. */
  27:../../libDaisy//src/hid/switch.h ****     enum Polarity
  28:../../libDaisy//src/hid/switch.h ****     {
  29:../../libDaisy//src/hid/switch.h ****         POLARITY_NORMAL,   /**< & */
  30:../../libDaisy//src/hid/switch.h ****         POLARITY_INVERTED, /**< & */
  31:../../libDaisy//src/hid/switch.h ****     };
  32:../../libDaisy//src/hid/switch.h **** 
  33:../../libDaisy//src/hid/switch.h ****     /** Specifies whether to use built-in Pull Up/Down resistors to hold button at a given state wh
  34:../../libDaisy//src/hid/switch.h ****     enum Pull
  35:../../libDaisy//src/hid/switch.h ****     {
  36:../../libDaisy//src/hid/switch.h ****         PULL_UP,   /**< & */
  37:../../libDaisy//src/hid/switch.h ****         PULL_DOWN, /**< & */
  38:../../libDaisy//src/hid/switch.h ****         PULL_NONE, /**< & */
  39:../../libDaisy//src/hid/switch.h ****     };
  40:../../libDaisy//src/hid/switch.h **** 
  41:../../libDaisy//src/hid/switch.h ****     Switch() {}
  42:../../libDaisy//src/hid/switch.h ****     ~Switch() {}
  77              		.loc 5 42 5 view .LVU8
  78              		.loc 5 42 5 is_stmt 0 view .LVU9
  79              	.LBE269:
  80              	.LBE268:
  81              	.LBB270:
  82              	.LBI270:
  83              		.file 6 "../../libDaisy//src/daisy_seed.h"
   1:../../libDaisy//src/daisy_seed.h **** #pragma once
   2:../../libDaisy//src/daisy_seed.h **** #ifndef DSY_SEED_H
   3:../../libDaisy//src/daisy_seed.h **** #define DSY_SEED_H
   4:../../libDaisy//src/daisy_seed.h **** 
   5:../../libDaisy//src/daisy_seed.h **** #include "daisy.h"
   6:../../libDaisy//src/daisy_seed.h **** 
   7:../../libDaisy//src/daisy_seed.h **** //Uncomment this out if you're still using the rev2 hardware
   8:../../libDaisy//src/daisy_seed.h **** //#define SEED_REV2
   9:../../libDaisy//src/daisy_seed.h **** 
  10:../../libDaisy//src/daisy_seed.h **** namespace daisy
  11:../../libDaisy//src/daisy_seed.h **** {
  12:../../libDaisy//src/daisy_seed.h **** /**
  13:../../libDaisy//src/daisy_seed.h ****    @brief This is the higher-level interface for the Daisy board. \n 
  14:../../libDaisy//src/daisy_seed.h ****     All basic peripheral configuration/initialization is setup here. \n
  15:../../libDaisy//src/daisy_seed.h **** 
  16:../../libDaisy//src/daisy_seed.h ****    @ingroup boards
  17:../../libDaisy//src/daisy_seed.h **** */
  18:../../libDaisy//src/daisy_seed.h **** class DaisySeed
  19:../../libDaisy//src/daisy_seed.h **** {
  20:../../libDaisy//src/daisy_seed.h ****   public:
  21:../../libDaisy//src/daisy_seed.h ****     DaisySeed() {}
  22:../../libDaisy//src/daisy_seed.h ****     ~DaisySeed() {}
  84              		.loc 6 22 5 is_stmt 1 view .LVU10
  85              	.LBB271:
ARM GAS  /var/folders/fs/ht5wlc7s7b56r9p0ngl7ssgc0000gn/T//ccHBcJ2G.s 			page 6


  86              	.LBI271:
  87              		.file 7 "../../libDaisy//src/sys/system.h"
   1:../../libDaisy//src/sys/system.h **** #ifndef DSY_SYSTEM_H
   2:../../libDaisy//src/sys/system.h **** #define DSY_SYSTEM_H
   3:../../libDaisy//src/sys/system.h **** 
   4:../../libDaisy//src/sys/system.h **** #ifndef UNIT_TEST // for unit tests, a dummy implementation is provided below
   5:../../libDaisy//src/sys/system.h **** 
   6:../../libDaisy//src/sys/system.h **** #include <cstdint>
   7:../../libDaisy//src/sys/system.h **** #include "per/tim.h"
   8:../../libDaisy//src/sys/system.h **** 
   9:../../libDaisy//src/sys/system.h **** namespace daisy
  10:../../libDaisy//src/sys/system.h **** {
  11:../../libDaisy//src/sys/system.h **** /** A handle for interacting with the Core System. 
  12:../../libDaisy//src/sys/system.h ****  ** This includes the Clock tree, MPU, global DMA initialization,
  13:../../libDaisy//src/sys/system.h ****  ** cache handling, and any other necessary global initiailzation
  14:../../libDaisy//src/sys/system.h ****  **
  15:../../libDaisy//src/sys/system.h ****  ** @author shensley
  16:../../libDaisy//src/sys/system.h ****  ** @ingroup system
  17:../../libDaisy//src/sys/system.h ****  */
  18:../../libDaisy//src/sys/system.h **** class System
  19:../../libDaisy//src/sys/system.h **** {
  20:../../libDaisy//src/sys/system.h ****   public:
  21:../../libDaisy//src/sys/system.h ****     /** Contains settings for initializing the System */
  22:../../libDaisy//src/sys/system.h ****     struct Config
  23:../../libDaisy//src/sys/system.h ****     {
  24:../../libDaisy//src/sys/system.h ****         /** Specifies the system clock frequency that feeds APB/AHB clocks, etc. */
  25:../../libDaisy//src/sys/system.h ****         enum class SysClkFreq
  26:../../libDaisy//src/sys/system.h ****         {
  27:../../libDaisy//src/sys/system.h ****             FREQ_400MHZ,
  28:../../libDaisy//src/sys/system.h ****             FREQ_480MHZ,
  29:../../libDaisy//src/sys/system.h ****         };
  30:../../libDaisy//src/sys/system.h **** 
  31:../../libDaisy//src/sys/system.h ****         /** Method to call on the struct to set to defaults
  32:../../libDaisy//src/sys/system.h ****          ** CPU Freq set to 400MHz
  33:../../libDaisy//src/sys/system.h ****          ** Cache Enabled 
  34:../../libDaisy//src/sys/system.h ****          ** */
  35:../../libDaisy//src/sys/system.h ****         void Defaults()
  36:../../libDaisy//src/sys/system.h ****         {
  37:../../libDaisy//src/sys/system.h ****             cpu_freq    = SysClkFreq::FREQ_400MHZ;
  38:../../libDaisy//src/sys/system.h ****             use_dcache  = true;
  39:../../libDaisy//src/sys/system.h ****             use_icache  = true;
  40:../../libDaisy//src/sys/system.h ****             skip_clocks = false;
  41:../../libDaisy//src/sys/system.h ****         }
  42:../../libDaisy//src/sys/system.h **** 
  43:../../libDaisy//src/sys/system.h ****         /** Method to call on the struct to set to boost mode:
  44:../../libDaisy//src/sys/system.h ****          ** CPU Freq set to 480MHz
  45:../../libDaisy//src/sys/system.h ****          ** Cache Enabled 
  46:../../libDaisy//src/sys/system.h ****          ** */
  47:../../libDaisy//src/sys/system.h ****         void Boost()
  48:../../libDaisy//src/sys/system.h ****         {
  49:../../libDaisy//src/sys/system.h ****             cpu_freq    = SysClkFreq::FREQ_480MHZ;
  50:../../libDaisy//src/sys/system.h ****             use_dcache  = true;
  51:../../libDaisy//src/sys/system.h ****             use_icache  = true;
  52:../../libDaisy//src/sys/system.h ****             skip_clocks = false;
  53:../../libDaisy//src/sys/system.h ****         }
  54:../../libDaisy//src/sys/system.h **** 
  55:../../libDaisy//src/sys/system.h ****         SysClkFreq cpu_freq;
ARM GAS  /var/folders/fs/ht5wlc7s7b56r9p0ngl7ssgc0000gn/T//ccHBcJ2G.s 			page 7


  56:../../libDaisy//src/sys/system.h ****         bool       use_dcache;
  57:../../libDaisy//src/sys/system.h ****         bool       use_icache;
  58:../../libDaisy//src/sys/system.h ****         bool       skip_clocks;
  59:../../libDaisy//src/sys/system.h ****     };
  60:../../libDaisy//src/sys/system.h **** 
  61:../../libDaisy//src/sys/system.h ****     /** Describes the different regions of memory available to the Daisy
  62:../../libDaisy//src/sys/system.h ****      * 
  63:../../libDaisy//src/sys/system.h ****      */
  64:../../libDaisy//src/sys/system.h ****     enum MemoryRegion
  65:../../libDaisy//src/sys/system.h ****     {
  66:../../libDaisy//src/sys/system.h ****         INTERNAL_FLASH = 0,
  67:../../libDaisy//src/sys/system.h ****         ITCMRAM,
  68:../../libDaisy//src/sys/system.h ****         DTCMRAM,
  69:../../libDaisy//src/sys/system.h ****         SRAM_D1,
  70:../../libDaisy//src/sys/system.h ****         SRAM_D2,
  71:../../libDaisy//src/sys/system.h ****         SRAM_D3,
  72:../../libDaisy//src/sys/system.h ****         SDRAM,
  73:../../libDaisy//src/sys/system.h ****         QSPI,
  74:../../libDaisy//src/sys/system.h ****         INVALID_ADDRESS,
  75:../../libDaisy//src/sys/system.h ****     };
  76:../../libDaisy//src/sys/system.h **** 
  77:../../libDaisy//src/sys/system.h ****     System() {}
  78:../../libDaisy//src/sys/system.h ****     ~System() {}
  88              		.loc 7 78 5 view .LVU11
  89              		.loc 7 78 5 is_stmt 0 view .LVU12
  90              	.LBE271:
  91              	.LBB272:
  92              	.LBI272:
  93              		.file 8 "../../libDaisy//src/hid/usb.h"
   1:../../libDaisy//src/hid/usb.h **** #pragma once
   2:../../libDaisy//src/hid/usb.h **** #ifndef DSY_HID_USB_H
   3:../../libDaisy//src/hid/usb.h **** #define DSY_HID_USB_H
   4:../../libDaisy//src/hid/usb.h **** #include <stdint.h>
   5:../../libDaisy//src/hid/usb.h **** #include <stdlib.h>
   6:../../libDaisy//src/hid/usb.h **** 
   7:../../libDaisy//src/hid/usb.h **** namespace daisy
   8:../../libDaisy//src/hid/usb.h **** /** @addtogroup human_interface
   9:../../libDaisy//src/hid/usb.h ****     @{
  10:../../libDaisy//src/hid/usb.h **** */
  11:../../libDaisy//src/hid/usb.h **** 
  12:../../libDaisy//src/hid/usb.h **** {
  13:../../libDaisy//src/hid/usb.h **** /** 
  14:../../libDaisy//src/hid/usb.h ****     @brief Interface for initializing and using the USB Peripherals on the daisy
  15:../../libDaisy//src/hid/usb.h ****     @author Stephen Hensley
  16:../../libDaisy//src/hid/usb.h ****     @date December 2019
  17:../../libDaisy//src/hid/usb.h **** */
  18:../../libDaisy//src/hid/usb.h **** class UsbHandle
  19:../../libDaisy//src/hid/usb.h **** {
  20:../../libDaisy//src/hid/usb.h ****   public:
  21:../../libDaisy//src/hid/usb.h ****     /** Return values for USBHandle Functions */
  22:../../libDaisy//src/hid/usb.h ****     enum class Result
  23:../../libDaisy//src/hid/usb.h ****     {
  24:../../libDaisy//src/hid/usb.h ****         OK,
  25:../../libDaisy//src/hid/usb.h ****         ERR,
  26:../../libDaisy//src/hid/usb.h ****     };
  27:../../libDaisy//src/hid/usb.h **** 
  28:../../libDaisy//src/hid/usb.h ****     /** Specified which of the two USB Peripherals to initialize. */
ARM GAS  /var/folders/fs/ht5wlc7s7b56r9p0ngl7ssgc0000gn/T//ccHBcJ2G.s 			page 8


  29:../../libDaisy//src/hid/usb.h ****     enum UsbPeriph
  30:../../libDaisy//src/hid/usb.h ****     {
  31:../../libDaisy//src/hid/usb.h ****         FS_INTERNAL, /**< Internal pin */
  32:../../libDaisy//src/hid/usb.h ****         FS_EXTERNAL, /**< FS External D+ pin is Pin 38 (GPIO32). FS External D- pin is Pin 37 (GPIO
  33:../../libDaisy//src/hid/usb.h ****         FS_BOTH,     /**< Both */
  34:../../libDaisy//src/hid/usb.h ****     };
  35:../../libDaisy//src/hid/usb.h **** 
  36:../../libDaisy//src/hid/usb.h **** 
  37:../../libDaisy//src/hid/usb.h ****     /** Function called upon reception of a buffer */
  38:../../libDaisy//src/hid/usb.h ****     typedef void (*ReceiveCallback)(uint8_t* buff, uint32_t* len);
  39:../../libDaisy//src/hid/usb.h **** 
  40:../../libDaisy//src/hid/usb.h ****     UsbHandle() {}
  41:../../libDaisy//src/hid/usb.h **** 
  42:../../libDaisy//src/hid/usb.h ****     ~UsbHandle() {}
  94              		.loc 8 42 5 is_stmt 1 view .LVU13
  95              		.loc 8 42 5 is_stmt 0 view .LVU14
  96              	.LBE272:
  97              	.LBB273:
  98              	.LBI273:
  99              		.file 9 "../../libDaisy//src/per/adc.h"
   1:../../libDaisy//src/per/adc.h **** #pragma once
   2:../../libDaisy//src/per/adc.h **** #ifndef DSY_ADC_H
   3:../../libDaisy//src/per/adc.h **** #define DSY_ADC_H /**< Macro */
   4:../../libDaisy//src/per/adc.h **** #include <stdint.h>
   5:../../libDaisy//src/per/adc.h **** #include <stdlib.h>
   6:../../libDaisy//src/per/adc.h **** #include "daisy_core.h"
   7:../../libDaisy//src/per/adc.h **** #include "per/gpio.h"
   8:../../libDaisy//src/per/adc.h **** 
   9:../../libDaisy//src/per/adc.h **** #define DSY_ADC_MAX_CHANNELS 16 /**< Maximum number of ADC channels */
  10:../../libDaisy//src/per/adc.h **** 
  11:../../libDaisy//src/per/adc.h **** namespace daisy
  12:../../libDaisy//src/per/adc.h **** {
  13:../../libDaisy//src/per/adc.h **** /** @addtogroup per_analog
  14:../../libDaisy//src/per/adc.h ****     @{
  15:../../libDaisy//src/per/adc.h **** */
  16:../../libDaisy//src/per/adc.h **** 
  17:../../libDaisy//src/per/adc.h **** /* While there may not be many configuration options here,
  18:../../libDaisy//src/per/adc.h **** using a struct like this allows us to add more configuration
  19:../../libDaisy//src/per/adc.h **** later without breaking existing functionality.
  20:../../libDaisy//src/per/adc.h **** */
  21:../../libDaisy//src/per/adc.h **** 
  22:../../libDaisy//src/per/adc.h **** /** @brief   Configuration Structure for an ADC Channel 
  23:../../libDaisy//src/per/adc.h ****  *  @details This can be used to configure a a single input, 
  24:../../libDaisy//src/per/adc.h ****  *           or a multiplexed input, allowing up to 8 inputs on 
  25:../../libDaisy//src/per/adc.h ****  *           one channel.
  26:../../libDaisy//src/per/adc.h ****  *  @note    Sharing data lines to multiple muxes _is_ possible, but
  27:../../libDaisy//src/per/adc.h ****  *           each channel sharing data lines must be set to the maximum
  28:../../libDaisy//src/per/adc.h ****  *           number of channels, even if some multiplexers have fewer
  29:../../libDaisy//src/per/adc.h ****  *           inputs connected.
  30:../../libDaisy//src/per/adc.h **** */
  31:../../libDaisy//src/per/adc.h **** struct AdcChannelConfig
  32:../../libDaisy//src/per/adc.h **** {
  33:../../libDaisy//src/per/adc.h ****     /** Which pin to use for multiplexing */
  34:../../libDaisy//src/per/adc.h ****     enum MuxPin
  35:../../libDaisy//src/per/adc.h ****     {
  36:../../libDaisy//src/per/adc.h ****         MUX_SEL_0,    /**< & */
  37:../../libDaisy//src/per/adc.h ****         MUX_SEL_1,    /**< & */
ARM GAS  /var/folders/fs/ht5wlc7s7b56r9p0ngl7ssgc0000gn/T//ccHBcJ2G.s 			page 9


  38:../../libDaisy//src/per/adc.h ****         MUX_SEL_2,    /**< & */
  39:../../libDaisy//src/per/adc.h ****         MUX_SEL_LAST, /**< & */
  40:../../libDaisy//src/per/adc.h ****     };
  41:../../libDaisy//src/per/adc.h **** 
  42:../../libDaisy//src/per/adc.h ****     /** Initializes a single ADC pin as an ADC. 
  43:../../libDaisy//src/per/adc.h ****     \param pin Pin to init.
  44:../../libDaisy//src/per/adc.h ****      */
  45:../../libDaisy//src/per/adc.h ****     void InitSingle(dsy_gpio_pin pin);
  46:../../libDaisy//src/per/adc.h **** 
  47:../../libDaisy//src/per/adc.h ****     /** 
  48:../../libDaisy//src/per/adc.h ****     Initializes a single ADC pin as a Multiplexed ADC.
  49:../../libDaisy//src/per/adc.h ****     Requires a CD405X Multiplexer connected to the pin.
  50:../../libDaisy//src/per/adc.h ****     You only need to supply the mux pins that are required,
  51:../../libDaisy//src/per/adc.h ****     e.g. a 4052 mux would only require mux_0 and mux_1.
  52:../../libDaisy//src/per/adc.h ****     Internal Callbacks handle the pin addressing.
  53:../../libDaisy//src/per/adc.h ****     \param mux_channels must be 1-8
  54:../../libDaisy//src/per/adc.h ****     \param mux_0 First mux pin
  55:../../libDaisy//src/per/adc.h ****     \param mux_1 Second mux pin
  56:../../libDaisy//src/per/adc.h ****     \param mux_2 Third mux pin
  57:../../libDaisy//src/per/adc.h ****     \param adc_pin &
  58:../../libDaisy//src/per/adc.h ****     */
  59:../../libDaisy//src/per/adc.h ****     void InitMux(dsy_gpio_pin adc_pin,
  60:../../libDaisy//src/per/adc.h ****                  size_t       mux_channels,
  61:../../libDaisy//src/per/adc.h ****                  dsy_gpio_pin mux_0,
  62:../../libDaisy//src/per/adc.h ****                  dsy_gpio_pin mux_1 = {DSY_GPIOX, 0},
  63:../../libDaisy//src/per/adc.h ****                  dsy_gpio_pin mux_2 = {DSY_GPIOX, 0});
  64:../../libDaisy//src/per/adc.h **** 
  65:../../libDaisy//src/per/adc.h ****     dsy_gpio pin_;                   /**< & */
  66:../../libDaisy//src/per/adc.h ****     dsy_gpio mux_pin_[MUX_SEL_LAST]; /**< & */
  67:../../libDaisy//src/per/adc.h ****     uint8_t  mux_channels_;          /**< & */
  68:../../libDaisy//src/per/adc.h **** };
  69:../../libDaisy//src/per/adc.h **** 
  70:../../libDaisy//src/per/adc.h **** /**
  71:../../libDaisy//src/per/adc.h ****    @brief Handler for analog to digital conversion
  72:../../libDaisy//src/per/adc.h **** */
  73:../../libDaisy//src/per/adc.h **** class AdcHandle
  74:../../libDaisy//src/per/adc.h **** {
  75:../../libDaisy//src/per/adc.h ****   public:
  76:../../libDaisy//src/per/adc.h ****     /** Supported oversampling amounts */
  77:../../libDaisy//src/per/adc.h ****     enum OverSampling
  78:../../libDaisy//src/per/adc.h ****     {
  79:../../libDaisy//src/per/adc.h ****         OVS_NONE, /**< & */
  80:../../libDaisy//src/per/adc.h ****         OVS_4,    /**< & */
  81:../../libDaisy//src/per/adc.h ****         OVS_8,    /**< & */
  82:../../libDaisy//src/per/adc.h ****         OVS_16,   /**< & */
  83:../../libDaisy//src/per/adc.h ****         OVS_32,   /**< & */
  84:../../libDaisy//src/per/adc.h ****         OVS_64,   /**< & */
  85:../../libDaisy//src/per/adc.h ****         OVS_128,  /**< & */
  86:../../libDaisy//src/per/adc.h ****         OVS_256,  /**< & */
  87:../../libDaisy//src/per/adc.h ****         OVS_512,  /**< & */
  88:../../libDaisy//src/per/adc.h ****         OVS_1024, /**< & */
  89:../../libDaisy//src/per/adc.h ****         OVS_LAST, /**< & */
  90:../../libDaisy//src/per/adc.h ****     };
  91:../../libDaisy//src/per/adc.h **** 
  92:../../libDaisy//src/per/adc.h ****     AdcHandle() {}
  93:../../libDaisy//src/per/adc.h ****     ~AdcHandle() {}
 100              		.loc 9 93 5 is_stmt 1 view .LVU15
ARM GAS  /var/folders/fs/ht5wlc7s7b56r9p0ngl7ssgc0000gn/T//ccHBcJ2G.s 			page 10


 101              		.loc 9 93 5 is_stmt 0 view .LVU16
 102              	.LBE273:
 103              	.LBB274:
 104              	.LBI274:
 105              		.file 10 "../../libDaisy//src/hid/audio.h"
   1:../../libDaisy//src/hid/audio.h **** #ifndef DSY_AUDIO_H
   2:../../libDaisy//src/hid/audio.h **** #define DSY_AUDIO_H /**< & */
   3:../../libDaisy//src/hid/audio.h **** 
   4:../../libDaisy//src/hid/audio.h **** #include "per/sai.h"
   5:../../libDaisy//src/hid/audio.h **** 
   6:../../libDaisy//src/hid/audio.h **** namespace daisy
   7:../../libDaisy//src/hid/audio.h **** {
   8:../../libDaisy//src/hid/audio.h **** /** @brief Audio Engine Handle
   9:../../libDaisy//src/hid/audio.h ****  *  @ingroup audio 
  10:../../libDaisy//src/hid/audio.h ****  *  @details This class allows for higher level access to an audio engine.
  11:../../libDaisy//src/hid/audio.h ****  *           If you're using a SOM like the DaisySeed or DaisyPatchSM (or any 
  12:../../libDaisy//src/hid/audio.h ****  *            board that includes one of those objects) then the intialization
  13:../../libDaisy//src/hid/audio.h ****  *            is already taken  care of.
  14:../../libDaisy//src/hid/audio.h ****  *           If you're setting up your own custom hardware, or need to make changes
  15:../../libDaisy//src/hid/audio.h ****  *           you will have to take the following steps:
  16:../../libDaisy//src/hid/audio.h ****  *             1. Create and Initialize an SaiHandle or two depending on your requirements
  17:../../libDaisy//src/hid/audio.h ****  *             2. Initialize the Audio Handle with the desired settings and the Initialized SaiHand
  18:../../libDaisy//src/hid/audio.h ****  *             3. If the connected codec requires special configuration or initialization, do so
  19:../../libDaisy//src/hid/audio.h ****  *             4. Write a callback method using either the AudioCallback or the InterleavingAudioCa
  20:../../libDaisy//src/hid/audio.h ****  *             5. Start the Audio using one of the StartAudio function
  21:../../libDaisy//src/hid/audio.h ****  */
  22:../../libDaisy//src/hid/audio.h **** class AudioHandle
  23:../../libDaisy//src/hid/audio.h **** {
  24:../../libDaisy//src/hid/audio.h ****   public:
  25:../../libDaisy//src/hid/audio.h ****     /** Manually configurable details about the Audio Engine */
  26:../../libDaisy//src/hid/audio.h ****     /** TODO: Figure out how to get samplerate in here. */
  27:../../libDaisy//src/hid/audio.h ****     struct Config
  28:../../libDaisy//src/hid/audio.h ****     {
  29:../../libDaisy//src/hid/audio.h ****         /** number of samples to process per callback */
  30:../../libDaisy//src/hid/audio.h ****         size_t blocksize;
  31:../../libDaisy//src/hid/audio.h **** 
  32:../../libDaisy//src/hid/audio.h ****         /**< Sample rate of audio */
  33:../../libDaisy//src/hid/audio.h ****         SaiHandle::Config::SampleRate samplerate;
  34:../../libDaisy//src/hid/audio.h **** 
  35:../../libDaisy//src/hid/audio.h ****         /** factor for adjustment before and after callback for hardware that may have extra headro
  36:../../libDaisy//src/hid/audio.h ****         float postgain;
  37:../../libDaisy//src/hid/audio.h **** 
  38:../../libDaisy//src/hid/audio.h ****         /** factor for additional one-sided compensation to audio path for hardware that may
  39:../../libDaisy//src/hid/audio.h ****          *  have unequal input/output ranges
  40:../../libDaisy//src/hid/audio.h ****          */
  41:../../libDaisy//src/hid/audio.h ****         float output_compensation;
  42:../../libDaisy//src/hid/audio.h **** 
  43:../../libDaisy//src/hid/audio.h ****         /** Sets default values for config struct */
  44:../../libDaisy//src/hid/audio.h ****         Config()
  45:../../libDaisy//src/hid/audio.h ****         : blocksize(48),
  46:../../libDaisy//src/hid/audio.h ****           samplerate(SaiHandle::Config::SampleRate::SAI_48KHZ),
  47:../../libDaisy//src/hid/audio.h ****           postgain(1.f),
  48:../../libDaisy//src/hid/audio.h ****           output_compensation(1.f)
  49:../../libDaisy//src/hid/audio.h ****         {
  50:../../libDaisy//src/hid/audio.h ****         }
  51:../../libDaisy//src/hid/audio.h ****     };
  52:../../libDaisy//src/hid/audio.h **** 
ARM GAS  /var/folders/fs/ht5wlc7s7b56r9p0ngl7ssgc0000gn/T//ccHBcJ2G.s 			page 11


  53:../../libDaisy//src/hid/audio.h ****     enum class Result
  54:../../libDaisy//src/hid/audio.h ****     {
  55:../../libDaisy//src/hid/audio.h ****         OK,
  56:../../libDaisy//src/hid/audio.h ****         ERR,
  57:../../libDaisy//src/hid/audio.h ****     };
  58:../../libDaisy//src/hid/audio.h **** 
  59:../../libDaisy//src/hid/audio.h ****     /** Non-Interleaving input buffer
  60:../../libDaisy//src/hid/audio.h ****      * Buffer arranged by float[chn][sample] 
  61:../../libDaisy//src/hid/audio.h ****      * const so that the user can't modify the input
  62:../../libDaisy//src/hid/audio.h ****      */
  63:../../libDaisy//src/hid/audio.h ****     typedef const float* const* InputBuffer;
  64:../../libDaisy//src/hid/audio.h **** 
  65:../../libDaisy//src/hid/audio.h ****     /** Non-Interleaving output buffer
  66:../../libDaisy//src/hid/audio.h ****      * Arranged by float[chn][sample] 
  67:../../libDaisy//src/hid/audio.h ****      */
  68:../../libDaisy//src/hid/audio.h ****     typedef float** OutputBuffer;
  69:../../libDaisy//src/hid/audio.h **** 
  70:../../libDaisy//src/hid/audio.h ****     /** Type for a Non-Interleaving audio callback 
  71:../../libDaisy//src/hid/audio.h ****      * Non-Interleaving audio callbacks in daisy will be of this type
  72:../../libDaisy//src/hid/audio.h ****      */
  73:../../libDaisy//src/hid/audio.h ****     typedef void (*AudioCallback)(InputBuffer  in,
  74:../../libDaisy//src/hid/audio.h ****                                   OutputBuffer out,
  75:../../libDaisy//src/hid/audio.h ****                                   size_t       size);
  76:../../libDaisy//src/hid/audio.h **** 
  77:../../libDaisy//src/hid/audio.h ****     /** Interleaving Input buffer
  78:../../libDaisy//src/hid/audio.h ****      ** audio is prepared as { L0, R0, L1, R1, . . . LN, RN }]
  79:../../libDaisy//src/hid/audio.h ****      ** this is const, as the user shouldn't modify it
  80:../../libDaisy//src/hid/audio.h ****     */
  81:../../libDaisy//src/hid/audio.h ****     typedef const float* InterleavingInputBuffer;
  82:../../libDaisy//src/hid/audio.h **** 
  83:../../libDaisy//src/hid/audio.h ****     /** Interleaving Output buffer 
  84:../../libDaisy//src/hid/audio.h ****      ** audio is prepared as { L0, R0, L1, R1, . . . LN, RN }
  85:../../libDaisy//src/hid/audio.h ****     */
  86:../../libDaisy//src/hid/audio.h ****     typedef float* InterleavingOutputBuffer;
  87:../../libDaisy//src/hid/audio.h **** 
  88:../../libDaisy//src/hid/audio.h ****     /** Interleaving Audio Callback 
  89:../../libDaisy//src/hid/audio.h ****      * Interleaving audio callbacks in daisy must be of this type
  90:../../libDaisy//src/hid/audio.h ****      */
  91:../../libDaisy//src/hid/audio.h ****     typedef void (*InterleavingAudioCallback)(InterleavingInputBuffer  in,
  92:../../libDaisy//src/hid/audio.h ****                                               InterleavingOutputBuffer out,
  93:../../libDaisy//src/hid/audio.h ****                                               size_t                   size);
  94:../../libDaisy//src/hid/audio.h **** 
  95:../../libDaisy//src/hid/audio.h ****     AudioHandle() : pimpl_(nullptr) {}
  96:../../libDaisy//src/hid/audio.h ****     ~AudioHandle() {}
 106              		.loc 10 96 5 is_stmt 1 view .LVU17
 107              		.loc 10 96 5 is_stmt 0 view .LVU18
 108              	.LBE274:
 109              	.LBE270:
 110              		.loc 3 68 20 view .LVU19
 111 0000 7047     		bx	lr
 112              		.cfi_endproc
 113              	.LFE2541:
 115              		.weak	_ZN5daisy10DaisyPetalD1Ev
 116              		.thumb_set _ZN5daisy10DaisyPetalD1Ev,_ZN5daisy10DaisyPetalD2Ev
 117 0002 00BF     		.section	.text._ZN7daisysp7BalanceD2Ev,"axG",%progbits,_ZN7daisysp7BalanceD5Ev,comdat
 118              		.align	1
 119              		.p2align 2,,3
ARM GAS  /var/folders/fs/ht5wlc7s7b56r9p0ngl7ssgc0000gn/T//ccHBcJ2G.s 			page 12


 120              		.weak	_ZN7daisysp7BalanceD2Ev
 121              		.syntax unified
 122              		.thumb
 123              		.thumb_func
 125              	_ZN7daisysp7BalanceD2Ev:
 126              	.LVL2:
 127              	.LFB4320:
 128              		.file 11 "../../DaisySP//Source/Dynamics/balance.h"
   1:../../DaisySP//Source/Dynamics/balance.h **** 
   2:../../DaisySP//Source/Dynamics/balance.h **** #pragma once
   3:../../DaisySP//Source/Dynamics/balance.h **** #ifndef DSY_BALANCE_H
   4:../../DaisySP//Source/Dynamics/balance.h **** #define DSY_BALANCE_H
   5:../../DaisySP//Source/Dynamics/balance.h **** 
   6:../../DaisySP//Source/Dynamics/balance.h **** #include <stdint.h>
   7:../../DaisySP//Source/Dynamics/balance.h **** #ifdef __cplusplus
   8:../../DaisySP//Source/Dynamics/balance.h **** 
   9:../../DaisySP//Source/Dynamics/balance.h **** namespace daisysp
  10:../../DaisySP//Source/Dynamics/balance.h **** {
  11:../../DaisySP//Source/Dynamics/balance.h **** /** Balances two sound sources. Sig is boosted to the level of comp.
  12:../../DaisySP//Source/Dynamics/balance.h **** 
  13:../../DaisySP//Source/Dynamics/balance.h ****     *Original author(s) : Barry Vercoe, john ffitch, Gabriel Maldonado
  14:../../DaisySP//Source/Dynamics/balance.h **** 
  15:../../DaisySP//Source/Dynamics/balance.h ****     *Year: 1991
  16:../../DaisySP//Source/Dynamics/balance.h **** 
  17:../../DaisySP//Source/Dynamics/balance.h ****     *Ported from soundpipe by Ben Sergentanis, May 2020
  18:../../DaisySP//Source/Dynamics/balance.h **** */
  19:../../DaisySP//Source/Dynamics/balance.h **** class Balance
  20:../../DaisySP//Source/Dynamics/balance.h **** {
  21:../../DaisySP//Source/Dynamics/balance.h ****   public:
  22:../../DaisySP//Source/Dynamics/balance.h ****     Balance() {}
  23:../../DaisySP//Source/Dynamics/balance.h ****     ~Balance() {}
 129              		.loc 11 23 5 is_stmt 1 view -0
 130              		.cfi_startproc
 131              		@ args = 0, pretend = 0, frame = 0
 132              		@ frame_needed = 0, uses_anonymous_args = 0
 133              		@ link register save eliminated.
 134              		.loc 11 23 17 is_stmt 0 view .LVU21
 135 0000 7047     		bx	lr
 136              		.cfi_endproc
 137              	.LFE4320:
 139              		.weak	_ZN7daisysp7BalanceD1Ev
 140              		.thumb_set _ZN7daisysp7BalanceD1Ev,_ZN7daisysp7BalanceD2Ev
 141 0002 00BF     		.section	.text._ZN7daisysp9CrossFadeD2Ev,"axG",%progbits,_ZN7daisysp9CrossFadeD5Ev,comdat
 142              		.align	1
 143              		.p2align 2,,3
 144              		.weak	_ZN7daisysp9CrossFadeD2Ev
 145              		.syntax unified
 146              		.thumb
 147              		.thumb_func
 149              	_ZN7daisysp9CrossFadeD2Ev:
 150              	.LVL3:
 151              	.LFB4352:
 152              		.file 12 "../../DaisySP//Source/Dynamics/crossfade.h"
   1:../../DaisySP//Source/Dynamics/crossfade.h **** #pragma once
   2:../../DaisySP//Source/Dynamics/crossfade.h **** #ifndef DSY_CROSSFADE_H
   3:../../DaisySP//Source/Dynamics/crossfade.h **** #define DSY_CROSSFADE_H
   4:../../DaisySP//Source/Dynamics/crossfade.h **** #include <stdint.h>
ARM GAS  /var/folders/fs/ht5wlc7s7b56r9p0ngl7ssgc0000gn/T//ccHBcJ2G.s 			page 13


   5:../../DaisySP//Source/Dynamics/crossfade.h **** #ifdef __cplusplus
   6:../../DaisySP//Source/Dynamics/crossfade.h **** 
   7:../../DaisySP//Source/Dynamics/crossfade.h **** namespace daisysp
   8:../../DaisySP//Source/Dynamics/crossfade.h **** {
   9:../../DaisySP//Source/Dynamics/crossfade.h **** /** Curve applied to the CrossFade
  10:../../DaisySP//Source/Dynamics/crossfade.h **** - LIN = linear
  11:../../DaisySP//Source/Dynamics/crossfade.h **** - CPOW = constant power
  12:../../DaisySP//Source/Dynamics/crossfade.h **** - LOG = logarithmic
  13:../../DaisySP//Source/Dynamics/crossfade.h **** - EXP  exponential
  14:../../DaisySP//Source/Dynamics/crossfade.h **** - LAST = end of enum (used for array indexing)
  15:../../DaisySP//Source/Dynamics/crossfade.h **** */
  16:../../DaisySP//Source/Dynamics/crossfade.h **** enum
  17:../../DaisySP//Source/Dynamics/crossfade.h **** {
  18:../../DaisySP//Source/Dynamics/crossfade.h ****     CROSSFADE_LIN,
  19:../../DaisySP//Source/Dynamics/crossfade.h ****     CROSSFADE_CPOW,
  20:../../DaisySP//Source/Dynamics/crossfade.h ****     CROSSFADE_LOG,
  21:../../DaisySP//Source/Dynamics/crossfade.h ****     CROSSFADE_EXP,
  22:../../DaisySP//Source/Dynamics/crossfade.h ****     CROSSFADE_LAST,
  23:../../DaisySP//Source/Dynamics/crossfade.h **** };
  24:../../DaisySP//Source/Dynamics/crossfade.h **** 
  25:../../DaisySP//Source/Dynamics/crossfade.h **** /** Performs a CrossFade between two signals
  26:../../DaisySP//Source/Dynamics/crossfade.h **** 
  27:../../DaisySP//Source/Dynamics/crossfade.h ****     Original author: Paul Batchelor
  28:../../DaisySP//Source/Dynamics/crossfade.h **** 
  29:../../DaisySP//Source/Dynamics/crossfade.h ****     Ported from Soundpipe by Andrew Ikenberry
  30:../../DaisySP//Source/Dynamics/crossfade.h **** 
  31:../../DaisySP//Source/Dynamics/crossfade.h ****     added curve option for constant power, etc.
  32:../../DaisySP//Source/Dynamics/crossfade.h **** */
  33:../../DaisySP//Source/Dynamics/crossfade.h **** class CrossFade
  34:../../DaisySP//Source/Dynamics/crossfade.h **** {
  35:../../DaisySP//Source/Dynamics/crossfade.h ****   public:
  36:../../DaisySP//Source/Dynamics/crossfade.h ****     CrossFade() {}
  37:../../DaisySP//Source/Dynamics/crossfade.h ****     ~CrossFade() {}
 153              		.loc 12 37 5 is_stmt 1 view -0
 154              		.cfi_startproc
 155              		@ args = 0, pretend = 0, frame = 0
 156              		@ frame_needed = 0, uses_anonymous_args = 0
 157              		@ link register save eliminated.
 158              		.loc 12 37 19 is_stmt 0 view .LVU23
 159 0000 7047     		bx	lr
 160              		.cfi_endproc
 161              	.LFE4352:
 163              		.weak	_ZN7daisysp9CrossFadeD1Ev
 164              		.thumb_set _ZN7daisysp9CrossFadeD1Ev,_ZN7daisysp9CrossFadeD2Ev
 165 0002 00BF     		.section	.text._ZN10ToneFilterD2Ev,"axG",%progbits,_ZN10ToneFilterD5Ev,comdat
 166              		.align	1
 167              		.p2align 2,,3
 168              		.weak	_ZN10ToneFilterD2Ev
 169              		.syntax unified
 170              		.thumb
 171              		.thumb_func
 173              	_ZN10ToneFilterD2Ev:
 174              	.LVL4:
 175              	.LFB5382:
 176              		.file 13 "ToneFilter.h"
   1:ToneFilter.h  **** #pragma once
   2:ToneFilter.h  **** #include "daisysp.h"
ARM GAS  /var/folders/fs/ht5wlc7s7b56r9p0ngl7ssgc0000gn/T//ccHBcJ2G.s 			page 14


   3:ToneFilter.h  **** #include "daisy_seed.h"
   4:ToneFilter.h  **** 
   5:ToneFilter.h  **** using namespace daisysp;
   6:ToneFilter.h  **** using namespace daisy;
   7:ToneFilter.h  **** using namespace daisy::seed;
   8:ToneFilter.h  **** 
   9:ToneFilter.h  **** class ToneFilter
 177              		.loc 13 9 7 is_stmt 1 view -0
 178              		.cfi_startproc
 179              		@ args = 0, pretend = 0, frame = 0
 180              		@ frame_needed = 0, uses_anonymous_args = 0
 181              		@ link register save eliminated.
 182              	.LBB275:
 183              	.LBI275:
 184              		.file 14 "../../DaisySP//Source/Filters/atone.h"
   1:../../DaisySP//Source/Filters/atone.h **** #pragma once
   2:../../DaisySP//Source/Filters/atone.h **** #ifndef DSY_ATONE_H
   3:../../DaisySP//Source/Filters/atone.h **** #define DSY_ATONE_H
   4:../../DaisySP//Source/Filters/atone.h **** 
   5:../../DaisySP//Source/Filters/atone.h **** #include <stdint.h>
   6:../../DaisySP//Source/Filters/atone.h **** #ifdef __cplusplus
   7:../../DaisySP//Source/Filters/atone.h **** 
   8:../../DaisySP//Source/Filters/atone.h **** namespace daisysp
   9:../../DaisySP//Source/Filters/atone.h **** {
  10:../../DaisySP//Source/Filters/atone.h **** /** A first-order recursive high-pass filter with variable frequency response.
  11:../../DaisySP//Source/Filters/atone.h ****      Original Author(s): Barry Vercoe, John FFitch, Gabriel Maldonado
  12:../../DaisySP//Source/Filters/atone.h **** 
  13:../../DaisySP//Source/Filters/atone.h ****      Year: 1991
  14:../../DaisySP//Source/Filters/atone.h **** 
  15:../../DaisySP//Source/Filters/atone.h ****      Original Location: Csound -- OOps/ugens5.c
  16:../../DaisySP//Source/Filters/atone.h **** 
  17:../../DaisySP//Source/Filters/atone.h ****      Ported from soundpipe by Ben Sergentanis, May 2020
  18:../../DaisySP//Source/Filters/atone.h ****     */
  19:../../DaisySP//Source/Filters/atone.h **** class ATone
  20:../../DaisySP//Source/Filters/atone.h **** {
  21:../../DaisySP//Source/Filters/atone.h ****   public:
  22:../../DaisySP//Source/Filters/atone.h ****     ATone() {}
  23:../../DaisySP//Source/Filters/atone.h ****     ~ATone() {}
 185              		.loc 14 23 5 view .LVU25
 186              		.loc 14 23 5 is_stmt 0 view .LVU26
 187              	.LBE275:
 188              	.LBB276:
 189              	.LBI276:
 190              		.file 15 "../../DaisySP//Source/Filters/tone.h"
   1:../../DaisySP//Source/Filters/tone.h **** #pragma once
   2:../../DaisySP//Source/Filters/tone.h **** #ifndef DSY_TONE_H
   3:../../DaisySP//Source/Filters/tone.h **** #define DSY_TONE_H
   4:../../DaisySP//Source/Filters/tone.h **** 
   5:../../DaisySP//Source/Filters/tone.h **** #include <stdint.h>
   6:../../DaisySP//Source/Filters/tone.h **** #ifdef __cplusplus
   7:../../DaisySP//Source/Filters/tone.h **** 
   8:../../DaisySP//Source/Filters/tone.h **** namespace daisysp
   9:../../DaisySP//Source/Filters/tone.h **** {
  10:../../DaisySP//Source/Filters/tone.h **** /** A first-order recursive low-pass filter with variable frequency response.
  11:../../DaisySP//Source/Filters/tone.h **** */
  12:../../DaisySP//Source/Filters/tone.h **** class Tone
  13:../../DaisySP//Source/Filters/tone.h **** {
ARM GAS  /var/folders/fs/ht5wlc7s7b56r9p0ngl7ssgc0000gn/T//ccHBcJ2G.s 			page 15


  14:../../DaisySP//Source/Filters/tone.h ****   public:
  15:../../DaisySP//Source/Filters/tone.h ****     Tone() {}
  16:../../DaisySP//Source/Filters/tone.h ****     ~Tone() {}
 191              		.loc 15 16 5 is_stmt 1 view .LVU27
 192              		.loc 15 16 5 is_stmt 0 view .LVU28
 193              	.LBE276:
 194              		.loc 13 9 7 view .LVU29
 195 0000 7047     		bx	lr
 196              		.cfi_endproc
 197              	.LFE5382:
 199              		.weak	_ZN10ToneFilterD1Ev
 200              		.thumb_set _ZN10ToneFilterD1Ev,_ZN10ToneFilterD2Ev
 201 0002 00BF     		.section	.text.__tcf_0,"ax",%progbits
 202              		.align	1
 203              		.p2align 2,,3
 204              		.syntax unified
 205              		.thumb
 206              		.thumb_func
 208              	__tcf_0:
 209              	.LFB5384:
 210              		.file 16 "Pedal.cpp"
   1:Pedal.cpp     **** #include "daisy_petal.h"
   2:Pedal.cpp     **** #include "daisysp.h"
   3:Pedal.cpp     **** #include "Terrarium.h"
   4:Pedal.cpp     **** #include "Delay.h"
   5:Pedal.cpp     **** #include "ToneFilter.h"
   6:Pedal.cpp     **** #include "TapTempo.h"
   7:Pedal.cpp     **** 
   8:Pedal.cpp     **** using namespace daisy;
   9:Pedal.cpp     **** using namespace daisysp;
  10:Pedal.cpp     **** using namespace terrarium;
  11:Pedal.cpp     **** 
  12:Pedal.cpp     **** 
  13:Pedal.cpp     **** DaisyPetal hw;
  14:Pedal.cpp     **** Delay delay;
  15:Pedal.cpp     **** Balance balance;
  16:Pedal.cpp     **** TapTempo tapTempo;
  17:Pedal.cpp     **** ToneFilter tone(48000.f);
  18:Pedal.cpp     **** static CrossFade crossFade;
  19:Pedal.cpp     **** DelayLine<float, MAX_DELAY> DSY_SDRAM_BSS delayMems[4];
 211              		.loc 16 19 43 is_stmt 1 view -0
 212              		.cfi_startproc
 213              		@ args = 0, pretend = 0, frame = 0
 214              		@ frame_needed = 0, uses_anonymous_args = 0
 215              		@ link register save eliminated.
 216              		.loc 16 19 43 is_stmt 0 view .LVU31
 217 0000 7047     		bx	lr
 218              		.cfi_endproc
 219              	.LFE5384:
 221 0002 00BF     		.section	.text._Z10initParamsv,"ax",%progbits
 222              		.align	1
 223              		.p2align 2,,3
 224              		.global	_Z10initParamsv
 225              		.syntax unified
 226              		.thumb
 227              		.thumb_func
 229              	_Z10initParamsv:
ARM GAS  /var/folders/fs/ht5wlc7s7b56r9p0ngl7ssgc0000gn/T//ccHBcJ2G.s 			page 16


 230              	.LFB4814:
  20:Pedal.cpp     **** 
  21:Pedal.cpp     **** Parameter toneParam;
  22:Pedal.cpp     **** Parameter bpmParam;
  23:Pedal.cpp     **** 
  24:Pedal.cpp     **** bool bypass = true;
  25:Pedal.cpp     **** float dryWet; 
  26:Pedal.cpp     **** float feedback;
  27:Pedal.cpp     **** float toneVal;
  28:Pedal.cpp     **** float bpm;
  29:Pedal.cpp     **** 
  30:Pedal.cpp     **** 
  31:Pedal.cpp     **** /**
  32:Pedal.cpp     ****  * @brief Initialize special parameters for the terrarium pedal knobs
  33:Pedal.cpp     ****  * (Mostly just setting min/max values)
  34:Pedal.cpp     ****  */
  35:Pedal.cpp     **** void initParams();
  36:Pedal.cpp     **** 
  37:Pedal.cpp     **** /**
  38:Pedal.cpp     ****  * @brief Processes all controls for the terrarium pedal
  39:Pedal.cpp     ****  * 
  40:Pedal.cpp     ****  */
  41:Pedal.cpp     **** void processControls();
  42:Pedal.cpp     **** 
  43:Pedal.cpp     **** void AudioCallback(AudioHandle::InputBuffer in, AudioHandle::OutputBuffer out, size_t size)
  44:Pedal.cpp     **** {
  45:Pedal.cpp     **** 	hw.ProcessAllControls();
  46:Pedal.cpp     **** 	processControls();
  47:Pedal.cpp     **** 	for (size_t i = 0; i < size; i++)
  48:Pedal.cpp     **** 	{
  49:Pedal.cpp     **** 		if(bypass)
  50:Pedal.cpp     **** 			out[0][i] = in[0][i];
  51:Pedal.cpp     **** 		else
  52:Pedal.cpp     **** 		{
  53:Pedal.cpp     **** 			// Needed for crossFade process
  54:Pedal.cpp     **** 			float nonConstInput = in[0][i];
  55:Pedal.cpp     **** 			float finalMix = 0;
  56:Pedal.cpp     **** 			float allDelaySignals = delay.process(in[0][i]);
  57:Pedal.cpp     **** 			float preFilterDelays = allDelaySignals;
  58:Pedal.cpp     **** 
  59:Pedal.cpp     **** 			allDelaySignals = tone.process(allDelaySignals);
  60:Pedal.cpp     ****             allDelaySignals = balance.Process(allDelaySignals,preFilterDelays*tone.getFactor());
  61:Pedal.cpp     **** 
  62:Pedal.cpp     **** 			finalMix = crossFade.Process(nonConstInput, allDelaySignals);
  63:Pedal.cpp     **** 
  64:Pedal.cpp     **** 
  65:Pedal.cpp     **** 
  66:Pedal.cpp     **** 			out[0][i] = finalMix;
  67:Pedal.cpp     **** 			
  68:Pedal.cpp     **** 		}
  69:Pedal.cpp     **** 			
  70:Pedal.cpp     **** 	}
  71:Pedal.cpp     **** }
  72:Pedal.cpp     **** 
  73:Pedal.cpp     **** int main(void)
  74:Pedal.cpp     **** {
  75:Pedal.cpp     **** 	hw.Init();
ARM GAS  /var/folders/fs/ht5wlc7s7b56r9p0ngl7ssgc0000gn/T//ccHBcJ2G.s 			page 17


  76:Pedal.cpp     **** 	hw.SetAudioBlockSize(4); // number of samples handled per callback
  77:Pedal.cpp     **** 	hw.SetAudioSampleRate(SaiHandle::Config::SampleRate::SAI_48KHZ);
  78:Pedal.cpp     **** 	hw.StartAdc();
  79:Pedal.cpp     **** 
  80:Pedal.cpp     **** 	delay.initDelay(delayMems);
  81:Pedal.cpp     **** 	delay.setBPM(90);
  82:Pedal.cpp     **** 	crossFade.Init();
  83:Pedal.cpp     **** 	crossFade.SetCurve(CROSSFADE_CPOW);
  84:Pedal.cpp     **** 	balance.Init(hw.AudioSampleRate());
  85:Pedal.cpp     **** 	initParams();
  86:Pedal.cpp     **** 
  87:Pedal.cpp     **** 	hw.StartAudio(AudioCallback);
  88:Pedal.cpp     **** 	while(1) {}
  89:Pedal.cpp     **** }
  90:Pedal.cpp     **** 
  91:Pedal.cpp     **** void initParams()
  92:Pedal.cpp     **** {
 231              		.loc 16 92 1 is_stmt 1 view -0
 232              		.cfi_startproc
 233              		@ args = 0, pretend = 0, frame = 32
 234              		@ frame_needed = 0, uses_anonymous_args = 0
  93:Pedal.cpp     **** 	toneParam.Init(hw.knob[Terrarium::KNOB_3], -1.0f, 1.0f, Parameter::LINEAR);
 235              		.loc 16 93 2 view .LVU33
  92:Pedal.cpp     **** 	toneParam.Init(hw.knob[Terrarium::KNOB_3], -1.0f, 1.0f, Parameter::LINEAR);
 236              		.loc 16 92 1 is_stmt 0 view .LVU34
 237 0000 10B5     		push	{r4, lr}
 238              		.cfi_def_cfa_offset 8
 239              		.cfi_offset 4, -8
 240              		.cfi_offset 14, -4
 241              		.loc 16 93 42 view .LVU35
 242 0002 154C     		ldr	r4, .L10
  92:Pedal.cpp     **** 	toneParam.Init(hw.knob[Terrarium::KNOB_3], -1.0f, 1.0f, Parameter::LINEAR);
 243              		.loc 16 92 1 view .LVU36
 244 0004 88B0     		sub	sp, sp, #32
 245              		.cfi_def_cfa_offset 40
 246              		.loc 16 93 16 view .LVU37
 247 0006 F7EE000A 		vmov.f32	s1, #1.0e+0
 248              		.loc 16 93 42 view .LVU38
 249 000a 04F1E40E 		add	lr, r4, #228
 250 000e EC46     		mov	ip, sp
 251              		.loc 16 93 16 view .LVU39
 252 0010 BFEE000A 		vmov.f32	s0, #-1.0e+0
 253              		.loc 16 93 42 view .LVU40
 254 0014 BEE80F00 		ldmia	lr!, {r0, r1, r2, r3}
 255 0018 ACE80F00 		stmia	ip!, {r0, r1, r2, r3}
 256 001c 9EE80F00 		ldm	lr, {r0, r1, r2, r3}
 257 0020 8CE80F00 		stm	ip, {r0, r1, r2, r3}
 258              		.loc 16 93 16 view .LVU41
 259 0024 6946     		mov	r1, sp
 260 0026 0022     		movs	r2, #0
 261 0028 0C48     		ldr	r0, .L10+4
 262 002a FFF7FEFF 		bl	_ZN5daisy9Parameter4InitENS_13AnalogControlEffNS0_5CurveE
 263              	.LVL5:
 264              	.LBB277:
 265              	.LBI277:
 266              		.loc 2 23 5 is_stmt 1 view .LVU42
 267              		.loc 2 23 5 is_stmt 0 view .LVU43
ARM GAS  /var/folders/fs/ht5wlc7s7b56r9p0ngl7ssgc0000gn/T//ccHBcJ2G.s 			page 18


 268              	.LBE277:
  94:Pedal.cpp     **** 	bpmParam.Init(hw.knob[Terrarium::KNOB_4], 30.0f, 240.0f, Parameter::LINEAR);
 269              		.loc 16 94 2 is_stmt 1 view .LVU44
 270              		.loc 16 94 41 is_stmt 0 view .LVU45
 271 002e 04F1840C 		add	ip, r4, #132
 272 0032 6C46     		mov	r4, sp
 273              		.loc 16 94 15 view .LVU46
 274 0034 B3EE0E0A 		vmov.f32	s0, #3.0e+1
 275 0038 DFED090A 		vldr.32	s1, .L10+8
 276              		.loc 16 94 41 view .LVU47
 277 003c BCE80F00 		ldmia	ip!, {r0, r1, r2, r3}
 278 0040 0FC4     		stmia	r4!, {r0, r1, r2, r3}
 279 0042 9CE80F00 		ldm	ip, {r0, r1, r2, r3}
 280 0046 84E80F00 		stm	r4, {r0, r1, r2, r3}
 281              		.loc 16 94 15 view .LVU48
 282 004a 0022     		movs	r2, #0
 283 004c 6946     		mov	r1, sp
 284 004e 0548     		ldr	r0, .L10+12
 285 0050 FFF7FEFF 		bl	_ZN5daisy9Parameter4InitENS_13AnalogControlEffNS0_5CurveE
 286              	.LVL6:
 287              	.LBB278:
 288              	.LBI278:
 289              		.loc 2 23 5 is_stmt 1 view .LVU49
 290              		.loc 2 23 5 is_stmt 0 view .LVU50
 291              	.LBE278:
  95:Pedal.cpp     **** 
  96:Pedal.cpp     **** }
 292              		.loc 16 96 1 view .LVU51
 293 0054 08B0     		add	sp, sp, #32
 294              		.cfi_def_cfa_offset 8
 295              		@ sp needed
 296 0056 10BD     		pop	{r4, pc}
 297              	.L11:
 298              		.align	2
 299              	.L10:
 300 0058 00000000 		.word	.LANCHOR0
 301 005c 00000000 		.word	.LANCHOR1
 302 0060 00007043 		.word	1131413504
 303 0064 00000000 		.word	.LANCHOR2
 304              		.cfi_endproc
 305              	.LFE4814:
 307              		.section	.text.startup.main,"ax",%progbits
 308              		.align	1
 309              		.p2align 2,,3
 310              		.global	main
 311              		.syntax unified
 312              		.thumb
 313              		.thumb_func
 315              	main:
 316              	.LFB4813:
  74:Pedal.cpp     **** 	hw.Init();
 317              		.loc 16 74 1 is_stmt 1 view -0
 318              		.cfi_startproc
 319              		@ Volatile: function does not return.
 320              		@ args = 0, pretend = 0, frame = 0
 321              		@ frame_needed = 0, uses_anonymous_args = 0
  75:Pedal.cpp     **** 	hw.SetAudioBlockSize(4); // number of samples handled per callback
ARM GAS  /var/folders/fs/ht5wlc7s7b56r9p0ngl7ssgc0000gn/T//ccHBcJ2G.s 			page 19


 322              		.loc 16 75 2 view .LVU53
  74:Pedal.cpp     **** 	hw.Init();
 323              		.loc 16 74 1 is_stmt 0 view .LVU54
 324 0000 08B5     		push	{r3, lr}
 325              		.cfi_def_cfa_offset 8
 326              		.cfi_offset 3, -8
 327              		.cfi_offset 14, -4
  75:Pedal.cpp     **** 	hw.SetAudioBlockSize(4); // number of samples handled per callback
 328              		.loc 16 75 9 view .LVU55
 329 0002 0021     		movs	r1, #0
 330 0004 1448     		ldr	r0, .L15
 331 0006 FFF7FEFF 		bl	_ZN5daisy10DaisyPetal4InitEb
 332              	.LVL7:
  76:Pedal.cpp     **** 	hw.SetAudioSampleRate(SaiHandle::Config::SampleRate::SAI_48KHZ);
 333              		.loc 16 76 2 is_stmt 1 view .LVU56
  76:Pedal.cpp     **** 	hw.SetAudioSampleRate(SaiHandle::Config::SampleRate::SAI_48KHZ);
 334              		.loc 16 76 22 is_stmt 0 view .LVU57
 335 000a 0421     		movs	r1, #4
 336 000c 1248     		ldr	r0, .L15
 337 000e FFF7FEFF 		bl	_ZN5daisy10DaisyPetal17SetAudioBlockSizeEj
 338              	.LVL8:
  77:Pedal.cpp     **** 	hw.StartAdc();
 339              		.loc 16 77 2 is_stmt 1 view .LVU58
  77:Pedal.cpp     **** 	hw.StartAdc();
 340              		.loc 16 77 23 is_stmt 0 view .LVU59
 341 0012 0321     		movs	r1, #3
 342 0014 1048     		ldr	r0, .L15
 343 0016 FFF7FEFF 		bl	_ZN5daisy10DaisyPetal18SetAudioSampleRateENS_9SaiHandle6Config10SampleRateE
 344              	.LVL9:
  78:Pedal.cpp     **** 
 345              		.loc 16 78 2 is_stmt 1 view .LVU60
  78:Pedal.cpp     **** 
 346              		.loc 16 78 13 is_stmt 0 view .LVU61
 347 001a 0F48     		ldr	r0, .L15
 348 001c FFF7FEFF 		bl	_ZN5daisy10DaisyPetal8StartAdcEv
 349              	.LVL10:
  80:Pedal.cpp     **** 	delay.setBPM(90);
 350              		.loc 16 80 2 is_stmt 1 view .LVU62
  80:Pedal.cpp     **** 	delay.setBPM(90);
 351              		.loc 16 80 17 is_stmt 0 view .LVU63
 352 0020 0E49     		ldr	r1, .L15+4
 353 0022 0F48     		ldr	r0, .L15+8
 354 0024 FFF7FEFF 		bl	_ZN5Delay9initDelayEPN7daisysp9DelayLineIfLj96000EEE
 355              	.LVL11:
  81:Pedal.cpp     **** 	crossFade.Init();
 356              		.loc 16 81 2 is_stmt 1 view .LVU64
  81:Pedal.cpp     **** 	crossFade.Init();
 357              		.loc 16 81 14 is_stmt 0 view .LVU65
 358 0028 9FED0E0A 		vldr.32	s0, .L15+12
 359 002c 0C48     		ldr	r0, .L15+8
 360 002e FFF7FEFF 		bl	_ZN5Delay6setBPMEf
 361              	.LVL12:
  82:Pedal.cpp     **** 	crossFade.SetCurve(CROSSFADE_CPOW);
 362              		.loc 16 82 2 is_stmt 1 view .LVU66
 363              	.LBB279:
 364              	.LBI279:
  38:../../DaisySP//Source/Dynamics/crossfade.h ****     /** Initializes CrossFade module
ARM GAS  /var/folders/fs/ht5wlc7s7b56r9p0ngl7ssgc0000gn/T//ccHBcJ2G.s 			page 20


  39:../../DaisySP//Source/Dynamics/crossfade.h ****         Defaults
  40:../../DaisySP//Source/Dynamics/crossfade.h ****         - current position = .5
  41:../../DaisySP//Source/Dynamics/crossfade.h ****         - curve = linear
  42:../../DaisySP//Source/Dynamics/crossfade.h ****     */
  43:../../DaisySP//Source/Dynamics/crossfade.h ****     inline void Init(int curve)
  44:../../DaisySP//Source/Dynamics/crossfade.h ****     {
  45:../../DaisySP//Source/Dynamics/crossfade.h ****         pos_   = 0.5f;
  46:../../DaisySP//Source/Dynamics/crossfade.h ****         curve_ = curve < CROSSFADE_LAST ? curve : CROSSFADE_LIN;
  47:../../DaisySP//Source/Dynamics/crossfade.h ****     }
  48:../../DaisySP//Source/Dynamics/crossfade.h **** 
  49:../../DaisySP//Source/Dynamics/crossfade.h ****     /** Initialize with default linear curve 
  50:../../DaisySP//Source/Dynamics/crossfade.h ****     */
  51:../../DaisySP//Source/Dynamics/crossfade.h ****     inline void Init() { Init(CROSSFADE_LIN); }
 365              		.loc 12 51 17 view .LVU67
 366              	.LBE279:
 367              		.loc 12 51 26 view .LVU68
 368              	.LBB284:
 369              	.LBB280:
 370              	.LBI280:
  43:../../DaisySP//Source/Dynamics/crossfade.h ****     {
 371              		.loc 12 43 17 view .LVU69
 372              	.LBB281:
  45:../../DaisySP//Source/Dynamics/crossfade.h ****         curve_ = curve < CROSSFADE_LAST ? curve : CROSSFADE_LIN;
 373              		.loc 12 45 9 view .LVU70
  45:../../DaisySP//Source/Dynamics/crossfade.h ****         curve_ = curve < CROSSFADE_LAST ? curve : CROSSFADE_LIN;
 374              		.loc 12 45 16 is_stmt 0 view .LVU71
 375 0032 4FF07C51 		mov	r1, #1056964608
 376 0036 0C4B     		ldr	r3, .L15+16
 377              	.LBE281:
 378              	.LBE280:
 379              	.LBE284:
 380              	.LBB285:
 381              	.LBB286:
  52:../../DaisySP//Source/Dynamics/crossfade.h ****     /** processes CrossFade and returns single sample
  53:../../DaisySP//Source/Dynamics/crossfade.h ****     */
  54:../../DaisySP//Source/Dynamics/crossfade.h ****     float Process(float &in1, float &in2);
  55:../../DaisySP//Source/Dynamics/crossfade.h **** 
  56:../../DaisySP//Source/Dynamics/crossfade.h **** 
  57:../../DaisySP//Source/Dynamics/crossfade.h ****     /** Sets position of CrossFade between two input signals
  58:../../DaisySP//Source/Dynamics/crossfade.h ****         Input range: 0 to 1
  59:../../DaisySP//Source/Dynamics/crossfade.h ****     */
  60:../../DaisySP//Source/Dynamics/crossfade.h ****     inline void SetPos(float pos) { pos_ = pos; }
  61:../../DaisySP//Source/Dynamics/crossfade.h ****     /** Sets current curve applied to CrossFade 
  62:../../DaisySP//Source/Dynamics/crossfade.h ****     Expected input: See [Curve Options](##curve-options)
  63:../../DaisySP//Source/Dynamics/crossfade.h ****     */
  64:../../DaisySP//Source/Dynamics/crossfade.h ****     inline void SetCurve(uint8_t curve) { curve_ = curve; }
 382              		.loc 12 64 50 view .LVU72
 383 0038 0122     		movs	r2, #1
 384              	.LBE286:
 385              	.LBE285:
  84:Pedal.cpp     **** 	initParams();
 386              		.loc 16 84 14 view .LVU73
 387 003a 0748     		ldr	r0, .L15
 388              	.LBB288:
 389              	.LBB283:
 390              	.LBB282:
  45:../../DaisySP//Source/Dynamics/crossfade.h ****         curve_ = curve < CROSSFADE_LAST ? curve : CROSSFADE_LIN;
ARM GAS  /var/folders/fs/ht5wlc7s7b56r9p0ngl7ssgc0000gn/T//ccHBcJ2G.s 			page 21


 391              		.loc 12 45 16 view .LVU74
 392 003c 1960     		str	r1, [r3]	@ float
  46:../../DaisySP//Source/Dynamics/crossfade.h ****     }
 393              		.loc 12 46 9 is_stmt 1 view .LVU75
 394              	.LVL13:
  46:../../DaisySP//Source/Dynamics/crossfade.h ****     }
 395              		.loc 12 46 9 is_stmt 0 view .LVU76
 396              	.LBE282:
 397              	.LBE283:
 398              	.LBE288:
  83:Pedal.cpp     **** 	balance.Init(hw.AudioSampleRate());
 399              		.loc 16 83 2 is_stmt 1 view .LVU77
 400              	.LBB289:
 401              	.LBI285:
 402              		.loc 12 64 17 view .LVU78
 403              	.LBB287:
 404              		.loc 12 64 43 view .LVU79
 405              		.loc 12 64 50 is_stmt 0 view .LVU80
 406 003e 1A71     		strb	r2, [r3, #4]
 407              	.LVL14:
 408              		.loc 12 64 50 view .LVU81
 409              	.LBE287:
 410              	.LBE289:
  84:Pedal.cpp     **** 	initParams();
 411              		.loc 16 84 2 is_stmt 1 view .LVU82
  84:Pedal.cpp     **** 	initParams();
 412              		.loc 16 84 14 is_stmt 0 view .LVU83
 413 0040 FFF7FEFF 		bl	_ZN5daisy10DaisyPetal15AudioSampleRateEv
 414              	.LVL15:
 415 0044 0948     		ldr	r0, .L15+20
 416 0046 FFF7FEFF 		bl	_ZN7daisysp7Balance4InitEf
 417              	.LVL16:
  85:Pedal.cpp     **** 
 418              		.loc 16 85 2 is_stmt 1 view .LVU84
  85:Pedal.cpp     **** 
 419              		.loc 16 85 12 is_stmt 0 view .LVU85
 420 004a FFF7FEFF 		bl	_Z10initParamsv
 421              	.LVL17:
  87:Pedal.cpp     **** 	while(1) {}
 422              		.loc 16 87 2 is_stmt 1 view .LVU86
  87:Pedal.cpp     **** 	while(1) {}
 423              		.loc 16 87 15 is_stmt 0 view .LVU87
 424 004e 0849     		ldr	r1, .L15+24
 425 0050 0148     		ldr	r0, .L15
 426 0052 FFF7FEFF 		bl	_ZN5daisy10DaisyPetal10StartAudioEPFvPKPKfPPfjE
 427              	.LVL18:
 428              	.L13:
  88:Pedal.cpp     **** }
 429              		.loc 16 88 2 is_stmt 1 discriminator 1 view .LVU88
  88:Pedal.cpp     **** }
 430              		.loc 16 88 2 discriminator 1 view .LVU89
  88:Pedal.cpp     **** }
 431              		.loc 16 88 2 discriminator 1 view .LVU90
  88:Pedal.cpp     **** }
 432              		.loc 16 88 2 discriminator 1 view .LVU91
 433 0056 FEE7     		b	.L13
 434              	.L16:
ARM GAS  /var/folders/fs/ht5wlc7s7b56r9p0ngl7ssgc0000gn/T//ccHBcJ2G.s 			page 22


 435              		.align	2
 436              	.L15:
 437 0058 00000000 		.word	.LANCHOR0
 438 005c 00000000 		.word	delayMems
 439 0060 00000000 		.word	.LANCHOR3
 440 0064 0000B442 		.word	1119092736
 441 0068 00000000 		.word	.LANCHOR4
 442 006c 00000000 		.word	.LANCHOR5
 443 0070 00000000 		.word	_Z13AudioCallbackPKPKfPPfj
 444              		.cfi_endproc
 445              	.LFE4813:
 447              		.section	.text._Z15processControlsv,"ax",%progbits
 448              		.align	1
 449              		.p2align 2,,3
 450              		.global	_Z15processControlsv
 451              		.syntax unified
 452              		.thumb
 453              		.thumb_func
 455              	_Z15processControlsv:
 456              	.LFB4815:
  97:Pedal.cpp     **** 
  98:Pedal.cpp     **** void processControls()
  99:Pedal.cpp     **** {
 457              		.loc 16 99 1 view -0
 458              		.cfi_startproc
 459              		@ args = 0, pretend = 0, frame = 16
 460              		@ frame_needed = 0, uses_anonymous_args = 0
 100:Pedal.cpp     **** 	bool tapping = false;
 461              		.loc 16 100 2 view .LVU93
 462              	.LVL19:
 101:Pedal.cpp     **** 
 102:Pedal.cpp     **** 	/***************PROCESS FOOTSWITCHES*****************/
 103:Pedal.cpp     **** 	if(hw.switches[Terrarium::FOOTSWITCH_2].RisingEdge())
 463              		.loc 16 103 2 view .LVU94
 464              	.LBB290:
 465              	.LBI290:
  43:../../libDaisy//src/hid/switch.h **** 
  44:../../libDaisy//src/hid/switch.h ****     /** 
  45:../../libDaisy//src/hid/switch.h ****     Initializes the switch object with a given port/pin combo.
  46:../../libDaisy//src/hid/switch.h ****     \param pin port/pin object to tell the switch which hardware pin to use.
  47:../../libDaisy//src/hid/switch.h ****     \param update_rate Does nothing. Backwards compatibility until next breaking update.
  48:../../libDaisy//src/hid/switch.h ****     \param t switch type -- Default: TYPE_MOMENTARY
  49:../../libDaisy//src/hid/switch.h ****     \param pol switch polarity -- Default: POLARITY_INVERTED
  50:../../libDaisy//src/hid/switch.h ****     \param pu switch pull up/down -- Default: PULL_UP
  51:../../libDaisy//src/hid/switch.h ****     */
  52:../../libDaisy//src/hid/switch.h ****     void
  53:../../libDaisy//src/hid/switch.h ****     Init(dsy_gpio_pin pin, float update_rate, Type t, Polarity pol, Pull pu);
  54:../../libDaisy//src/hid/switch.h **** 
  55:../../libDaisy//src/hid/switch.h ****     /**
  56:../../libDaisy//src/hid/switch.h ****        Simplified Init.
  57:../../libDaisy//src/hid/switch.h ****        \param pin port/pin object to tell the switch which hardware pin to use.
  58:../../libDaisy//src/hid/switch.h ****        \param update_rate Left for backwards compatibility until next breaking change.
  59:../../libDaisy//src/hid/switch.h ****     */
  60:../../libDaisy//src/hid/switch.h ****     void Init(dsy_gpio_pin pin, float update_rate = 0.f);
  61:../../libDaisy//src/hid/switch.h **** 
  62:../../libDaisy//src/hid/switch.h ****     /** 
  63:../../libDaisy//src/hid/switch.h ****     Called at update_rate to debounce and handle timing for the switch.
ARM GAS  /var/folders/fs/ht5wlc7s7b56r9p0ngl7ssgc0000gn/T//ccHBcJ2G.s 			page 23


  64:../../libDaisy//src/hid/switch.h ****     In order for events not to be missed, its important that the Edge/Pressed checks
  65:../../libDaisy//src/hid/switch.h ****     be made at the same rate as the debounce function is being called.
  66:../../libDaisy//src/hid/switch.h ****     */
  67:../../libDaisy//src/hid/switch.h ****     void Debounce();
  68:../../libDaisy//src/hid/switch.h **** 
  69:../../libDaisy//src/hid/switch.h ****     /** \return true if a button was just pressed. */
  70:../../libDaisy//src/hid/switch.h ****     inline bool RisingEdge() const { return updated_ ? state_ == 0x7f : false; }
 466              		.loc 5 70 17 view .LVU95
 467              	.LBB291:
 468              		.loc 5 70 38 view .LVU96
 469              	.LBE291:
 470              	.LBE290:
  99:Pedal.cpp     **** 	bool tapping = false;
 471              		.loc 16 99 1 is_stmt 0 view .LVU97
 472 0000 10B5     		push	{r4, lr}
 473              		.cfi_def_cfa_offset 8
 474              		.cfi_offset 4, -8
 475              		.cfi_offset 14, -4
 476              	.LBB294:
 477              	.LBB292:
 478              		.loc 5 70 45 view .LVU98
 479 0002 574C     		ldr	r4, .L45
 480              		.loc 5 70 54 view .LVU99
 481 0004 94F89831 		ldrb	r3, [r4, #408]	@ zero_extendqisi2
 482              	.LBE292:
 483              	.LBE294:
  99:Pedal.cpp     **** 	bool tapping = false;
 484              		.loc 16 99 1 view .LVU100
 485 0008 2DED028B 		vpush.64	{d8}
 486              		.cfi_def_cfa_offset 16
 487              		.cfi_offset 80, -16
 488              		.cfi_offset 81, -12
 489 000c 84B0     		sub	sp, sp, #16
 490              		.cfi_def_cfa_offset 32
 491              	.LBB295:
 492              	.LBB293:
 493              		.loc 5 70 54 view .LVU101
 494 000e 1BB1     		cbz	r3, .L18
 495              	.LVL20:
 496              		.loc 5 70 54 view .LVU102
 497              	.LBE293:
 498              	.LBE295:
 499              		.loc 16 103 2 view .LVU103
 500 0010 94F89E31 		ldrb	r3, [r4, #414]	@ zero_extendqisi2
 501 0014 7F2B     		cmp	r3, #127
 502 0016 77D0     		beq	.L40
 503              	.L18:
 104:Pedal.cpp     **** 		bypass = !bypass;
 105:Pedal.cpp     **** 	if(hw.switches[Terrarium::FOOTSWITCH_1].RisingEdge())
 504              		.loc 16 105 2 is_stmt 1 view .LVU104
 505              	.LVL21:
 506              	.LBB296:
 507              	.LBI296:
 508              		.loc 5 70 17 view .LVU105
 509              	.LBB297:
 510              		.loc 5 70 38 view .LVU106
 511              		.loc 5 70 45 is_stmt 0 view .LVU107
ARM GAS  /var/folders/fs/ht5wlc7s7b56r9p0ngl7ssgc0000gn/T//ccHBcJ2G.s 			page 24


 512 0018 94F88811 		ldrb	r1, [r4, #392]	@ zero_extendqisi2
 513              		.loc 5 70 54 view .LVU108
 514 001c 31B1     		cbz	r1, .L19
 515              	.LVL22:
 516              		.loc 5 70 54 view .LVU109
 517              	.LBE297:
 518              	.LBE296:
 519              		.loc 16 105 2 view .LVU110
 520 001e 94F88E11 		ldrb	r1, [r4, #398]	@ zero_extendqisi2
 521 0022 A1F17F01 		sub	r1, #127
 522 0026 B1FA81F1 		clz	r1, r1
 523 002a 4909     		lsrs	r1, r1, #5
 524              	.L19:
 525              	.LVL23:
 106:Pedal.cpp     **** 		tapping = !tapping;
 107:Pedal.cpp     **** 
 108:Pedal.cpp     **** 	tapTempo.update(tapping);
 526              		.loc 16 108 2 is_stmt 1 view .LVU111
 527              		.loc 16 108 17 is_stmt 0 view .LVU112
 528 002c 4D48     		ldr	r0, .L45+4
 529 002e FFF7FEFF 		bl	_ZN8TapTempo6updateEb
 530              	.LVL24:
 109:Pedal.cpp     **** 	delay.setBPM(tapTempo.getBPM());
 531              		.loc 16 109 2 is_stmt 1 view .LVU113
 532              		.loc 16 109 14 is_stmt 0 view .LVU114
 533 0032 4C48     		ldr	r0, .L45+4
 534 0034 FFF7FEFF 		bl	_ZN8TapTempo6getBPMEv
 535              	.LVL25:
 536 0038 4B48     		ldr	r0, .L45+8
 537 003a FFF7FEFF 		bl	_ZN5Delay6setBPMEf
 538              	.LVL26:
 110:Pedal.cpp     **** 
 111:Pedal.cpp     **** 	/***************************************************/
 112:Pedal.cpp     **** 
 113:Pedal.cpp     **** 	/***************PROCESS SWITCHES*****************/
 114:Pedal.cpp     **** 	if(hw.switches[Terrarium::SWITCH_1].Pressed())
 539              		.loc 16 114 2 is_stmt 1 view .LVU115
 540              	.LBB298:
 541              	.LBI298:
  71:../../libDaisy//src/hid/switch.h **** 
  72:../../libDaisy//src/hid/switch.h ****     /** \return true if the button was just released */
  73:../../libDaisy//src/hid/switch.h ****     inline bool FallingEdge() const
  74:../../libDaisy//src/hid/switch.h ****     {
  75:../../libDaisy//src/hid/switch.h ****         return updated_ ? state_ == 0x80 : false;
  76:../../libDaisy//src/hid/switch.h ****     }
  77:../../libDaisy//src/hid/switch.h **** 
  78:../../libDaisy//src/hid/switch.h ****     /** \return true if the button is held down (or if the toggle is on) */
  79:../../libDaisy//src/hid/switch.h ****     inline bool Pressed() const { return state_ == 0xff; }
 542              		.loc 5 79 17 view .LVU116
 543              	.LBB299:
 544              		.loc 5 79 35 view .LVU117
 545              		.loc 5 79 35 is_stmt 0 view .LVU118
 546              	.LBE299:
 547              	.LBE298:
 548              		.loc 16 114 2 view .LVU119
 549 003e 94F86E31 		ldrb	r3, [r4, #366]	@ zero_extendqisi2
 115:Pedal.cpp     **** 		delay.enableHead(0);
ARM GAS  /var/folders/fs/ht5wlc7s7b56r9p0ngl7ssgc0000gn/T//ccHBcJ2G.s 			page 25


 550              		.loc 16 115 19 view .LVU120
 551 0042 03A9     		add	r1, sp, #12
 552 0044 4848     		ldr	r0, .L45+8
 114:Pedal.cpp     **** 		delay.enableHead(0);
 553              		.loc 16 114 2 view .LVU121
 554 0046 FF2B     		cmp	r3, #255
 555              		.loc 16 115 20 view .LVU122
 556 0048 4FF00003 		mov	r3, #0
 557              		.loc 16 115 19 view .LVU123
 558 004c 0191     		str	r1, [sp, #4]
 559              		.loc 16 115 20 view .LVU124
 560 004e 0393     		str	r3, [sp, #12]
 114:Pedal.cpp     **** 		delay.enableHead(0);
 561              		.loc 16 114 2 view .LVU125
 562 0050 6BD0     		beq	.L41
 116:Pedal.cpp     **** 	else
 117:Pedal.cpp     **** 		delay.disableHead(0);
 563              		.loc 16 117 3 is_stmt 1 view .LVU126
 564              		.loc 16 117 20 is_stmt 0 view .LVU127
 565 0052 FFF7FEFF 		bl	_ZN5Delay11disableHeadERKi
 566              	.LVL27:
 567 0056 0199     		ldr	r1, [sp, #4]
 568              	.L21:
 118:Pedal.cpp     **** 
 119:Pedal.cpp     **** 	if(hw.switches[Terrarium::SWITCH_2].Pressed())
 569              		.loc 16 119 2 is_stmt 1 view .LVU128
 570              	.LVL28:
 571              	.LBB300:
 572              	.LBI300:
 573              		.loc 5 79 17 view .LVU129
 574              	.LBB301:
 575              		.loc 5 79 35 view .LVU130
 576              		.loc 5 79 35 is_stmt 0 view .LVU131
 577              	.LBE301:
 578              	.LBE300:
 579              		.loc 16 119 2 view .LVU132
 580 0058 94F85E31 		ldrb	r3, [r4, #350]	@ zero_extendqisi2
 120:Pedal.cpp     **** 		delay.enableHead(1);
 581              		.loc 16 120 19 view .LVU133
 582 005c 4248     		ldr	r0, .L45+8
 119:Pedal.cpp     **** 		delay.enableHead(1);
 583              		.loc 16 119 2 view .LVU134
 584 005e FF2B     		cmp	r3, #255
 585              		.loc 16 120 20 view .LVU135
 586 0060 4FF00103 		mov	r3, #1
 587              		.loc 16 120 19 view .LVU136
 588 0064 0191     		str	r1, [sp, #4]
 589              		.loc 16 120 20 view .LVU137
 590 0066 0393     		str	r3, [sp, #12]
 119:Pedal.cpp     **** 		delay.enableHead(1);
 591              		.loc 16 119 2 view .LVU138
 592 0068 5BD0     		beq	.L42
 121:Pedal.cpp     **** 	else
 122:Pedal.cpp     **** 		delay.disableHead(1);
 593              		.loc 16 122 3 is_stmt 1 view .LVU139
 594              		.loc 16 122 20 is_stmt 0 view .LVU140
 595 006a FFF7FEFF 		bl	_ZN5Delay11disableHeadERKi
ARM GAS  /var/folders/fs/ht5wlc7s7b56r9p0ngl7ssgc0000gn/T//ccHBcJ2G.s 			page 26


 596              	.LVL29:
 597 006e 0199     		ldr	r1, [sp, #4]
 598              	.L23:
 123:Pedal.cpp     **** 
 124:Pedal.cpp     **** 	if(hw.switches[Terrarium::SWITCH_3].Pressed())
 599              		.loc 16 124 2 is_stmt 1 view .LVU141
 600              	.LVL30:
 601              	.LBB302:
 602              	.LBI302:
 603              		.loc 5 79 17 view .LVU142
 604              	.LBB303:
 605              		.loc 5 79 35 view .LVU143
 606              		.loc 5 79 35 is_stmt 0 view .LVU144
 607              	.LBE303:
 608              	.LBE302:
 609              		.loc 16 124 2 view .LVU145
 610 0070 94F84E31 		ldrb	r3, [r4, #334]	@ zero_extendqisi2
 125:Pedal.cpp     **** 		delay.enableHead(2);
 611              		.loc 16 125 19 view .LVU146
 612 0074 3C48     		ldr	r0, .L45+8
 124:Pedal.cpp     **** 		delay.enableHead(2);
 613              		.loc 16 124 2 view .LVU147
 614 0076 FF2B     		cmp	r3, #255
 615              		.loc 16 125 20 view .LVU148
 616 0078 4FF00203 		mov	r3, #2
 617              		.loc 16 125 19 view .LVU149
 618 007c 0191     		str	r1, [sp, #4]
 619              		.loc 16 125 20 view .LVU150
 620 007e 0393     		str	r3, [sp, #12]
 124:Pedal.cpp     **** 		delay.enableHead(2);
 621              		.loc 16 124 2 view .LVU151
 622 0080 4BD0     		beq	.L43
 126:Pedal.cpp     **** 	else
 127:Pedal.cpp     **** 		delay.disableHead(2);	
 623              		.loc 16 127 3 is_stmt 1 view .LVU152
 624              		.loc 16 127 20 is_stmt 0 view .LVU153
 625 0082 FFF7FEFF 		bl	_ZN5Delay11disableHeadERKi
 626              	.LVL31:
 627 0086 0199     		ldr	r1, [sp, #4]
 628              	.L25:
 128:Pedal.cpp     **** 
 129:Pedal.cpp     **** 	if(hw.switches[Terrarium::SWITCH_4].Pressed())
 629              		.loc 16 129 2 is_stmt 1 view .LVU154
 630              	.LVL32:
 631              	.LBB304:
 632              	.LBI304:
 633              		.loc 5 79 17 view .LVU155
 634              	.LBB305:
 635              		.loc 5 79 35 view .LVU156
 636              		.loc 5 79 35 is_stmt 0 view .LVU157
 637              	.LBE305:
 638              	.LBE304:
 639              		.loc 16 129 2 view .LVU158
 640 0088 94F8AE31 		ldrb	r3, [r4, #430]	@ zero_extendqisi2
 130:Pedal.cpp     **** 		delay.enableHead(3);
 641              		.loc 16 130 19 view .LVU159
 642 008c 3648     		ldr	r0, .L45+8
ARM GAS  /var/folders/fs/ht5wlc7s7b56r9p0ngl7ssgc0000gn/T//ccHBcJ2G.s 			page 27


 129:Pedal.cpp     **** 		delay.enableHead(3);
 643              		.loc 16 129 2 view .LVU160
 644 008e FF2B     		cmp	r3, #255
 645              		.loc 16 130 20 view .LVU161
 646 0090 4FF00303 		mov	r3, #3
 647 0094 0393     		str	r3, [sp, #12]
 129:Pedal.cpp     **** 		delay.enableHead(3);
 648              		.loc 16 129 2 view .LVU162
 649 0096 3DD0     		beq	.L44
 131:Pedal.cpp     **** 	else
 132:Pedal.cpp     **** 		delay.disableHead(3);
 650              		.loc 16 132 3 is_stmt 1 view .LVU163
 651              		.loc 16 132 20 is_stmt 0 view .LVU164
 652 0098 FFF7FEFF 		bl	_ZN5Delay11disableHeadERKi
 653              	.LVL33:
 654              	.L27:
 133:Pedal.cpp     **** 	/************************************************/
 134:Pedal.cpp     **** 
 135:Pedal.cpp     **** 	/***************PROCESS KNOBS*****************/
 136:Pedal.cpp     **** 	dryWet = hw.knob[Terrarium::KNOB_1].Process();
 655              		.loc 16 136 2 is_stmt 1 view .LVU165
 656              		.loc 16 136 45 is_stmt 0 view .LVU166
 657 009c 3348     		ldr	r0, .L45+12
 137:Pedal.cpp     **** 	crossFade.SetPos(dryWet);
 138:Pedal.cpp     **** 
 139:Pedal.cpp     **** 	feedback = hw.knob[Terrarium::KNOB_2].Process();
 140:Pedal.cpp     **** 	delay.setFeedback(feedback);
 141:Pedal.cpp     **** 
 142:Pedal.cpp     **** 	toneVal = toneParam.Process();
 143:Pedal.cpp     **** 	tone.setFreq(toneVal);
 144:Pedal.cpp     **** 
 145:Pedal.cpp     **** 	float bpmFromKnob = bpmParam.Process();
 146:Pedal.cpp     **** 
 147:Pedal.cpp     **** 	// Only update the delay time from the knob if it falls within + or - the current bpm to prevent e
 148:Pedal.cpp     ****     if( bpmFromKnob > tapTempo.getBPM() - 1 &&  bpmFromKnob < tapTempo.getBPM() + 1 )
 658              		.loc 16 148 41 view .LVU167
 659 009e F7EE008A 		vmov.f32	s17, #1.0e+0
 136:Pedal.cpp     **** 	crossFade.SetPos(dryWet);
 660              		.loc 16 136 45 view .LVU168
 661 00a2 FFF7FEFF 		bl	_ZN5daisy13AnalogControl7ProcessEv
 662              	.LVL34:
 136:Pedal.cpp     **** 	crossFade.SetPos(dryWet);
 663              		.loc 16 136 9 view .LVU169
 664 00a6 324A     		ldr	r2, .L45+16
 665              	.LBB306:
 666              	.LBB307:
  60:../../DaisySP//Source/Dynamics/crossfade.h ****     /** Sets current curve applied to CrossFade 
 667              		.loc 12 60 42 view .LVU170
 668 00a8 324B     		ldr	r3, .L45+20
 669              	.LBE307:
 670              	.LBE306:
 139:Pedal.cpp     **** 	delay.setFeedback(feedback);
 671              		.loc 16 139 47 view .LVU171
 672 00aa 3348     		ldr	r0, .L45+24
 136:Pedal.cpp     **** 	crossFade.SetPos(dryWet);
 673              		.loc 16 136 9 view .LVU172
 674 00ac 82ED000A 		vstr.32	s0, [r2]
ARM GAS  /var/folders/fs/ht5wlc7s7b56r9p0ngl7ssgc0000gn/T//ccHBcJ2G.s 			page 28


 137:Pedal.cpp     **** 
 675              		.loc 16 137 2 is_stmt 1 view .LVU173
 676              	.LVL35:
 677              	.LBB309:
 678              	.LBI306:
  60:../../DaisySP//Source/Dynamics/crossfade.h ****     /** Sets current curve applied to CrossFade 
 679              		.loc 12 60 17 view .LVU174
 680              	.LBB308:
  60:../../DaisySP//Source/Dynamics/crossfade.h ****     /** Sets current curve applied to CrossFade 
 681              		.loc 12 60 37 view .LVU175
  60:../../DaisySP//Source/Dynamics/crossfade.h ****     /** Sets current curve applied to CrossFade 
 682              		.loc 12 60 42 is_stmt 0 view .LVU176
 683 00b0 83ED000A 		vstr.32	s0, [r3]
 684              	.LVL36:
  60:../../DaisySP//Source/Dynamics/crossfade.h ****     /** Sets current curve applied to CrossFade 
 685              		.loc 12 60 42 view .LVU177
 686              	.LBE308:
 687              	.LBE309:
 139:Pedal.cpp     **** 	delay.setFeedback(feedback);
 688              		.loc 16 139 2 is_stmt 1 view .LVU178
 139:Pedal.cpp     **** 	delay.setFeedback(feedback);
 689              		.loc 16 139 47 is_stmt 0 view .LVU179
 690 00b4 FFF7FEFF 		bl	_ZN5daisy13AnalogControl7ProcessEv
 691              	.LVL37:
 139:Pedal.cpp     **** 	delay.setFeedback(feedback);
 692              		.loc 16 139 11 view .LVU180
 693 00b8 3049     		ldr	r1, .L45+28
 140:Pedal.cpp     **** 
 694              		.loc 16 140 19 view .LVU181
 695 00ba 2B48     		ldr	r0, .L45+8
 139:Pedal.cpp     **** 	delay.setFeedback(feedback);
 696              		.loc 16 139 11 view .LVU182
 697 00bc 81ED000A 		vstr.32	s0, [r1]
 140:Pedal.cpp     **** 
 698              		.loc 16 140 2 is_stmt 1 view .LVU183
 140:Pedal.cpp     **** 
 699              		.loc 16 140 19 is_stmt 0 view .LVU184
 700 00c0 FFF7FEFF 		bl	_ZN5Delay11setFeedbackERKf
 701              	.LVL38:
 142:Pedal.cpp     **** 	tone.setFreq(toneVal);
 702              		.loc 16 142 2 is_stmt 1 view .LVU185
 142:Pedal.cpp     **** 	tone.setFreq(toneVal);
 703              		.loc 16 142 29 is_stmt 0 view .LVU186
 704 00c4 2E48     		ldr	r0, .L45+32
 705 00c6 FFF7FEFF 		bl	_ZN5daisy9Parameter7ProcessEv
 706              	.LVL39:
 142:Pedal.cpp     **** 	tone.setFreq(toneVal);
 707              		.loc 16 142 10 view .LVU187
 708 00ca 2E4B     		ldr	r3, .L45+36
 143:Pedal.cpp     **** 
 709              		.loc 16 143 14 view .LVU188
 710 00cc 2E48     		ldr	r0, .L45+40
 142:Pedal.cpp     **** 	tone.setFreq(toneVal);
 711              		.loc 16 142 10 view .LVU189
 712 00ce 83ED000A 		vstr.32	s0, [r3]
 143:Pedal.cpp     **** 
 713              		.loc 16 143 2 is_stmt 1 view .LVU190
ARM GAS  /var/folders/fs/ht5wlc7s7b56r9p0ngl7ssgc0000gn/T//ccHBcJ2G.s 			page 29


 143:Pedal.cpp     **** 
 714              		.loc 16 143 14 is_stmt 0 view .LVU191
 715 00d2 FFF7FEFF 		bl	_ZN10ToneFilter7setFreqEf
 716              	.LVL40:
 145:Pedal.cpp     **** 
 717              		.loc 16 145 2 is_stmt 1 view .LVU192
 145:Pedal.cpp     **** 
 718              		.loc 16 145 38 is_stmt 0 view .LVU193
 719 00d6 2D48     		ldr	r0, .L45+44
 720 00d8 FFF7FEFF 		bl	_ZN5daisy9Parameter7ProcessEv
 721              	.LVL41:
 722              		.loc 16 148 38 view .LVU194
 723 00dc 2148     		ldr	r0, .L45+4
 145:Pedal.cpp     **** 
 724              		.loc 16 145 38 view .LVU195
 725 00de B0EE408A 		vmov.f32	s16, s0
 726              	.LVL42:
 727              		.loc 16 148 5 is_stmt 1 view .LVU196
 728              		.loc 16 148 38 is_stmt 0 view .LVU197
 729 00e2 FFF7FEFF 		bl	_ZN8TapTempo6getBPMEv
 730              	.LVL43:
 731              		.loc 16 148 41 view .LVU198
 732 00e6 30EE680A 		vsub.f32	s0, s0, s17
 733              		.loc 16 148 45 view .LVU199
 734 00ea B4EEC80A 		vcmpe.f32	s0, s16
 735 00ee F1EE10FA 		vmrs	APSR_nzcv, FPSCR
 736 00f2 1ED4     		bmi	.L28
 737 00f4 264C     		ldr	r4, .L45+48
 738              	.L29:
 149:Pedal.cpp     ****     {    
 150:Pedal.cpp     **** 		tapTempo.setBPM(bpmFromKnob);
 151:Pedal.cpp     **** 		delay.setBPM(bpm);
 152:Pedal.cpp     **** 	}
 153:Pedal.cpp     **** 	
 154:Pedal.cpp     **** 	/*********************************************/
 155:Pedal.cpp     **** 
 156:Pedal.cpp     **** 	bpm = tapTempo.getBPM();
 739              		.loc 16 156 2 is_stmt 1 view .LVU200
 740              		.loc 16 156 23 is_stmt 0 view .LVU201
 741 00f6 1B48     		ldr	r0, .L45+4
 742 00f8 FFF7FEFF 		bl	_ZN8TapTempo6getBPMEv
 743              	.LVL44:
 744              		.loc 16 156 6 view .LVU202
 745 00fc 84ED000A 		vstr.32	s0, [r4]
 157:Pedal.cpp     **** }...
 746              		.loc 16 157 1 view .LVU203
 747 0100 04B0     		add	sp, sp, #16
 748              		.cfi_remember_state
 749              		.cfi_def_cfa_offset 16
 750              		@ sp needed
 751 0102 BDEC028B 		vldm	sp!, {d8}
 752              		.cfi_restore 80
 753              		.cfi_restore 81
 754              		.cfi_def_cfa_offset 8
 755              	.LVL45:
 756              		.loc 16 157 1 view .LVU204
 757 0106 10BD     		pop	{r4, pc}
ARM GAS  /var/folders/fs/ht5wlc7s7b56r9p0ngl7ssgc0000gn/T//ccHBcJ2G.s 			page 30


 758              	.LVL46:
 759              	.L40:
 760              		.cfi_restore_state
 104:Pedal.cpp     **** 		bypass = !bypass;
 761              		.loc 16 104 3 is_stmt 1 view .LVU205
 104:Pedal.cpp     **** 		bypass = !bypass;
 762              		.loc 16 104 10 is_stmt 0 view .LVU206
 763 0108 224A     		ldr	r2, .L45+52
 104:Pedal.cpp     **** 		bypass = !bypass;
 764              		.loc 16 104 12 view .LVU207
 765 010a 1378     		ldrb	r3, [r2]	@ zero_extendqisi2
 766 010c 83F00103 		eor	r3, r3, #1
 104:Pedal.cpp     **** 		bypass = !bypass;
 767              		.loc 16 104 10 view .LVU208
 768 0110 1370     		strb	r3, [r2]
 769 0112 81E7     		b	.L18
 770              	.LVL47:
 771              	.L44:
 130:Pedal.cpp     **** 		delay.enableHead(3);
 772              		.loc 16 130 3 is_stmt 1 view .LVU209
 130:Pedal.cpp     **** 		delay.enableHead(3);
 773              		.loc 16 130 19 is_stmt 0 view .LVU210
 774 0114 FFF7FEFF 		bl	_ZN5Delay10enableHeadERKi
 775              	.LVL48:
 776 0118 C0E7     		b	.L27
 777              	.L43:
 125:Pedal.cpp     **** 		delay.enableHead(2);
 778              		.loc 16 125 3 is_stmt 1 view .LVU211
 125:Pedal.cpp     **** 		delay.enableHead(2);
 779              		.loc 16 125 19 is_stmt 0 view .LVU212
 780 011a FFF7FEFF 		bl	_ZN5Delay10enableHeadERKi
 781              	.LVL49:
 782 011e 0199     		ldr	r1, [sp, #4]
 783 0120 B2E7     		b	.L25
 784              	.L42:
 120:Pedal.cpp     **** 		delay.enableHead(1);
 785              		.loc 16 120 3 is_stmt 1 view .LVU213
 120:Pedal.cpp     **** 		delay.enableHead(1);
 786              		.loc 16 120 19 is_stmt 0 view .LVU214
 787 0122 FFF7FEFF 		bl	_ZN5Delay10enableHeadERKi
 788              	.LVL50:
 789 0126 0199     		ldr	r1, [sp, #4]
 790 0128 A2E7     		b	.L23
 791              	.L41:
 115:Pedal.cpp     **** 		delay.enableHead(0);
 792              		.loc 16 115 3 is_stmt 1 view .LVU215
 115:Pedal.cpp     **** 		delay.enableHead(0);
 793              		.loc 16 115 19 is_stmt 0 view .LVU216
 794 012a FFF7FEFF 		bl	_ZN5Delay10enableHeadERKi
 795              	.LVL51:
 796 012e 0199     		ldr	r1, [sp, #4]
 797 0130 92E7     		b	.L21
 798              	.LVL52:
 799              	.L28:
 148:Pedal.cpp     ****     if( bpmFromKnob > tapTempo.getBPM() - 1 &&  bpmFromKnob < tapTempo.getBPM() + 1 )
 800              		.loc 16 148 78 discriminator 1 view .LVU217
 801 0132 0C48     		ldr	r0, .L45+4
ARM GAS  /var/folders/fs/ht5wlc7s7b56r9p0ngl7ssgc0000gn/T//ccHBcJ2G.s 			page 31


 802 0134 FFF7FEFF 		bl	_ZN8TapTempo6getBPMEv
 803              	.LVL53:
 148:Pedal.cpp     ****     if( bpmFromKnob > tapTempo.getBPM() - 1 &&  bpmFromKnob < tapTempo.getBPM() + 1 )
 804              		.loc 16 148 81 discriminator 1 view .LVU218
 805 0138 30EE280A 		vadd.f32	s0, s0, s17
 151:Pedal.cpp     **** 		delay.setBPM(bpm);
 806              		.loc 16 151 15 discriminator 1 view .LVU219
 807 013c 144C     		ldr	r4, .L45+48
 148:Pedal.cpp     ****     if( bpmFromKnob > tapTempo.getBPM() - 1 &&  bpmFromKnob < tapTempo.getBPM() + 1 )
 808              		.loc 16 148 45 discriminator 1 view .LVU220
 809 013e B4EEC80A 		vcmpe.f32	s0, s16
 810 0142 F1EE10FA 		vmrs	APSR_nzcv, FPSCR
 811 0146 D6DD     		ble	.L29
 150:Pedal.cpp     **** 		tapTempo.setBPM(bpmFromKnob);
 812              		.loc 16 150 3 is_stmt 1 view .LVU221
 150:Pedal.cpp     **** 		tapTempo.setBPM(bpmFromKnob);
 813              		.loc 16 150 18 is_stmt 0 view .LVU222
 814 0148 B0EE480A 		vmov.f32	s0, s16
 815 014c 0548     		ldr	r0, .L45+4
 816 014e FFF7FEFF 		bl	_ZN8TapTempo6setBPMEf
 817              	.LVL54:
 151:Pedal.cpp     **** 		delay.setBPM(bpm);
 818              		.loc 16 151 3 is_stmt 1 view .LVU223
 151:Pedal.cpp     **** 		delay.setBPM(bpm);
 819              		.loc 16 151 15 is_stmt 0 view .LVU224
 820 0152 94ED000A 		vldr.32	s0, [r4]
 821 0156 0448     		ldr	r0, .L45+8
 822 0158 FFF7FEFF 		bl	_ZN5Delay6setBPMEf
 823              	.LVL55:
 824 015c CBE7     		b	.L29
 825              	.L46:
 826 015e 00BF     		.align	2
 827              	.L45:
 828 0160 00000000 		.word	.LANCHOR0
 829 0164 00000000 		.word	.LANCHOR7
 830 0168 00000000 		.word	.LANCHOR3
 831 016c 64000000 		.word	.LANCHOR0+100
 832 0170 00000000 		.word	.LANCHOR8
 833 0174 00000000 		.word	.LANCHOR4
 834 0178 A4000000 		.word	.LANCHOR0+164
 835 017c 00000000 		.word	.LANCHOR9
 836 0180 00000000 		.word	.LANCHOR1
 837 0184 00000000 		.word	.LANCHOR10
 838 0188 00000000 		.word	.LANCHOR11
 839 018c 00000000 		.word	.LANCHOR2
 840 0190 00000000 		.word	.LANCHOR12
 841 0194 00000000 		.word	.LANCHOR6
 842              		.cfi_endproc
 843              	.LFE4815:
 845              		.section	.text._Z13AudioCallbackPKPKfPPfj,"ax",%progbits
 846              		.align	1
 847              		.p2align 2,,3
 848              		.global	_Z13AudioCallbackPKPKfPPfj
 849              		.syntax unified
 850              		.thumb
 851              		.thumb_func
 853              	_Z13AudioCallbackPKPKfPPfj:
ARM GAS  /var/folders/fs/ht5wlc7s7b56r9p0ngl7ssgc0000gn/T//ccHBcJ2G.s 			page 32


 854              	.LVL56:
 855              	.LFB4812:
  44:Pedal.cpp     **** {
 856              		.loc 16 44 1 is_stmt 1 view -0
 857              		.cfi_startproc
 858              		@ args = 0, pretend = 0, frame = 8
 859              		@ frame_needed = 0, uses_anonymous_args = 0
  45:Pedal.cpp     **** 	hw.ProcessAllControls();
 860              		.loc 16 45 2 view .LVU226
 861              	.LBB310:
 862              	.LBI310:
  69:../../libDaisy//src/daisy_petal.h **** 
  70:../../libDaisy//src/daisy_petal.h ****     /** Initialize daisy petal */
  71:../../libDaisy//src/daisy_petal.h ****     void Init(bool boost = false);
  72:../../libDaisy//src/daisy_petal.h **** 
  73:../../libDaisy//src/daisy_petal.h ****     /**
  74:../../libDaisy//src/daisy_petal.h ****        Wait before moving on.
  75:../../libDaisy//src/daisy_petal.h ****        \param del Delay time in ms.
  76:../../libDaisy//src/daisy_petal.h ****      */
  77:../../libDaisy//src/daisy_petal.h ****     void DelayMs(size_t del);
  78:../../libDaisy//src/daisy_petal.h **** 
  79:../../libDaisy//src/daisy_petal.h **** 
  80:../../libDaisy//src/daisy_petal.h ****     /** Starts the callback
  81:../../libDaisy//src/daisy_petal.h ****     \param cb Interleaved callback function
  82:../../libDaisy//src/daisy_petal.h ****     */
  83:../../libDaisy//src/daisy_petal.h ****     void StartAudio(AudioHandle::InterleavingAudioCallback cb);
  84:../../libDaisy//src/daisy_petal.h **** 
  85:../../libDaisy//src/daisy_petal.h ****     /** Starts the callback
  86:../../libDaisy//src/daisy_petal.h ****     \param cb multichannel callback function
  87:../../libDaisy//src/daisy_petal.h ****     */
  88:../../libDaisy//src/daisy_petal.h ****     void StartAudio(AudioHandle::AudioCallback cb);
  89:../../libDaisy//src/daisy_petal.h **** 
  90:../../libDaisy//src/daisy_petal.h ****     /**
  91:../../libDaisy//src/daisy_petal.h ****        Switch callback functions
  92:../../libDaisy//src/daisy_petal.h ****        \param cb New interleaved callback function.
  93:../../libDaisy//src/daisy_petal.h ****     */
  94:../../libDaisy//src/daisy_petal.h ****     void ChangeAudioCallback(AudioHandle::InterleavingAudioCallback cb);
  95:../../libDaisy//src/daisy_petal.h **** 
  96:../../libDaisy//src/daisy_petal.h ****     /**
  97:../../libDaisy//src/daisy_petal.h ****        Switch callback functions
  98:../../libDaisy//src/daisy_petal.h ****        \param cb New multichannel callback function.
  99:../../libDaisy//src/daisy_petal.h ****     */
 100:../../libDaisy//src/daisy_petal.h ****     void ChangeAudioCallback(AudioHandle::AudioCallback cb);
 101:../../libDaisy//src/daisy_petal.h **** 
 102:../../libDaisy//src/daisy_petal.h ****     /** Stops the audio if it is running. */
 103:../../libDaisy//src/daisy_petal.h ****     void StopAudio();
 104:../../libDaisy//src/daisy_petal.h **** 
 105:../../libDaisy//src/daisy_petal.h ****     /** Updates the Audio Sample Rate, and reinitializes.
 106:../../libDaisy//src/daisy_petal.h ****      ** Audio must be stopped for this to work.
 107:../../libDaisy//src/daisy_petal.h ****      */
 108:../../libDaisy//src/daisy_petal.h ****     void SetAudioSampleRate(SaiHandle::Config::SampleRate samplerate);
 109:../../libDaisy//src/daisy_petal.h **** 
 110:../../libDaisy//src/daisy_petal.h ****     /** Returns the audio sample rate in Hz as a floating point number.
 111:../../libDaisy//src/daisy_petal.h ****      */
 112:../../libDaisy//src/daisy_petal.h ****     float AudioSampleRate();
 113:../../libDaisy//src/daisy_petal.h **** 
 114:../../libDaisy//src/daisy_petal.h ****     /** Sets the number of samples processed per channel by the audio callback.
ARM GAS  /var/folders/fs/ht5wlc7s7b56r9p0ngl7ssgc0000gn/T//ccHBcJ2G.s 			page 33


 115:../../libDaisy//src/daisy_petal.h ****        \param size Audio block size
 116:../../libDaisy//src/daisy_petal.h ****      */
 117:../../libDaisy//src/daisy_petal.h ****     void SetAudioBlockSize(size_t size);
 118:../../libDaisy//src/daisy_petal.h **** 
 119:../../libDaisy//src/daisy_petal.h ****     /** Returns the number of samples per channel in a block of audio. */
 120:../../libDaisy//src/daisy_petal.h ****     size_t AudioBlockSize();
 121:../../libDaisy//src/daisy_petal.h **** 
 122:../../libDaisy//src/daisy_petal.h ****     /** Returns the rate in Hz that the Audio callback is called */
 123:../../libDaisy//src/daisy_petal.h ****     float AudioCallbackRate();
 124:../../libDaisy//src/daisy_petal.h **** 
 125:../../libDaisy//src/daisy_petal.h ****     /** Start analog to digital conversion. */
 126:../../libDaisy//src/daisy_petal.h ****     void StartAdc();
 127:../../libDaisy//src/daisy_petal.h **** 
 128:../../libDaisy//src/daisy_petal.h ****     /** Stops Transfering data from the ADC */
 129:../../libDaisy//src/daisy_petal.h ****     void StopAdc();
 130:../../libDaisy//src/daisy_petal.h **** 
 131:../../libDaisy//src/daisy_petal.h ****     /** Call at the same frequency as controls are read for stable readings.*/
 132:../../libDaisy//src/daisy_petal.h ****     void ProcessAnalogControls();
 133:../../libDaisy//src/daisy_petal.h **** 
 134:../../libDaisy//src/daisy_petal.h ****     /** Process Analog and Digital Controls */
 135:../../libDaisy//src/daisy_petal.h ****     inline void ProcessAllControls()
 863              		.loc 3 135 17 view .LVU227
 864              	.LBB311:
 136:../../libDaisy//src/daisy_petal.h ****     {
 137:../../libDaisy//src/daisy_petal.h ****         ProcessAnalogControls();
 865              		.loc 3 137 9 view .LVU228
 866              	.LBE311:
 867              	.LBE310:
  44:Pedal.cpp     **** {
 868              		.loc 16 44 1 is_stmt 0 view .LVU229
 869 0000 2DE9F043 		push	{r4, r5, r6, r7, r8, r9, lr}
 870              		.cfi_def_cfa_offset 28
 871              		.cfi_offset 4, -28
 872              		.cfi_offset 5, -24
 873              		.cfi_offset 6, -20
 874              		.cfi_offset 7, -16
 875              		.cfi_offset 8, -12
 876              		.cfi_offset 9, -8
 877              		.cfi_offset 14, -4
 878 0004 1546     		mov	r5, r2
 879 0006 0646     		mov	r6, r0
 880              	.LBB314:
 881              	.LBB312:
 882              		.loc 3 137 30 view .LVU230
 883 0008 2B48     		ldr	r0, .L58
 884              	.LVL57:
 885              		.loc 3 137 30 view .LVU231
 886              	.LBE312:
 887              	.LBE314:
  44:Pedal.cpp     **** {
 888              		.loc 16 44 1 view .LVU232
 889 000a 0F46     		mov	r7, r1
 890 000c 2DED028B 		vpush.64	{d8}
 891              		.cfi_def_cfa_offset 36
 892              		.cfi_offset 80, -36
 893              		.cfi_offset 81, -32
 894 0010 83B0     		sub	sp, sp, #12
ARM GAS  /var/folders/fs/ht5wlc7s7b56r9p0ngl7ssgc0000gn/T//ccHBcJ2G.s 			page 34


 895              		.cfi_def_cfa_offset 48
 896              	.LBB315:
 897              	.LBB313:
 898              		.loc 3 137 30 view .LVU233
 899 0012 FFF7FEFF 		bl	_ZN5daisy10DaisyPetal21ProcessAnalogControlsEv
 900              	.LVL58:
 138:../../libDaisy//src/daisy_petal.h ****         ProcessDigitalControls();
 901              		.loc 3 138 9 is_stmt 1 view .LVU234
 902              		.loc 3 138 31 is_stmt 0 view .LVU235
 903 0016 2848     		ldr	r0, .L58
 904 0018 FFF7FEFF 		bl	_ZN5daisy10DaisyPetal22ProcessDigitalControlsEv
 905              	.LVL59:
 906              		.loc 3 138 31 view .LVU236
 907              	.LBE313:
 908              	.LBE315:
  46:Pedal.cpp     **** 	processControls();
 909              		.loc 16 46 2 is_stmt 1 view .LVU237
  46:Pedal.cpp     **** 	processControls();
 910              		.loc 16 46 17 is_stmt 0 view .LVU238
 911 001c FFF7FEFF 		bl	_Z15processControlsv
 912              	.LVL60:
  47:Pedal.cpp     **** 	for (size_t i = 0; i < size; i++)
 913              		.loc 16 47 2 is_stmt 1 view .LVU239
 914              	.LBB316:
  47:Pedal.cpp     **** 	for (size_t i = 0; i < size; i++)
 915              		.loc 16 47 23 view .LVU240
 916 0020 002D     		cmp	r5, #0
 917 0022 44D0     		beq	.L47
  47:Pedal.cpp     **** 	for (size_t i = 0; i < size; i++)
 918              		.loc 16 47 14 is_stmt 0 view .LVU241
 919 0024 0024     		movs	r4, #0
 920 0026 DFF8A480 		ldr	r8, .L58+20
 921 002a 0BE0     		b	.L51
 922              	.LVL61:
 923              	.L57:
 924              	.LBB317:
  50:Pedal.cpp     **** 			out[0][i] = in[0][i];
 925              		.loc 16 50 23 view .LVU242
 926 002c 3268     		ldr	r2, [r6]
  50:Pedal.cpp     **** 			out[0][i] = in[0][i];
 927              		.loc 16 50 14 view .LVU243
 928 002e 3B68     		ldr	r3, [r7]
  50:Pedal.cpp     **** 			out[0][i] = in[0][i];
 929              		.loc 16 50 23 view .LVU244
 930 0030 02EB840C 		add	ip, r2, r4, lsl #2
  50:Pedal.cpp     **** 			out[0][i] = in[0][i];
 931              		.loc 16 50 14 view .LVU245
 932 0034 03EB8403 		add	r3, r3, r4, lsl #2
 933              	.LBE317:
  47:Pedal.cpp     **** 	for (size_t i = 0; i < size; i++)
 934              		.loc 16 47 2 view .LVU246
 935 0038 0134     		adds	r4, r4, #1
 936              	.LVL62:
 937              	.LBB321:
  50:Pedal.cpp     **** 			out[0][i] = in[0][i];
 938              		.loc 16 50 23 view .LVU247
 939 003a DCF80020 		ldr	r2, [ip]	@ float
ARM GAS  /var/folders/fs/ht5wlc7s7b56r9p0ngl7ssgc0000gn/T//ccHBcJ2G.s 			page 35


 940              	.LBE321:
  47:Pedal.cpp     **** 	for (size_t i = 0; i < size; i++)
 941              		.loc 16 47 23 view .LVU248
 942 003e A542     		cmp	r5, r4
 943              	.LBB322:
  50:Pedal.cpp     **** 			out[0][i] = in[0][i];
 944              		.loc 16 50 14 view .LVU249
 945 0040 1A60     		str	r2, [r3]	@ float
 946              	.LBE322:
  47:Pedal.cpp     **** 	for (size_t i = 0; i < size; i++)
 947              		.loc 16 47 2 is_stmt 1 view .LVU250
 948              	.LVL63:
  47:Pedal.cpp     **** 	for (size_t i = 0; i < size; i++)
 949              		.loc 16 47 23 view .LVU251
 950 0042 34D0     		beq	.L47
 951              	.LVL64:
 952              	.L51:
  47:Pedal.cpp     **** 	for (size_t i = 0; i < size; i++)
 953              		.loc 16 47 23 is_stmt 0 view .LVU252
 954              	.LBE316:
  49:Pedal.cpp     **** 		if(bypass)
 955              		.loc 16 49 3 is_stmt 1 view .LVU253
 956              	.LBB326:
 957              	.LBB323:
  50:Pedal.cpp     **** 			out[0][i] = in[0][i];
 958              		.loc 16 50 4 view .LVU254
  49:Pedal.cpp     **** 		if(bypass)
 959              		.loc 16 49 3 is_stmt 0 view .LVU255
 960 0044 98F80030 		ldrb	r3, [r8]	@ zero_extendqisi2
 961 0048 002B     		cmp	r3, #0
 962 004a EFD1     		bne	.L57
 963              	.LBB318:
  54:Pedal.cpp     **** 			float nonConstInput = in[0][i];
 964              		.loc 16 54 4 is_stmt 1 view .LVU256
  54:Pedal.cpp     **** 			float nonConstInput = in[0][i];
 965              		.loc 16 54 33 is_stmt 0 view .LVU257
 966 004c 3368     		ldr	r3, [r6]
 967 004e 4FEA8409 		lsl	r9, r4, #2
  56:Pedal.cpp     **** 			float allDelaySignals = delay.process(in[0][i]);
 968              		.loc 16 56 41 view .LVU258
 969 0052 1A48     		ldr	r0, .L58+4
  54:Pedal.cpp     **** 			float nonConstInput = in[0][i];
 970              		.loc 16 54 33 view .LVU259
 971 0054 03EB8403 		add	r3, r3, r4, lsl #2
 972              	.LBE318:
 973              	.LBE323:
  47:Pedal.cpp     **** 	for (size_t i = 0; i < size; i++)
 974              		.loc 16 47 2 view .LVU260
 975 0058 0134     		adds	r4, r4, #1
 976              	.LVL65:
 977              	.LBB324:
 978              	.LBB319:
  54:Pedal.cpp     **** 			float nonConstInput = in[0][i];
 979              		.loc 16 54 33 view .LVU261
 980 005a 93ED000A 		vldr.32	s0, [r3]
  54:Pedal.cpp     **** 			float nonConstInput = in[0][i];
 981              		.loc 16 54 10 view .LVU262
ARM GAS  /var/folders/fs/ht5wlc7s7b56r9p0ngl7ssgc0000gn/T//ccHBcJ2G.s 			page 36


 982 005e 8DED000A 		vstr.32	s0, [sp]
  55:Pedal.cpp     **** 			float finalMix = 0;
 983              		.loc 16 55 4 is_stmt 1 view .LVU263
 984              	.LVL66:
  56:Pedal.cpp     **** 			float allDelaySignals = delay.process(in[0][i]);
 985              		.loc 16 56 4 view .LVU264
  56:Pedal.cpp     **** 			float allDelaySignals = delay.process(in[0][i]);
 986              		.loc 16 56 41 is_stmt 0 view .LVU265
 987 0062 FFF7FEFF 		bl	_ZN5Delay7processEf
 988              	.LVL67:
  59:Pedal.cpp     **** 			allDelaySignals = tone.process(allDelaySignals);
 989              		.loc 16 59 34 view .LVU266
 990 0066 1648     		ldr	r0, .L58+8
  56:Pedal.cpp     **** 			float allDelaySignals = delay.process(in[0][i]);
 991              		.loc 16 56 41 view .LVU267
 992 0068 B0EE408A 		vmov.f32	s16, s0
  56:Pedal.cpp     **** 			float allDelaySignals = delay.process(in[0][i]);
 993              		.loc 16 56 50 view .LVU268
 994 006c 8DED010A 		vstr.32	s0, [sp, #4]
  57:Pedal.cpp     **** 			float preFilterDelays = allDelaySignals;
 995              		.loc 16 57 4 is_stmt 1 view .LVU269
 996              	.LVL68:
  59:Pedal.cpp     **** 			allDelaySignals = tone.process(allDelaySignals);
 997              		.loc 16 59 4 view .LVU270
  59:Pedal.cpp     **** 			allDelaySignals = tone.process(allDelaySignals);
 998              		.loc 16 59 34 is_stmt 0 view .LVU271
 999 0070 FFF7FEFF 		bl	_ZN10ToneFilter7processEf
 1000              	.LVL69:
  60:Pedal.cpp     ****             allDelaySignals = balance.Process(allDelaySignals,preFilterDelays*tone.getFactor());
 1001              		.loc 16 60 93 view .LVU272
 1002 0074 1248     		ldr	r0, .L58+8
  59:Pedal.cpp     **** 			allDelaySignals = tone.process(allDelaySignals);
 1003              		.loc 16 59 34 view .LVU273
 1004 0076 F0EE408A 		vmov.f32	s17, s0
  59:Pedal.cpp     **** 			allDelaySignals = tone.process(allDelaySignals);
 1005              		.loc 16 59 20 view .LVU274
 1006 007a 8DED010A 		vstr.32	s0, [sp, #4]
  60:Pedal.cpp     ****             allDelaySignals = balance.Process(allDelaySignals,preFilterDelays*tone.getFactor());
 1007              		.loc 16 60 13 is_stmt 1 view .LVU275
  60:Pedal.cpp     ****             allDelaySignals = balance.Process(allDelaySignals,preFilterDelays*tone.getFactor());
 1008              		.loc 16 60 93 is_stmt 0 view .LVU276
 1009 007e FFF7FEFF 		bl	_ZN10ToneFilter9getFactorEv
 1010              	.LVL70:
 1011 0082 F0EE400A 		vmov.f32	s1, s0
  60:Pedal.cpp     ****             allDelaySignals = balance.Process(allDelaySignals,preFilterDelays*tone.getFactor());
 1012              		.loc 16 60 46 view .LVU277
 1013 0086 0F48     		ldr	r0, .L58+12
 1014 0088 B0EE680A 		vmov.f32	s0, s17
 1015 008c 68EE200A 		vmul.f32	s1, s16, s1
 1016 0090 FFF7FEFF 		bl	_ZN7daisysp7Balance7ProcessEff
 1017              	.LVL71:
  62:Pedal.cpp     **** 			finalMix = crossFade.Process(nonConstInput, allDelaySignals);
 1018              		.loc 16 62 32 view .LVU278
 1019 0094 01AA     		add	r2, sp, #4
 1020 0096 6946     		mov	r1, sp
 1021 0098 0B48     		ldr	r0, .L58+16
  60:Pedal.cpp     ****             allDelaySignals = balance.Process(allDelaySignals,preFilterDelays*tone.getFactor());
ARM GAS  /var/folders/fs/ht5wlc7s7b56r9p0ngl7ssgc0000gn/T//ccHBcJ2G.s 			page 37


 1022              		.loc 16 60 29 view .LVU279
 1023 009a 8DED010A 		vstr.32	s0, [sp, #4]
  62:Pedal.cpp     **** 			finalMix = crossFade.Process(nonConstInput, allDelaySignals);
 1024              		.loc 16 62 4 is_stmt 1 view .LVU280
  62:Pedal.cpp     **** 			finalMix = crossFade.Process(nonConstInput, allDelaySignals);
 1025              		.loc 16 62 32 is_stmt 0 view .LVU281
 1026 009e FFF7FEFF 		bl	_ZN7daisysp9CrossFade7ProcessERfS1_
 1027              	.LVL72:
  66:Pedal.cpp     **** 			out[0][i] = finalMix;
 1028              		.loc 16 66 4 is_stmt 1 view .LVU282
  66:Pedal.cpp     **** 			out[0][i] = finalMix;
 1029              		.loc 16 66 14 is_stmt 0 view .LVU283
 1030 00a2 3B68     		ldr	r3, [r7]
 1031              	.LBE319:
 1032              	.LBE324:
  47:Pedal.cpp     **** 	for (size_t i = 0; i < size; i++)
 1033              		.loc 16 47 23 view .LVU284
 1034 00a4 A542     		cmp	r5, r4
 1035              	.LBB325:
 1036              	.LBB320:
  66:Pedal.cpp     **** 			out[0][i] = finalMix;
 1037              		.loc 16 66 14 view .LVU285
 1038 00a6 4B44     		add	r3, r3, r9
 1039 00a8 83ED000A 		vstr.32	s0, [r3]
 1040              	.LBE320:
 1041              	.LBE325:
  47:Pedal.cpp     **** 	for (size_t i = 0; i < size; i++)
 1042              		.loc 16 47 2 is_stmt 1 view .LVU286
 1043              	.LVL73:
  47:Pedal.cpp     **** 	for (size_t i = 0; i < size; i++)
 1044              		.loc 16 47 23 view .LVU287
 1045 00ac CAD1     		bne	.L51
 1046              	.LVL74:
 1047              	.L47:
  47:Pedal.cpp     **** 	for (size_t i = 0; i < size; i++)
 1048              		.loc 16 47 23 is_stmt 0 view .LVU288
 1049              	.LBE326:
  71:Pedal.cpp     **** }
 1050              		.loc 16 71 1 view .LVU289
 1051 00ae 03B0     		add	sp, sp, #12
 1052              		.cfi_def_cfa_offset 36
 1053              		@ sp needed
 1054 00b0 BDEC028B 		vldm	sp!, {d8}
 1055              		.cfi_restore 80
 1056              		.cfi_restore 81
 1057              		.cfi_def_cfa_offset 28
 1058 00b4 BDE8F083 		pop	{r4, r5, r6, r7, r8, r9, pc}
 1059              	.LVL75:
 1060              	.L59:
  71:Pedal.cpp     **** }
 1061              		.loc 16 71 1 view .LVU290
 1062              		.align	2
 1063              	.L58:
 1064 00b8 00000000 		.word	.LANCHOR0
 1065 00bc 00000000 		.word	.LANCHOR3
 1066 00c0 00000000 		.word	.LANCHOR11
 1067 00c4 00000000 		.word	.LANCHOR5
ARM GAS  /var/folders/fs/ht5wlc7s7b56r9p0ngl7ssgc0000gn/T//ccHBcJ2G.s 			page 38


 1068 00c8 00000000 		.word	.LANCHOR4
 1069 00cc 00000000 		.word	.LANCHOR6
 1070              		.cfi_endproc
 1071              	.LFE4812:
 1073              		.section	.text.startup._GLOBAL__sub_I_hw,"ax",%progbits
 1074              		.align	1
 1075              		.p2align 2,,3
 1076              		.syntax unified
 1077              		.thumb
 1078              		.thumb_func
 1080              	_GLOBAL__sub_I_hw:
 1081              	.LFB5388:
 1082              		.loc 16 157 1 is_stmt 1 view -0
 1083              		.cfi_startproc
 1084              		@ args = 0, pretend = 0, frame = 0
 1085              		@ frame_needed = 0, uses_anonymous_args = 0
 1086              	.LBB383:
 1087              	.LBI383:
 1088              		.loc 16 157 1 view .LVU292
 1089              	.LVL76:
 1090              	.LBB384:
 1091              	.LBB385:
 1092              	.LBI385:
  66:../../libDaisy//src/daisy_petal.h ****     /** Destructor */
 1093              		.loc 3 66 5 view .LVU293
 1094              	.LBB386:
 1095              	.LBB387:
 1096              	.LBI387:
  21:../../libDaisy//src/daisy_seed.h ****     ~DaisySeed() {}
 1097              		.loc 6 21 5 view .LVU294
 1098              	.LBB388:
 1099              	.LBB389:
 1100              	.LBI389:
 1101              		.file 17 "../../libDaisy//src/per/qspi.h"
   1:../../libDaisy//src/per/qspi.h **** #ifndef DSY_QSPI
   2:../../libDaisy//src/per/qspi.h **** #define DSY_QSPI /**< Macro */
   3:../../libDaisy//src/per/qspi.h **** 
   4:../../libDaisy//src/per/qspi.h **** #ifndef UNIT_TEST // for unit tests, a dummy implementation
   5:../../libDaisy//src/per/qspi.h **** 
   6:../../libDaisy//src/per/qspi.h **** #include <cstdint>
   7:../../libDaisy//src/per/qspi.h **** #include "daisy_core.h" // Added for dsy_gpio_pin typedef
   8:../../libDaisy//src/per/qspi.h **** 
   9:../../libDaisy//src/per/qspi.h **** #define DSY_QSPI_TEXT       \
  10:../../libDaisy//src/per/qspi.h ****     __attribute__((section( \
  11:../../libDaisy//src/per/qspi.h ****         ".qspiflash_text"))) /**< used for reading memory in memory_mapped mode. */
  12:../../libDaisy//src/per/qspi.h **** #define DSY_QSPI_DATA       \
  13:../../libDaisy//src/per/qspi.h ****     __attribute__((section( \
  14:../../libDaisy//src/per/qspi.h ****         ".qspiflash_data"))) /**< used for reading memory in memory_mapped mode. */
  15:../../libDaisy//src/per/qspi.h **** #define DSY_QSPI_BSS        \
  16:../../libDaisy//src/per/qspi.h ****     __attribute__((section( \
  17:../../libDaisy//src/per/qspi.h ****         ".qspiflash_bss"))) /**< used for reading memory in memory_mapped mode. */
  18:../../libDaisy//src/per/qspi.h **** 
  19:../../libDaisy//src/per/qspi.h **** namespace daisy
  20:../../libDaisy//src/per/qspi.h **** {
  21:../../libDaisy//src/per/qspi.h **** /** @addtogroup serial
  22:../../libDaisy//src/per/qspi.h **** @{
  23:../../libDaisy//src/per/qspi.h **** */
ARM GAS  /var/folders/fs/ht5wlc7s7b56r9p0ngl7ssgc0000gn/T//ccHBcJ2G.s 			page 39


  24:../../libDaisy//src/per/qspi.h **** 
  25:../../libDaisy//src/per/qspi.h **** /** 
  26:../../libDaisy//src/per/qspi.h ****  Driver for QSPI peripheral to interface with external flash memory. \n 
  27:../../libDaisy//src/per/qspi.h ****     Currently supported QSPI Devices: \n 
  28:../../libDaisy//src/per/qspi.h ****     * IS25LP080D
  29:../../libDaisy//src/per/qspi.h **** */
  30:../../libDaisy//src/per/qspi.h **** class QSPIHandle
  31:../../libDaisy//src/per/qspi.h **** {
  32:../../libDaisy//src/per/qspi.h ****   public:
  33:../../libDaisy//src/per/qspi.h ****     enum Result
  34:../../libDaisy//src/per/qspi.h ****     {
  35:../../libDaisy//src/per/qspi.h ****         OK = 0,
  36:../../libDaisy//src/per/qspi.h ****         ERR
  37:../../libDaisy//src/per/qspi.h ****     };
  38:../../libDaisy//src/per/qspi.h **** 
  39:../../libDaisy//src/per/qspi.h ****     /** Indicates the current status of the module. 
  40:../../libDaisy//src/per/qspi.h ****          *  Warnings are indicated by a leading W.
  41:../../libDaisy//src/per/qspi.h ****          *  Errors are indicated by a leading E and cause an immediate exit.
  42:../../libDaisy//src/per/qspi.h ****          * 
  43:../../libDaisy//src/per/qspi.h ****          *  \param GOOD - No errors have been reported.
  44:../../libDaisy//src/per/qspi.h ****          *  \param E_HAL_ERROR - HAL code did not return HAL_OK.
  45:../../libDaisy//src/per/qspi.h ****          *  \param E_SWITCHING_MODES - An error was encountered while switching QSPI peripheral mod
  46:../../libDaisy//src/per/qspi.h ****          *  \param E_INVALID_MODE - QSPI should not be written to while the program is executing fr
  47:../../libDaisy//src/per/qspi.h ****          */
  48:../../libDaisy//src/per/qspi.h ****     enum Status
  49:../../libDaisy//src/per/qspi.h ****     {
  50:../../libDaisy//src/per/qspi.h ****         GOOD = 0,
  51:../../libDaisy//src/per/qspi.h ****         E_HAL_ERROR,
  52:../../libDaisy//src/per/qspi.h ****         E_SWITCHING_MODES,
  53:../../libDaisy//src/per/qspi.h ****         E_INVALID_MODE,
  54:../../libDaisy//src/per/qspi.h ****     };
  55:../../libDaisy//src/per/qspi.h **** 
  56:../../libDaisy//src/per/qspi.h ****     /** Configuration structure for interfacing with QSPI Driver */
  57:../../libDaisy//src/per/qspi.h ****     struct Config
  58:../../libDaisy//src/per/qspi.h ****     {
  59:../../libDaisy//src/per/qspi.h ****         /** Flash Devices supported. (Both of these are more-or-less the same, just different sizes
  60:../../libDaisy//src/per/qspi.h ****         enum Device
  61:../../libDaisy//src/per/qspi.h ****         {
  62:../../libDaisy//src/per/qspi.h ****             IS25LP080D,  /**< & */
  63:../../libDaisy//src/per/qspi.h ****             IS25LP064A,  /**< & */
  64:../../libDaisy//src/per/qspi.h ****             DEVICE_LAST, /**< & */
  65:../../libDaisy//src/per/qspi.h ****         };
  66:../../libDaisy//src/per/qspi.h **** 
  67:../../libDaisy//src/per/qspi.h ****         /** 
  68:../../libDaisy//src/per/qspi.h ****         Modes of operation.
  69:../../libDaisy//src/per/qspi.h ****         Memory Mapped mode: QSPI configured so that the QSPI can be
  70:../../libDaisy//src/per/qspi.h ****         read from starting address 0x90000000. Writing is not
  71:../../libDaisy//src/per/qspi.h ****         possible in this mode. \n 
  72:../../libDaisy//src/per/qspi.h ****         Indirect Polling mode: Device driver enabled. 
  73:../../libDaisy//src/per/qspi.h ****         */
  74:../../libDaisy//src/per/qspi.h ****         enum Mode
  75:../../libDaisy//src/per/qspi.h ****         {
  76:../../libDaisy//src/per/qspi.h ****             MEMORY_MAPPED,    /**< & */
  77:../../libDaisy//src/per/qspi.h ****             INDIRECT_POLLING, /**< & */
  78:../../libDaisy//src/per/qspi.h ****             MODE_LAST,
  79:../../libDaisy//src/per/qspi.h ****         };
  80:../../libDaisy//src/per/qspi.h **** 
ARM GAS  /var/folders/fs/ht5wlc7s7b56r9p0ngl7ssgc0000gn/T//ccHBcJ2G.s 			page 40


  81:../../libDaisy//src/per/qspi.h ****         //SCK,  CE# (active low)
  82:../../libDaisy//src/per/qspi.h ****         struct
  83:../../libDaisy//src/per/qspi.h ****         {
  84:../../libDaisy//src/per/qspi.h ****             dsy_gpio_pin io0; /**< & */
  85:../../libDaisy//src/per/qspi.h ****             dsy_gpio_pin io1; /**< & */
  86:../../libDaisy//src/per/qspi.h ****             dsy_gpio_pin io2; /**< & */
  87:../../libDaisy//src/per/qspi.h ****             dsy_gpio_pin io3; /**< & */
  88:../../libDaisy//src/per/qspi.h ****             dsy_gpio_pin clk; /**< & */
  89:../../libDaisy//src/per/qspi.h ****             dsy_gpio_pin ncs; /**< & */
  90:../../libDaisy//src/per/qspi.h ****         } pin_config;
  91:../../libDaisy//src/per/qspi.h **** 
  92:../../libDaisy//src/per/qspi.h ****         Device device;
  93:../../libDaisy//src/per/qspi.h ****         Mode   mode;
  94:../../libDaisy//src/per/qspi.h ****     };
  95:../../libDaisy//src/per/qspi.h **** 
  96:../../libDaisy//src/per/qspi.h ****     /** 
  97:../../libDaisy//src/per/qspi.h ****         Initializes QSPI peripheral, and Resets, and prepares memory for access.
  98:../../libDaisy//src/per/qspi.h ****         \param config should be populated with the mode, device and pin_config before calling this 
  99:../../libDaisy//src/per/qspi.h ****         \return Result::OK or Result::ERR
 100:../../libDaisy//src/per/qspi.h ****         */
 101:../../libDaisy//src/per/qspi.h ****     Result Init(const Config& config);
 102:../../libDaisy//src/per/qspi.h **** 
 103:../../libDaisy//src/per/qspi.h ****     /** Returns the current config. */
 104:../../libDaisy//src/per/qspi.h ****     const Config& GetConfig() const;
 105:../../libDaisy//src/per/qspi.h **** 
 106:../../libDaisy//src/per/qspi.h ****     // Couldn't this just be called before anything else in init? That
 107:../../libDaisy//src/per/qspi.h ****     // would make manually calling it unnecessary.
 108:../../libDaisy//src/per/qspi.h ****     /** 
 109:../../libDaisy//src/per/qspi.h ****         Deinitializes the peripheral
 110:../../libDaisy//src/per/qspi.h ****         This should be called before reinitializing QSPI in a different mode.
 111:../../libDaisy//src/per/qspi.h ****         \return Result::OK or Result::ERR
 112:../../libDaisy//src/per/qspi.h ****         */
 113:../../libDaisy//src/per/qspi.h ****     Result DeInit();
 114:../../libDaisy//src/per/qspi.h **** 
 115:../../libDaisy//src/per/qspi.h ****     /** 
 116:../../libDaisy//src/per/qspi.h ****         Writes a single page to to the specified address on the QSPI chip.
 117:../../libDaisy//src/per/qspi.h ****         For IS25LP*, page size is 256 bytes.
 118:../../libDaisy//src/per/qspi.h ****         \param address Address to write to
 119:../../libDaisy//src/per/qspi.h ****         \param size Buffer size
 120:../../libDaisy//src/per/qspi.h ****         \param buffer Buffer to write
 121:../../libDaisy//src/per/qspi.h ****         \return Result::OK or Result::ERR
 122:../../libDaisy//src/per/qspi.h ****         */
 123:../../libDaisy//src/per/qspi.h ****     Result WritePage(uint32_t address, uint32_t size, uint8_t* buffer);
 124:../../libDaisy//src/per/qspi.h **** 
 125:../../libDaisy//src/per/qspi.h ****     /** 
 126:../../libDaisy//src/per/qspi.h ****         Writes data in buffer to to the QSPI. Starting at address to address+size 
 127:../../libDaisy//src/per/qspi.h ****         \param address Address to write to
 128:../../libDaisy//src/per/qspi.h ****         \param size Buffer size
 129:../../libDaisy//src/per/qspi.h ****         \param buffer Buffer to write
 130:../../libDaisy//src/per/qspi.h ****         \return Result::OK or Result::ERR
 131:../../libDaisy//src/per/qspi.h ****         */
 132:../../libDaisy//src/per/qspi.h ****     Result Write(uint32_t address, uint32_t size, uint8_t* buffer);
 133:../../libDaisy//src/per/qspi.h **** 
 134:../../libDaisy//src/per/qspi.h ****     /** 
 135:../../libDaisy//src/per/qspi.h ****         Erases the area specified on the chip.
 136:../../libDaisy//src/per/qspi.h ****         Erasures will happen by 4K, 32K or 64K increments.
 137:../../libDaisy//src/per/qspi.h ****         Smallest erase possible is 4kB at a time. (on IS25LP*)
ARM GAS  /var/folders/fs/ht5wlc7s7b56r9p0ngl7ssgc0000gn/T//ccHBcJ2G.s 			page 41


 138:../../libDaisy//src/per/qspi.h ****         \param start_addr Address to begin erasing from
 139:../../libDaisy//src/per/qspi.h ****         \param end_addr  Address to stop erasing at
 140:../../libDaisy//src/per/qspi.h ****         \return Result::OK or Result::ERR
 141:../../libDaisy//src/per/qspi.h ****         */
 142:../../libDaisy//src/per/qspi.h ****     Result Erase(uint32_t start_addr, uint32_t end_addr);
 143:../../libDaisy//src/per/qspi.h **** 
 144:../../libDaisy//src/per/qspi.h ****     /**  
 145:../../libDaisy//src/per/qspi.h ****          Erases a single sector of the chip.  
 146:../../libDaisy//src/per/qspi.h ****         TODO: Document the size of this function. 
 147:../../libDaisy//src/per/qspi.h ****         \param address Address of sector to erase
 148:../../libDaisy//src/per/qspi.h ****         \return Result::OK or Result::ERR
 149:../../libDaisy//src/per/qspi.h ****         */
 150:../../libDaisy//src/per/qspi.h ****     Result EraseSector(uint32_t address);
 151:../../libDaisy//src/per/qspi.h **** 
 152:../../libDaisy//src/per/qspi.h ****     /** Returns the current class status. Useful for debugging.
 153:../../libDaisy//src/per/qspi.h ****      *  \returns Status
 154:../../libDaisy//src/per/qspi.h ****      */
 155:../../libDaisy//src/per/qspi.h ****     Status GetStatus();
 156:../../libDaisy//src/per/qspi.h **** 
 157:../../libDaisy//src/per/qspi.h ****     /** Returns a pointer to the actual memory used 
 158:../../libDaisy//src/per/qspi.h ****      *  The memory at this address is read-only
 159:../../libDaisy//src/per/qspi.h ****      *  to write to it use the Write function.
 160:../../libDaisy//src/per/qspi.h ****      * 
 161:../../libDaisy//src/per/qspi.h ****      *  \param offset returns the pointer starting this 
 162:../../libDaisy//src/per/qspi.h ****      *                many bytes into the memory
 163:../../libDaisy//src/per/qspi.h ****     */
 164:../../libDaisy//src/per/qspi.h ****     void* GetData(uint32_t offset = 0);
 165:../../libDaisy//src/per/qspi.h **** 
 166:../../libDaisy//src/per/qspi.h ****     QSPIHandle() : pimpl_(nullptr) {}
 1102              		.loc 17 166 5 view .LVU295
 1103              	.LBE389:
 1104              	.LBE388:
 1105              	.LBE387:
 1106              	.LBE386:
 1107              	.LBE385:
 1108              	.LBE384:
 1109              	.LBE383:
 1110              		.loc 16 157 1 is_stmt 0 view .LVU296
 1111 0000 70B5     		push	{r4, r5, r6, lr}
 1112              		.cfi_def_cfa_offset 16
 1113              		.cfi_offset 4, -16
 1114              		.cfi_offset 5, -12
 1115              		.cfi_offset 6, -8
 1116              		.cfi_offset 14, -4
 1117              	.LBB453:
 1118              	.LBB449:
 1119              	.LBB428:
 1120              	.LBB425:
 1121              	.LBB409:
 1122              	.LBB406:
 1123              	.LBB394:
 1124              	.LBB390:
 1125              	.LBB391:
 1126              		.loc 17 166 34 view .LVU297
 1127 0002 0025     		movs	r5, #0
 1128 0004 2C4C     		ldr	r4, .L62
 1129              	.LBE391:
ARM GAS  /var/folders/fs/ht5wlc7s7b56r9p0ngl7ssgc0000gn/T//ccHBcJ2G.s 			page 42


 1130              	.LBE390:
 1131              	.LBE394:
 1132              	.LBE406:
 1133              	.LBE409:
 1134              	.LBB410:
 1135              	.LBB411:
 1136              		.file 18 "../../libDaisy//src/dev/leddriver.h"
   1:../../libDaisy//src/dev/leddriver.h **** #pragma once
   2:../../libDaisy//src/dev/leddriver.h **** #ifndef SA_LED_DRIVER_H
   3:../../libDaisy//src/dev/leddriver.h **** #define SA_LED_DRIVER_H /**< & */
   4:../../libDaisy//src/dev/leddriver.h **** 
   5:../../libDaisy//src/dev/leddriver.h **** #ifdef __cplusplus
   6:../../libDaisy//src/dev/leddriver.h **** 
   7:../../libDaisy//src/dev/leddriver.h **** #include <stdint.h>
   8:../../libDaisy//src/dev/leddriver.h **** #include "per/i2c.h"
   9:../../libDaisy//src/dev/leddriver.h **** #include "per/gpio.h"
  10:../../libDaisy//src/dev/leddriver.h **** 
  11:../../libDaisy//src/dev/leddriver.h **** namespace daisy
  12:../../libDaisy//src/dev/leddriver.h **** {
  13:../../libDaisy//src/dev/leddriver.h **** /** LED driver for one or multiple PCA9685 12bit PWM chips connected to
  14:../../libDaisy//src/dev/leddriver.h ****  * a single I2C peripheral.
  15:../../libDaisy//src/dev/leddriver.h ****  * It includes gamma correction from 8bit brightness values but it 
  16:../../libDaisy//src/dev/leddriver.h ****  * can also be supplied with raw 12bit values.
  17:../../libDaisy//src/dev/leddriver.h ****  * This driver uses two buffers - one for drawing, one for transmitting.
  18:../../libDaisy//src/dev/leddriver.h ****  * Multiple LedDriverPca9685 instances can be used at the same time.
  19:../../libDaisy//src/dev/leddriver.h ****  * \param numDrivers    The number of PCA9685 driver attached to the I2C
  20:../../libDaisy//src/dev/leddriver.h ****  *                      peripheral.
  21:../../libDaisy//src/dev/leddriver.h ****  * \param persistentBufferContents If set to true, the current draw buffer 
  22:../../libDaisy//src/dev/leddriver.h ****  *                      contents will be copied to the next draw buffer 
  23:../../libDaisy//src/dev/leddriver.h ****  *                      during SwapBuffersAndTransmit(). Use this, if you plan
  24:../../libDaisy//src/dev/leddriver.h ****  *                      to write single leds at a time. 
  25:../../libDaisy//src/dev/leddriver.h ****  *                      If you will alway update all leds before calling 
  26:../../libDaisy//src/dev/leddriver.h ****  *                      SwapBuffersAndTransmit(), you can set this to false
  27:../../libDaisy//src/dev/leddriver.h ****  *                      and safe some cycles.
  28:../../libDaisy//src/dev/leddriver.h ****  * 
  29:../../libDaisy//src/dev/leddriver.h ****  *  @ingroup device
  30:../../libDaisy//src/dev/leddriver.h ****  */
  31:../../libDaisy//src/dev/leddriver.h **** template <int numDrivers, bool persistentBufferContents = true>
  32:../../libDaisy//src/dev/leddriver.h **** class LedDriverPca9685
 1137              		.loc 18 32 7 view .LVU298
 1138 0006 4FF40072 		mov	r2, #512
 1139 000a 2C49     		ldr	r1, .L62+4
 1140              	.LBE411:
 1141              	.LBE410:
 1142              	.LBB417:
 1143              	.LBB407:
 1144              	.LBB395:
 1145              	.LBB393:
 1146              	.LBB392:
 1147              		.loc 17 166 34 view .LVU299
 1148 000c 2560     		str	r5, [r4]
 1149              	.LVL77:
 1150              		.loc 17 166 34 view .LVU300
 1151              	.LBE392:
 1152              	.LBE393:
 1153              	.LBE395:
 1154              	.LBB396:
ARM GAS  /var/folders/fs/ht5wlc7s7b56r9p0ngl7ssgc0000gn/T//ccHBcJ2G.s 			page 43


 1155              	.LBI396:
  95:../../libDaisy//src/hid/audio.h ****     ~AudioHandle() {}
 1156              		.loc 10 95 5 is_stmt 1 view .LVU301
 1157              	.LBE396:
 1158              	.LBE407:
 1159              	.LBE417:
 1160              	.LBB418:
 1161              	.LBB415:
 1162              		.loc 18 32 7 is_stmt 0 view .LVU302
 1163 000e 04F2DA40 		addw	r0, r4, #1242
 1164              	.LBE415:
 1165              	.LBE418:
 1166              	.LBB419:
 1167              	.LBB408:
 1168              	.LBB399:
 1169              	.LBB397:
 1170              	.LBB398:
  95:../../libDaisy//src/hid/audio.h ****     ~AudioHandle() {}
 1171              		.loc 10 95 35 view .LVU303
 1172 0012 6561     		str	r5, [r4, #20]
 1173              	.LVL78:
  95:../../libDaisy//src/hid/audio.h ****     ~AudioHandle() {}
 1174              		.loc 10 95 35 view .LVU304
 1175              	.LBE398:
 1176              	.LBE397:
 1177              	.LBE399:
 1178              	.LBB400:
 1179              	.LBI400:
  92:../../libDaisy//src/per/adc.h ****     ~AdcHandle() {}
 1180              		.loc 9 92 5 is_stmt 1 view .LVU305
  92:../../libDaisy//src/per/adc.h ****     ~AdcHandle() {}
 1181              		.loc 9 92 5 is_stmt 0 view .LVU306
 1182              	.LBE400:
 1183              	.LBB401:
 1184              	.LBI401:
 1185              		.file 19 "../../libDaisy//src/per/dac.h"
   1:../../libDaisy//src/per/dac.h **** #pragma once
   2:../../libDaisy//src/per/dac.h **** #ifndef DSY_DAC_H
   3:../../libDaisy//src/per/dac.h **** #define DSY_DAC_H
   4:../../libDaisy//src/per/dac.h **** 
   5:../../libDaisy//src/per/dac.h **** #include "daisy_core.h"
   6:../../libDaisy//src/per/dac.h **** 
   7:../../libDaisy//src/per/dac.h **** namespace daisy
   8:../../libDaisy//src/per/dac.h **** {
   9:../../libDaisy//src/per/dac.h **** /** @brief DAC handle for Built-in DAC Peripheral 
  10:../../libDaisy//src/per/dac.h ****  *  @ingroup per_analog
  11:../../libDaisy//src/per/dac.h ****  ** 
  12:../../libDaisy//src/per/dac.h ****  ** For now only Normal Mode is supported,
  13:../../libDaisy//src/per/dac.h ****  ** Sample and hold mode provides reduced power consumption, but requires a bit more setup.
  14:../../libDaisy//src/per/dac.h ****  **
  15:../../libDaisy//src/per/dac.h ****  ** For now connecting the DAC through other internal peripherals is also not supported.
  16:../../libDaisy//src/per/dac.h ****  **
  17:../../libDaisy//src/per/dac.h ****  ** Since the DAC channels have dedicated pins we don't need to pass in a pin config like with
  18:../../libDaisy//src/per/dac.h ****  ** other modules. However, it is still important to not try to use the DAC pins for anything else.
  19:../../libDaisy//src/per/dac.h ****  ** DAC Channel 1 is on PA4, and DAC Channel 2 is on PA5
  20:../../libDaisy//src/per/dac.h ****  ***/
  21:../../libDaisy//src/per/dac.h **** class DacHandle
ARM GAS  /var/folders/fs/ht5wlc7s7b56r9p0ngl7ssgc0000gn/T//ccHBcJ2G.s 			page 44


  22:../../libDaisy//src/per/dac.h **** {
  23:../../libDaisy//src/per/dac.h ****   public:
  24:../../libDaisy//src/per/dac.h ****     /** Return Values for the DacHandle class */
  25:../../libDaisy//src/per/dac.h ****     enum class Result
  26:../../libDaisy//src/per/dac.h ****     {
  27:../../libDaisy//src/per/dac.h ****         OK,
  28:../../libDaisy//src/per/dac.h ****         ERR,
  29:../../libDaisy//src/per/dac.h ****     };
  30:../../libDaisy//src/per/dac.h **** 
  31:../../libDaisy//src/per/dac.h ****     /** Selects which channel(s) will be configured for use. */
  32:../../libDaisy//src/per/dac.h ****     enum class Channel
  33:../../libDaisy//src/per/dac.h ****     {
  34:../../libDaisy//src/per/dac.h ****         ONE,
  35:../../libDaisy//src/per/dac.h ****         TWO,
  36:../../libDaisy//src/per/dac.h ****         BOTH,
  37:../../libDaisy//src/per/dac.h ****     };
  38:../../libDaisy//src/per/dac.h **** 
  39:../../libDaisy//src/per/dac.h ****     /** Sets the Mode for the DAC channels.
  40:../../libDaisy//src/per/dac.h ****      **
  41:../../libDaisy//src/per/dac.h ****      ** Polling mode uses the blocking mode to transmit a single value at a time.
  42:../../libDaisy//src/per/dac.h ****      **
  43:../../libDaisy//src/per/dac.h ****      ** DMA mode uses a buffer, and periodically transmits it triggering a 
  44:../../libDaisy//src/per/dac.h ****      ** callback to fill the buffer when it is ready for more samples.
  45:../../libDaisy//src/per/dac.h ****      ***/
  46:../../libDaisy//src/per/dac.h ****     enum class Mode
  47:../../libDaisy//src/per/dac.h ****     {
  48:../../libDaisy//src/per/dac.h ****         POLLING,
  49:../../libDaisy//src/per/dac.h ****         DMA,
  50:../../libDaisy//src/per/dac.h ****     };
  51:../../libDaisy//src/per/dac.h **** 
  52:../../libDaisy//src/per/dac.h ****     /** Sets the number of bits per sample transmitted out of the DAC.
  53:../../libDaisy//src/per/dac.h ****      ** The output range will be: 0V - VDDA
  54:../../libDaisy//src/per/dac.h ****      ** The resolution will be roughly: bitdepth / (VDDA - 0V) 
  55:../../libDaisy//src/per/dac.h ****      ***/
  56:../../libDaisy//src/per/dac.h ****     enum class BitDepth
  57:../../libDaisy//src/per/dac.h ****     {
  58:../../libDaisy//src/per/dac.h ****         BITS_8,
  59:../../libDaisy//src/per/dac.h ****         BITS_12
  60:../../libDaisy//src/per/dac.h ****     };
  61:../../libDaisy//src/per/dac.h **** 
  62:../../libDaisy//src/per/dac.h ****     /** Sets whether the DAC output is buffered for higher drive ability. */
  63:../../libDaisy//src/per/dac.h ****     enum class BufferState
  64:../../libDaisy//src/per/dac.h ****     {
  65:../../libDaisy//src/per/dac.h ****         ENABLED,
  66:../../libDaisy//src/per/dac.h ****         DISABLED,
  67:../../libDaisy//src/per/dac.h ****     };
  68:../../libDaisy//src/per/dac.h **** 
  69:../../libDaisy//src/per/dac.h ****     /** Configuration structure for initializing the DAC structure. */
  70:../../libDaisy//src/per/dac.h ****     struct Config
  71:../../libDaisy//src/per/dac.h ****     {
  72:../../libDaisy//src/per/dac.h ****         /** Target Samplerate in Hz used to configure the internal 
  73:../../libDaisy//src/per/dac.h ****          ** timebase for DMA mode. Does nothing in POLLING mode.
  74:../../libDaisy//src/per/dac.h ****          ** If the value is 0 at Init time this will default to 48000Hz 
  75:../../libDaisy//src/per/dac.h ****          ** otherwise the driver will attempt meet the target.*/
  76:../../libDaisy//src/per/dac.h ****         uint32_t target_samplerate;
  77:../../libDaisy//src/per/dac.h **** 
  78:../../libDaisy//src/per/dac.h ****         Channel     chn;
ARM GAS  /var/folders/fs/ht5wlc7s7b56r9p0ngl7ssgc0000gn/T//ccHBcJ2G.s 			page 45


  79:../../libDaisy//src/per/dac.h ****         Mode        mode;
  80:../../libDaisy//src/per/dac.h ****         BitDepth    bitdepth;
  81:../../libDaisy//src/per/dac.h ****         BufferState buff_state;
  82:../../libDaisy//src/per/dac.h ****     };
  83:../../libDaisy//src/per/dac.h **** 
  84:../../libDaisy//src/per/dac.h ****     DacHandle() : pimpl_(nullptr) {}
 1186              		.loc 19 84 5 is_stmt 1 view .LVU307
 1187              	.LBB402:
 1188              	.LBB403:
 1189              		.loc 19 84 33 is_stmt 0 view .LVU308
 1190 0014 2562     		str	r5, [r4, #32]
 1191              	.LVL79:
 1192              		.loc 19 84 33 view .LVU309
 1193              	.LBE403:
 1194              	.LBE402:
 1195              	.LBE401:
 1196              	.LBB404:
 1197              	.LBI404:
  40:../../libDaisy//src/hid/usb.h **** 
 1198              		.loc 8 40 5 is_stmt 1 view .LVU310
  40:../../libDaisy//src/hid/usb.h **** 
 1199              		.loc 8 40 5 is_stmt 0 view .LVU311
 1200              	.LBE404:
 1201              	.LBB405:
 1202              	.LBI405:
  77:../../libDaisy//src/sys/system.h ****     ~System() {}
 1203              		.loc 7 77 5 is_stmt 1 view .LVU312
  77:../../libDaisy//src/sys/system.h ****     ~System() {}
 1204              		.loc 7 77 5 is_stmt 0 view .LVU313
 1205              	.LBE405:
 1206              	.LBE408:
 1207              	.LBE419:
 1208              	.LBB420:
 1209              	.LBI420:
  20:../../libDaisy//src/hid/encoder.h ****     ~Encoder() {}
 1210              		.loc 4 20 5 is_stmt 1 view .LVU314
 1211              	.LBB421:
 1212              	.LBB422:
 1213              	.LBI422:
  41:../../libDaisy//src/hid/switch.h ****     ~Switch() {}
 1214              		.loc 5 41 5 view .LVU315
  41:../../libDaisy//src/hid/switch.h ****     ~Switch() {}
 1215              		.loc 5 41 5 is_stmt 0 view .LVU316
 1216              	.LBE422:
 1217              	.LBE421:
 1218              	.LBE420:
 1219              	.LBE425:
 1220              	.LBE428:
 1221              	.LBE449:
 1222              	.LBE453:
  66:../../libDaisy//src/daisy_petal.h ****     /** Destructor */
 1223              		.loc 3 66 18 is_stmt 1 view .LVU317
 1224              	.LBB454:
 1225              	.LBB450:
 1226              	.LBB429:
 1227              	.LBB426:
 1228              	.LBB423:
ARM GAS  /var/folders/fs/ht5wlc7s7b56r9p0ngl7ssgc0000gn/T//ccHBcJ2G.s 			page 46


 1229              	.LBI423:
  21:../../libDaisy//src/hid/ctrl.h ****     /** destructor */
 1230              		.loc 2 21 5 view .LVU318
  21:../../libDaisy//src/hid/ctrl.h ****     /** destructor */
 1231              		.loc 2 21 5 is_stmt 0 view .LVU319
 1232              	.LBE423:
 1233              	.LBE426:
 1234              	.LBE429:
 1235              	.LBE450:
 1236              	.LBE454:
  66:../../libDaisy//src/daisy_petal.h ****     /** Destructor */
 1237              		.loc 3 66 18 is_stmt 1 view .LVU320
  66:../../libDaisy//src/daisy_petal.h ****     /** Destructor */
 1238              		.loc 3 66 18 view .LVU321
  66:../../libDaisy//src/daisy_petal.h ****     /** Destructor */
 1239              		.loc 3 66 18 view .LVU322
 1240              	.LBB455:
 1241              	.LBB451:
 1242              	.LBB430:
 1243              	.LBB427:
 1244              	.LBB424:
 1245              	.LBI410:
 1246              		.loc 18 32 7 view .LVU323
 1247              	.LBB416:
 1248              	.LBB412:
 1249              	.LBI412:
 1250              		.file 20 "../../libDaisy//src/per/i2c.h"
   1:../../libDaisy//src/per/i2c.h **** #pragma once
   2:../../libDaisy//src/per/i2c.h **** #include "daisy_core.h"
   3:../../libDaisy//src/per/i2c.h **** 
   4:../../libDaisy//src/per/i2c.h **** namespace daisy
   5:../../libDaisy//src/per/i2c.h **** {
   6:../../libDaisy//src/per/i2c.h **** /** A handle for interacting with an I2C peripheral. This is a dumb
   7:../../libDaisy//src/per/i2c.h ****  *  gateway that internally points to one of the four I2C peripherals
   8:../../libDaisy//src/per/i2c.h ****  *  after it was initialised. It can then be copied and passed around.
   9:../../libDaisy//src/per/i2c.h ****  *  Use an I2CHandle like this:
  10:../../libDaisy//src/per/i2c.h ****  *  
  11:../../libDaisy//src/per/i2c.h ****  *      // setup the configuration
  12:../../libDaisy//src/per/i2c.h ****  *      I2CHandle::Config i2c_conf;
  13:../../libDaisy//src/per/i2c.h ****  *      i2c_conf.periph = I2CHandle::Config::Peripheral::I2C_1;
  14:../../libDaisy//src/per/i2c.h ****  *      i2c_conf.speed  = I2CHandle::Config::Speed::I2C_400KHZ;
  15:../../libDaisy//src/per/i2c.h ****  *      i2c_conf.mode   = I2CHandle::Config::Mode::Master;
  16:../../libDaisy//src/per/i2c.h ****  *      i2c_conf.pin_config.scl  = {DSY_GPIOB, 8};
  17:../../libDaisy//src/per/i2c.h ****  *      i2c_conf.pin_config.sda  = {DSY_GPIOB, 9};
  18:../../libDaisy//src/per/i2c.h ****  *      // initialise the peripheral
  19:../../libDaisy//src/per/i2c.h ****  *      I2CHandle i2c;
  20:../../libDaisy//src/per/i2c.h ****  *      i2c.Init(i2c_conf);
  21:../../libDaisy//src/per/i2c.h ****  *      // now i2c points to the corresponding peripheral and can be used.
  22:../../libDaisy//src/per/i2c.h ****  *      i2c.TransmitBlocking( ... );
  23:../../libDaisy//src/per/i2c.h ****  */
  24:../../libDaisy//src/per/i2c.h **** class I2CHandle
  25:../../libDaisy//src/per/i2c.h **** {
  26:../../libDaisy//src/per/i2c.h ****   public:
  27:../../libDaisy//src/per/i2c.h ****     /** Contains settings for initialising an I2C interface. */
  28:../../libDaisy//src/per/i2c.h ****     struct Config
  29:../../libDaisy//src/per/i2c.h ****     {
  30:../../libDaisy//src/per/i2c.h ****         /** Specifies whether the interface will operate in master or slave mode. */
ARM GAS  /var/folders/fs/ht5wlc7s7b56r9p0ngl7ssgc0000gn/T//ccHBcJ2G.s 			page 47


  31:../../libDaisy//src/per/i2c.h ****         enum class Mode
  32:../../libDaisy//src/per/i2c.h ****         {
  33:../../libDaisy//src/per/i2c.h ****             I2C_MASTER,
  34:../../libDaisy//src/per/i2c.h ****             I2C_SLAVE,
  35:../../libDaisy//src/per/i2c.h ****         };
  36:../../libDaisy//src/per/i2c.h **** 
  37:../../libDaisy//src/per/i2c.h ****         /** Specifices the internal peripheral to use (these are mapped to different pins on the ha
  38:../../libDaisy//src/per/i2c.h ****         enum class Peripheral
  39:../../libDaisy//src/per/i2c.h ****         {
  40:../../libDaisy//src/per/i2c.h ****             I2C_1 = 0, /**< & */
  41:../../libDaisy//src/per/i2c.h ****             I2C_2,     /**< & */
  42:../../libDaisy//src/per/i2c.h ****             I2C_3,     /**< & */
  43:../../libDaisy//src/per/i2c.h ****             I2C_4,     /**< & */
  44:../../libDaisy//src/per/i2c.h ****         };
  45:../../libDaisy//src/per/i2c.h **** 
  46:../../libDaisy//src/per/i2c.h ****         /** Rate at which the clock/data will be sent/received. The device being used will have max
  47:../../libDaisy//src/per/i2c.h ****          *  1MHZ Mode is currently 886kHz
  48:../../libDaisy//src/per/i2c.h ****          */
  49:../../libDaisy//src/per/i2c.h ****         enum class Speed
  50:../../libDaisy//src/per/i2c.h ****         {
  51:../../libDaisy//src/per/i2c.h ****             I2C_100KHZ, /**< & */
  52:../../libDaisy//src/per/i2c.h ****             I2C_400KHZ, /**< & */
  53:../../libDaisy//src/per/i2c.h ****             I2C_1MHZ,   /**< & */
  54:../../libDaisy//src/per/i2c.h ****         };
  55:../../libDaisy//src/per/i2c.h **** 
  56:../../libDaisy//src/per/i2c.h ****         Peripheral periph; /**< & */
  57:../../libDaisy//src/per/i2c.h ****         struct
  58:../../libDaisy//src/per/i2c.h ****         {
  59:../../libDaisy//src/per/i2c.h ****             dsy_gpio_pin scl; /**< & */
  60:../../libDaisy//src/per/i2c.h ****             dsy_gpio_pin sda; /**< & */
  61:../../libDaisy//src/per/i2c.h ****         } pin_config;         /**< & */
  62:../../libDaisy//src/per/i2c.h **** 
  63:../../libDaisy//src/per/i2c.h ****         Speed speed; /**< & */
  64:../../libDaisy//src/per/i2c.h ****         Mode  mode;  /**< & */
  65:../../libDaisy//src/per/i2c.h ****         // 0x10 is chosen as a default to avoid conflicts with reserved addresses
  66:../../libDaisy//src/per/i2c.h ****         uint8_t address = 0x10; /**< & */
  67:../../libDaisy//src/per/i2c.h ****     };
  68:../../libDaisy//src/per/i2c.h **** 
  69:../../libDaisy//src/per/i2c.h ****     /** Return values for I2C functions. */
  70:../../libDaisy//src/per/i2c.h ****     enum class Result
  71:../../libDaisy//src/per/i2c.h ****     {
  72:../../libDaisy//src/per/i2c.h ****         OK, /**< & */
  73:../../libDaisy//src/per/i2c.h ****         ERR /**< & */
  74:../../libDaisy//src/per/i2c.h ****     };
  75:../../libDaisy//src/per/i2c.h **** 
  76:../../libDaisy//src/per/i2c.h ****     enum class Direction
  77:../../libDaisy//src/per/i2c.h ****     {
  78:../../libDaisy//src/per/i2c.h ****         TRANSMIT, /**< & */
  79:../../libDaisy//src/per/i2c.h ****         RECEIVE,  /**< & */
  80:../../libDaisy//src/per/i2c.h ****     };
  81:../../libDaisy//src/per/i2c.h **** 
  82:../../libDaisy//src/per/i2c.h ****     I2CHandle() : pimpl_(nullptr) {}
 1251              		.loc 20 82 5 view .LVU324
 1252              	.LBB413:
 1253              	.LBB414:
 1254              		.loc 20 82 33 is_stmt 0 view .LVU325
 1255 0016 C4F8C454 		str	r5, [r4, #1220]
ARM GAS  /var/folders/fs/ht5wlc7s7b56r9p0ngl7ssgc0000gn/T//ccHBcJ2G.s 			page 48


 1256              	.LVL80:
 1257              		.loc 20 82 33 view .LVU326
 1258              	.LBE414:
 1259              	.LBE413:
 1260              	.LBE412:
 1261              		.loc 18 32 7 view .LVU327
 1262 001a FFF7FEFF 		bl	memcpy
 1263              	.LVL81:
 1264              		.loc 18 32 7 view .LVU328
 1265              	.LBE416:
 1266              	.LBE424:
 1267              	.LBE427:
 1268              	.LBE430:
  13:Pedal.cpp     **** DaisyPetal hw;
 1269              		.loc 16 13 12 view .LVU329
 1270 001e 284A     		ldr	r2, .L62+8
 1271 0020 2849     		ldr	r1, .L62+12
 1272 0022 2046     		mov	r0, r4
 1273 0024 FFF7FEFF 		bl	__aeabi_atexit
 1274              	.LVL82:
  14:Pedal.cpp     **** Delay delay;
 1275              		.loc 16 14 7 view .LVU330
 1276 0028 2748     		ldr	r0, .L62+16
 1277 002a FFF7FEFF 		bl	_ZN5DelayC1Ev
 1278              	.LVL83:
 1279              	.LBB431:
 1280              	.LBI431:
  22:../../DaisySP//Source/Dynamics/balance.h ****     ~Balance() {}
 1281              		.loc 11 22 5 is_stmt 1 view .LVU331
  22:../../DaisySP//Source/Dynamics/balance.h ****     ~Balance() {}
 1282              		.loc 11 22 5 is_stmt 0 view .LVU332
 1283              	.LBE431:
  15:Pedal.cpp     **** Balance balance;
 1284              		.loc 16 15 9 view .LVU333
 1285 002e 244A     		ldr	r2, .L62+8
 1286 0030 2649     		ldr	r1, .L62+20
 1287 0032 2748     		ldr	r0, .L62+24
 1288              	.LBB432:
 1289              	.LBB433:
 1290              		.file 21 "TapTempo.h"
   1:TapTempo.h    **** /*
   2:TapTempo.h    ****  * Ported from https://github.com/dxinteractive/ArduinoTapTempo/tree/master 
   3:TapTempo.h    ****  * Info from original file below
   4:TapTempo.h    ****  * 
   5:TapTempo.h    ****  * An Arduino library that times consecutive button presses to calculate Beats Per Minute. Corrects
   6:TapTempo.h    ****  * Copyright (c) 2016 Damien Clarke
   7:TapTempo.h    ****  * 
   8:TapTempo.h    ****  * Permission is hereby granted, free of charge, to any person obtaining a copy
   9:TapTempo.h    ****  * of this software and associated documentation files (the "Software"), to deal
  10:TapTempo.h    ****  * in the Software without restriction, including without limitation the rights
  11:TapTempo.h    ****  * to use, copy, modify, merge, publish, distribute, sublicense, and/or sell
  12:TapTempo.h    ****  * copies of the Software, and to permit persons to whom the Software is
  13:TapTempo.h    ****  * furnished to do so, subject to the following conditions:
  14:TapTempo.h    ****  * 
  15:TapTempo.h    ****  * The above copyright notice and this permission notice shall be included in all
  16:TapTempo.h    ****  * copies or substantial portions of the Software.
  17:TapTempo.h    ****  * 
ARM GAS  /var/folders/fs/ht5wlc7s7b56r9p0ngl7ssgc0000gn/T//ccHBcJ2G.s 			page 49


  18:TapTempo.h    ****  * THE SOFTWARE IS PROVIDED "AS IS", WITHOUT WARRANTY OF ANY KIND, EXPRESS OR
  19:TapTempo.h    ****  * IMPLIED, INCLUDING BUT NOT LIMITED TO THE WARRANTIES OF MERCHANTABILITY,
  20:TapTempo.h    ****  * FITNESS FOR A PARTICULAR PURPOSE AND NONINFRINGEMENT. IN NO EVENT SHALL THE
  21:TapTempo.h    ****  * AUTHORS OR COPYRIGHT HOLDERS BE LIABLE FOR ANY CLAIM, DAMAGES OR OTHER
  22:TapTempo.h    ****  * LIABILITY, WHETHER IN AN ACTION OF CONTRACT, TORT OR OTHERWISE, ARISING FROM,
  23:TapTempo.h    ****  * OUT OF OR IN CONNECTION WITH THE SOFTWARE OR THE USE OR OTHER DEALINGS IN THE
  24:TapTempo.h    ****  * SOFTWARE.  
  25:TapTempo.h    ****  */
  26:TapTempo.h    ****  
  27:TapTempo.h    **** #ifndef TAP_TEMPO_H
  28:TapTempo.h    **** #define TAP_TEMPO_H
  29:TapTempo.h    **** #include <math.h>
  30:TapTempo.h    **** #include "daisy_seed.h"
  31:TapTempo.h    **** 
  32:TapTempo.h    **** class TapTempo
 1291              		.loc 21 32 7 view .LVU334
 1292 0034 274C     		ldr	r4, .L62+28
 1293              	.LBE433:
 1294              	.LBE432:
  15:Pedal.cpp     **** Balance balance;
 1295              		.loc 16 15 9 view .LVU335
 1296 0036 FFF7FEFF 		bl	__aeabi_atexit
 1297              	.LVL84:
 1298              	.LBB438:
 1299              	.LBI432:
 1300              		.loc 21 32 7 is_stmt 1 view .LVU336
 1301              	.LBB434:
 1302 003a 274B     		ldr	r3, .L62+32
 1303 003c 4FF4FA62 		mov	r2, #2000
 1304 0040 2649     		ldr	r1, .L62+36
 1305 0042 2361     		str	r3, [r4, #16]	@ float
 1306 0044 4FF4FA73 		mov	r3, #500
 1307 0048 6161     		str	r1, [r4, #20]	@ float
 1308 004a 0321     		movs	r1, #3
 1309 004c 6362     		str	r3, [r4, #36]
 1310 004e FA23     		movs	r3, #250
 1311 0050 2576     		strb	r5, [r4, #24]
 1312              	.LBE434:
 1313              	.LBE438:
  17:Pedal.cpp     **** ToneFilter tone(48000.f);
 1314              		.loc 16 17 24 is_stmt 0 view .LVU337
 1315 0052 234E     		ldr	r6, .L62+40
 1316              	.LBB439:
 1317              	.LBB435:
 1318              		.loc 21 32 7 view .LVU338
 1319 0054 C4E90023 		strd	r2, r3, [r4]
 1320 0058 0823     		movs	r3, #8
 1321 005a C4E90755 		strd	r5, r5, [r4, #28]
 1322 005e C4E90213 		strd	r1, r3, [r4, #8]
 1323 0062 FFF7FEFF 		bl	_ZN5daisy6System6GetNowEv
 1324              	.LVL85:
 1325 0066 0123     		movs	r3, #1
 1326              	.LBE435:
 1327              	.LBE439:
  17:Pedal.cpp     **** ToneFilter tone(48000.f);
 1328              		.loc 16 17 24 view .LVU339
 1329 0068 9FED1E0A 		vldr.32	s0, .L62+44
ARM GAS  /var/folders/fs/ht5wlc7s7b56r9p0ngl7ssgc0000gn/T//ccHBcJ2G.s 			page 50


 1330              	.LBB440:
 1331              	.LBB436:
 1332              		.loc 21 32 7 view .LVU340
 1333 006c A4F86030 		strh	r3, [r4, #96]	@ movhi
 1334              	.LVL86:
 1335              		.loc 21 32 7 view .LVU341
 1336 0070 E562     		str	r5, [r4, #44]
 1337 0072 A565     		str	r5, [r4, #88]
 1338 0074 A062     		str	r0, [r4, #40]
 1339              	.LBE436:
 1340              	.LBE440:
  17:Pedal.cpp     **** ToneFilter tone(48000.f);
 1341              		.loc 16 17 24 view .LVU342
 1342 0076 3046     		mov	r0, r6
 1343              	.LBB441:
 1344              	.LBB437:
 1345              		.loc 21 32 7 view .LVU343
 1346 0078 E565     		str	r5, [r4, #92]
 1347              	.LBE437:
 1348              	.LBE441:
  17:Pedal.cpp     **** ToneFilter tone(48000.f);
 1349              		.loc 16 17 24 view .LVU344
 1350 007a FFF7FEFF 		bl	_ZN10ToneFilterC1Ef
 1351              	.LVL87:
  17:Pedal.cpp     **** ToneFilter tone(48000.f);
 1352              		.loc 16 17 12 view .LVU345
 1353 007e 104A     		ldr	r2, .L62+8
 1354 0080 1949     		ldr	r1, .L62+48
 1355 0082 3046     		mov	r0, r6
 1356 0084 FFF7FEFF 		bl	__aeabi_atexit
 1357              	.LVL88:
 1358              	.LBB442:
 1359              	.LBI442:
  36:../../DaisySP//Source/Dynamics/crossfade.h ****     ~CrossFade() {}
 1360              		.loc 12 36 5 is_stmt 1 view .LVU346
  36:../../DaisySP//Source/Dynamics/crossfade.h ****     ~CrossFade() {}
 1361              		.loc 12 36 5 is_stmt 0 view .LVU347
 1362              	.LBE442:
  21:Pedal.cpp     **** Parameter toneParam;
 1363              		.loc 16 21 11 view .LVU348
 1364 0088 184C     		ldr	r4, .L62+52
  18:Pedal.cpp     **** static CrossFade crossFade;
 1365              		.loc 16 18 18 view .LVU349
 1366 008a 0D4A     		ldr	r2, .L62+8
 1367 008c 1849     		ldr	r1, .L62+56
 1368 008e 1948     		ldr	r0, .L62+60
 1369 0090 FFF7FEFF 		bl	__aeabi_atexit
 1370              	.LVL89:
  19:Pedal.cpp     **** DelayLine<float, MAX_DELAY> DSY_SDRAM_BSS delayMems[4];
 1371              		.loc 16 19 54 is_stmt 1 view .LVU350
  19:Pedal.cpp     **** DelayLine<float, MAX_DELAY> DSY_SDRAM_BSS delayMems[4];
 1372              		.loc 16 19 43 is_stmt 0 view .LVU351
 1373 0094 0A4A     		ldr	r2, .L62+8
 1374 0096 1849     		ldr	r1, .L62+64
 1375 0098 2846     		mov	r0, r5
 1376 009a FFF7FEFF 		bl	__aeabi_atexit
 1377              	.LVL90:
ARM GAS  /var/folders/fs/ht5wlc7s7b56r9p0ngl7ssgc0000gn/T//ccHBcJ2G.s 			page 51


 1378              	.LBB443:
 1379              	.LBI443:
  25:../../libDaisy//src/hid/parameter.h ****     /** Destructor */
 1380              		.loc 1 25 5 is_stmt 1 view .LVU352
 1381              	.LBB444:
 1382              	.LBB445:
 1383              	.LBI445:
  21:../../libDaisy//src/hid/ctrl.h ****     /** destructor */
 1384              		.loc 2 21 5 view .LVU353
  21:../../libDaisy//src/hid/ctrl.h ****     /** destructor */
 1385              		.loc 2 21 5 is_stmt 0 view .LVU354
 1386              	.LBE445:
 1387              	.LBE444:
 1388              	.LBE443:
  21:Pedal.cpp     **** Parameter toneParam;
 1389              		.loc 16 21 11 view .LVU355
 1390 009e 2146     		mov	r1, r4
 1391 00a0 074A     		ldr	r2, .L62+8
 1392 00a2 1648     		ldr	r0, .L62+68
 1393 00a4 FFF7FEFF 		bl	__aeabi_atexit
 1394              	.LVL91:
 1395              	.LBB446:
 1396              	.LBI446:
  25:../../libDaisy//src/hid/parameter.h ****     /** Destructor */
 1397              		.loc 1 25 5 is_stmt 1 view .LVU356
 1398              	.LBB447:
 1399              	.LBB448:
 1400              	.LBI448:
  21:../../libDaisy//src/hid/ctrl.h ****     /** destructor */
 1401              		.loc 2 21 5 view .LVU357
  21:../../libDaisy//src/hid/ctrl.h ****     /** destructor */
 1402              		.loc 2 21 5 is_stmt 0 view .LVU358
 1403              	.LBE448:
 1404              	.LBE447:
 1405              	.LBE446:
  22:Pedal.cpp     **** Parameter bpmParam;
 1406              		.loc 16 22 11 view .LVU359
 1407 00a8 2146     		mov	r1, r4
 1408 00aa 054A     		ldr	r2, .L62+8
 1409 00ac 1448     		ldr	r0, .L62+72
 1410              	.LBE451:
 1411              	.LBE455:
 1412              		.loc 16 157 1 view .LVU360
 1413 00ae BDE87040 		pop	{r4, r5, r6, lr}
 1414              		.cfi_restore 14
 1415              		.cfi_restore 6
 1416              		.cfi_restore 5
 1417              		.cfi_restore 4
 1418              		.cfi_def_cfa_offset 0
 1419              	.LBB456:
 1420              	.LBB452:
  22:Pedal.cpp     **** Parameter bpmParam;
 1421              		.loc 16 22 11 view .LVU361
 1422 00b2 FFF7FEBF 		b	__aeabi_atexit
 1423              	.LVL92:
 1424              	.L63:
 1425 00b6 00BF     		.align	2
ARM GAS  /var/folders/fs/ht5wlc7s7b56r9p0ngl7ssgc0000gn/T//ccHBcJ2G.s 			page 52


 1426              	.L62:
 1427 00b8 00000000 		.word	.LANCHOR0
 1428 00bc 00000000 		.word	.LANCHOR13
 1429 00c0 00000000 		.word	__dso_handle
 1430 00c4 00000000 		.word	_ZN5daisy10DaisyPetalD1Ev
 1431 00c8 00000000 		.word	.LANCHOR3
 1432 00cc 00000000 		.word	_ZN7daisysp7BalanceD1Ev
 1433 00d0 00000000 		.word	.LANCHOR5
 1434 00d4 00000000 		.word	.LANCHOR7
 1435 00d8 0000E03F 		.word	1071644672
 1436 00dc 00003040 		.word	1076887552
 1437 00e0 00000000 		.word	.LANCHOR11
 1438 00e4 00803B47 		.word	1195081728
 1439 00e8 00000000 		.word	_ZN10ToneFilterD1Ev
 1440 00ec 00000000 		.word	_ZN5daisy9ParameterD1Ev
 1441 00f0 00000000 		.word	_ZN7daisysp9CrossFadeD1Ev
 1442 00f4 00000000 		.word	.LANCHOR4
 1443 00f8 00000000 		.word	__tcf_0
 1444 00fc 00000000 		.word	.LANCHOR1
 1445 0100 00000000 		.word	.LANCHOR2
 1446              	.LBE452:
 1447              	.LBE456:
 1448              		.cfi_endproc
 1449              	.LFE5388:
 1451              		.section	.init_array,"aw",%init_array
 1452              		.align	2
 1453 0000 00000000 		.word	_GLOBAL__sub_I_hw(target1)
 1454              		.global	bpm
 1455              		.global	toneVal
 1456              		.global	feedback
 1457              		.global	dryWet
 1458              		.global	bypass
 1459              		.global	bpmParam
 1460              		.global	toneParam
 1461              		.global	delayMems
 1462              		.global	tone
 1463              		.global	tapTempo
 1464              		.global	balance
 1465              		.global	delay
 1466              		.global	hw
 1467              		.section	.rodata
 1468              		.align	2
 1469              		.set	.LANCHOR13,. + 0
 1470              	.LC0:
 1471 0000 0000     		.short	0
 1472 0002 0100     		.short	1
 1473 0004 0100     		.short	1
 1474 0006 0100     		.short	1
 1475 0008 0100     		.short	1
 1476 000a 0100     		.short	1
 1477 000c 0100     		.short	1
 1478 000e 0100     		.short	1
 1479 0010 0100     		.short	1
 1480 0012 0100     		.short	1
 1481 0014 0100     		.short	1
 1482 0016 0100     		.short	1
 1483 0018 0200     		.short	2
ARM GAS  /var/folders/fs/ht5wlc7s7b56r9p0ngl7ssgc0000gn/T//ccHBcJ2G.s 			page 53


 1484 001a 0200     		.short	2
 1485 001c 0200     		.short	2
 1486 001e 0200     		.short	2
 1487 0020 0200     		.short	2
 1488 0022 0200     		.short	2
 1489 0024 0200     		.short	2
 1490 0026 0300     		.short	3
 1491 0028 0300     		.short	3
 1492 002a 0400     		.short	4
 1493 002c 0400     		.short	4
 1494 002e 0500     		.short	5
 1495 0030 0500     		.short	5
 1496 0032 0600     		.short	6
 1497 0034 0700     		.short	7
 1498 0036 0800     		.short	8
 1499 0038 0800     		.short	8
 1500 003a 0900     		.short	9
 1501 003c 0A00     		.short	10
 1502 003e 0B00     		.short	11
 1503 0040 0C00     		.short	12
 1504 0042 0D00     		.short	13
 1505 0044 0F00     		.short	15
 1506 0046 1000     		.short	16
 1507 0048 1100     		.short	17
 1508 004a 1200     		.short	18
 1509 004c 1400     		.short	20
 1510 004e 1500     		.short	21
 1511 0050 1700     		.short	23
 1512 0052 1900     		.short	25
 1513 0054 1A00     		.short	26
 1514 0056 1C00     		.short	28
 1515 0058 1E00     		.short	30
 1516 005a 2000     		.short	32
 1517 005c 2200     		.short	34
 1518 005e 2400     		.short	36
 1519 0060 2600     		.short	38
 1520 0062 2800     		.short	40
 1521 0064 2B00     		.short	43
 1522 0066 2D00     		.short	45
 1523 0068 3000     		.short	48
 1524 006a 3200     		.short	50
 1525 006c 3500     		.short	53
 1526 006e 3800     		.short	56
 1527 0070 3B00     		.short	59
 1528 0072 3E00     		.short	62
 1529 0074 4100     		.short	65
 1530 0076 4400     		.short	68
 1531 0078 4700     		.short	71
 1532 007a 4B00     		.short	75
 1533 007c 4E00     		.short	78
 1534 007e 5200     		.short	82
 1535 0080 5500     		.short	85
 1536 0082 5900     		.short	89
 1537 0084 5D00     		.short	93
 1538 0086 6100     		.short	97
 1539 0088 6500     		.short	101
 1540 008a 6900     		.short	105
ARM GAS  /var/folders/fs/ht5wlc7s7b56r9p0ngl7ssgc0000gn/T//ccHBcJ2G.s 			page 54


 1541 008c 6E00     		.short	110
 1542 008e 7200     		.short	114
 1543 0090 7700     		.short	119
 1544 0092 7B00     		.short	123
 1545 0094 8000     		.short	128
 1546 0096 8500     		.short	133
 1547 0098 8A00     		.short	138
 1548 009a 8F00     		.short	143
 1549 009c 9500     		.short	149
 1550 009e 9A00     		.short	154
 1551 00a0 9F00     		.short	159
 1552 00a2 A500     		.short	165
 1553 00a4 AB00     		.short	171
 1554 00a6 B100     		.short	177
 1555 00a8 B700     		.short	183
 1556 00aa BD00     		.short	189
 1557 00ac C300     		.short	195
 1558 00ae CA00     		.short	202
 1559 00b0 D000     		.short	208
 1560 00b2 D700     		.short	215
 1561 00b4 DE00     		.short	222
 1562 00b6 E500     		.short	229
 1563 00b8 EC00     		.short	236
 1564 00ba F300     		.short	243
 1565 00bc FA00     		.short	250
 1566 00be 0201     		.short	258
 1567 00c0 0A01     		.short	266
 1568 00c2 1101     		.short	273
 1569 00c4 1901     		.short	281
 1570 00c6 2201     		.short	290
 1571 00c8 2A01     		.short	298
 1572 00ca 3201     		.short	306
 1573 00cc 3B01     		.short	315
 1574 00ce 4401     		.short	324
 1575 00d0 4C01     		.short	332
 1576 00d2 5501     		.short	341
 1577 00d4 5F01     		.short	351
 1578 00d6 6801     		.short	360
 1579 00d8 7101     		.short	369
 1580 00da 7B01     		.short	379
 1581 00dc 8501     		.short	389
 1582 00de 8F01     		.short	399
 1583 00e0 9901     		.short	409
 1584 00e2 A301     		.short	419
 1585 00e4 AE01     		.short	430
 1586 00e6 B801     		.short	440
 1587 00e8 C301     		.short	451
 1588 00ea CE01     		.short	462
 1589 00ec D901     		.short	473
 1590 00ee E501     		.short	485
 1591 00f0 F001     		.short	496
 1592 00f2 FC01     		.short	508
 1593 00f4 0802     		.short	520
 1594 00f6 1402     		.short	532
 1595 00f8 2002     		.short	544
 1596 00fa 2C02     		.short	556
 1597 00fc 3902     		.short	569
ARM GAS  /var/folders/fs/ht5wlc7s7b56r9p0ngl7ssgc0000gn/T//ccHBcJ2G.s 			page 55


 1598 00fe 4602     		.short	582
 1599 0100 5202     		.short	594
 1600 0102 6002     		.short	608
 1601 0104 6D02     		.short	621
 1602 0106 7A02     		.short	634
 1603 0108 8802     		.short	648
 1604 010a 9602     		.short	662
 1605 010c A402     		.short	676
 1606 010e B202     		.short	690
 1607 0110 C002     		.short	704
 1608 0112 CF02     		.short	719
 1609 0114 DE02     		.short	734
 1610 0116 ED02     		.short	749
 1611 0118 FC02     		.short	764
 1612 011a 0B03     		.short	779
 1613 011c 1B03     		.short	795
 1614 011e 2B03     		.short	811
 1615 0120 3B03     		.short	827
 1616 0122 4B03     		.short	843
 1617 0124 5B03     		.short	859
 1618 0126 6C03     		.short	876
 1619 0128 7D03     		.short	893
 1620 012a 8E03     		.short	910
 1621 012c 9F03     		.short	927
 1622 012e B003     		.short	944
 1623 0130 C203     		.short	962
 1624 0132 D403     		.short	980
 1625 0134 E603     		.short	998
 1626 0136 F803     		.short	1016
 1627 0138 0A04     		.short	1034
 1628 013a 1D04     		.short	1053
 1629 013c 3004     		.short	1072
 1630 013e 4304     		.short	1091
 1631 0140 5604     		.short	1110
 1632 0142 6A04     		.short	1130
 1633 0144 7E04     		.short	1150
 1634 0146 9204     		.short	1170
 1635 0148 A604     		.short	1190
 1636 014a BA04     		.short	1210
 1637 014c CF04     		.short	1231
 1638 014e E404     		.short	1252
 1639 0150 F904     		.short	1273
 1640 0152 0E05     		.short	1294
 1641 0154 2405     		.short	1316
 1642 0156 3A05     		.short	1338
 1643 0158 5005     		.short	1360
 1644 015a 6605     		.short	1382
 1645 015c 7C05     		.short	1404
 1646 015e 9305     		.short	1427
 1647 0160 AA05     		.short	1450
 1648 0162 C105     		.short	1473
 1649 0164 D905     		.short	1497
 1650 0166 F005     		.short	1520
 1651 0168 0806     		.short	1544
 1652 016a 2006     		.short	1568
 1653 016c 3906     		.short	1593
 1654 016e 5106     		.short	1617
ARM GAS  /var/folders/fs/ht5wlc7s7b56r9p0ngl7ssgc0000gn/T//ccHBcJ2G.s 			page 56


 1655 0170 6A06     		.short	1642
 1656 0172 8306     		.short	1667
 1657 0174 9D06     		.short	1693
 1658 0176 B606     		.short	1718
 1659 0178 D006     		.short	1744
 1660 017a EA06     		.short	1770
 1661 017c 0507     		.short	1797
 1662 017e 1F07     		.short	1823
 1663 0180 3A07     		.short	1850
 1664 0182 5507     		.short	1877
 1665 0184 7107     		.short	1905
 1666 0186 8C07     		.short	1932
 1667 0188 A807     		.short	1960
 1668 018a C407     		.short	1988
 1669 018c E107     		.short	2017
 1670 018e FD07     		.short	2045
 1671 0190 1A08     		.short	2074
 1672 0192 3708     		.short	2103
 1673 0194 5508     		.short	2133
 1674 0196 7208     		.short	2162
 1675 0198 9008     		.short	2192
 1676 019a AF08     		.short	2223
 1677 019c CD08     		.short	2253
 1678 019e EC08     		.short	2284
 1679 01a0 0B09     		.short	2315
 1680 01a2 2A09     		.short	2346
 1681 01a4 4A09     		.short	2378
 1682 01a6 6A09     		.short	2410
 1683 01a8 8A09     		.short	2442
 1684 01aa AA09     		.short	2474
 1685 01ac CB09     		.short	2507
 1686 01ae EC09     		.short	2540
 1687 01b0 0D0A     		.short	2573
 1688 01b2 2E0A     		.short	2606
 1689 01b4 500A     		.short	2640
 1690 01b6 720A     		.short	2674
 1691 01b8 940A     		.short	2708
 1692 01ba B70A     		.short	2743
 1693 01bc DA0A     		.short	2778
 1694 01be FD0A     		.short	2813
 1695 01c0 210B     		.short	2849
 1696 01c2 440B     		.short	2884
 1697 01c4 680B     		.short	2920
 1698 01c6 8D0B     		.short	2957
 1699 01c8 B10B     		.short	2993
 1700 01ca D60B     		.short	3030
 1701 01cc FB0B     		.short	3067
 1702 01ce 210C     		.short	3105
 1703 01d0 470C     		.short	3143
 1704 01d2 6D0C     		.short	3181
 1705 01d4 930C     		.short	3219
 1706 01d6 BA0C     		.short	3258
 1707 01d8 E10C     		.short	3297
 1708 01da 080D     		.short	3336
 1709 01dc 300D     		.short	3376
 1710 01de 580D     		.short	3416
 1711 01e0 800D     		.short	3456
ARM GAS  /var/folders/fs/ht5wlc7s7b56r9p0ngl7ssgc0000gn/T//ccHBcJ2G.s 			page 57


 1712 01e2 A80D     		.short	3496
 1713 01e4 D10D     		.short	3537
 1714 01e6 FA0D     		.short	3578
 1715 01e8 230E     		.short	3619
 1716 01ea 4D0E     		.short	3661
 1717 01ec 770E     		.short	3703
 1718 01ee A10E     		.short	3745
 1719 01f0 CC0E     		.short	3788
 1720 01f2 F70E     		.short	3831
 1721 01f4 220F     		.short	3874
 1722 01f6 4E0F     		.short	3918
 1723 01f8 7A0F     		.short	3962
 1724 01fa A60F     		.short	4006
 1725 01fc D20F     		.short	4050
 1726 01fe FF0F     		.short	4095
 1727              		.section	.bss._ZL9crossFade,"aw",%nobits
 1728              		.align	2
 1729              		.set	.LANCHOR4,. + 0
 1732              	_ZL9crossFade:
 1733 0000 00000000 		.space	8
 1733      00000000 
 1734              		.section	.bss.balance,"aw",%nobits
 1735              		.align	2
 1736              		.set	.LANCHOR5,. + 0
 1739              	balance:
 1740 0000 00000000 		.space	28
 1740      00000000 
 1740      00000000 
 1740      00000000 
 1740      00000000 
 1741              		.section	.bss.bpm,"aw",%nobits
 1742              		.align	2
 1743              		.set	.LANCHOR12,. + 0
 1746              	bpm:
 1747 0000 00000000 		.space	4
 1748              		.section	.bss.bpmParam,"aw",%nobits
 1749              		.align	2
 1750              		.set	.LANCHOR2,. + 0
 1753              	bpmParam:
 1754 0000 00000000 		.space	56
 1754      00000000 
 1754      00000000 
 1754      00000000 
 1754      00000000 
 1755              		.section	.bss.delay,"aw",%nobits
 1756              		.align	2
 1757              		.set	.LANCHOR3,. + 0
 1760              	delay:
 1761 0000 00000000 		.space	76
 1761      00000000 
 1761      00000000 
 1761      00000000 
 1761      00000000 
 1762              		.section	.bss.dryWet,"aw",%nobits
 1763              		.align	2
 1764              		.set	.LANCHOR8,. + 0
 1767              	dryWet:
ARM GAS  /var/folders/fs/ht5wlc7s7b56r9p0ngl7ssgc0000gn/T//ccHBcJ2G.s 			page 58


 1768 0000 00000000 		.space	4
 1769              		.section	.bss.feedback,"aw",%nobits
 1770              		.align	2
 1771              		.set	.LANCHOR9,. + 0
 1774              	feedback:
 1775 0000 00000000 		.space	4
 1776              		.section	.bss.hw,"aw",%nobits
 1777              		.align	2
 1778              		.set	.LANCHOR0,. + 0
 1781              	hw:
 1782 0000 00000000 		.space	1756
 1782      00000000 
 1782      00000000 
 1782      00000000 
 1782      00000000 
 1783              		.section	.bss.tapTempo,"aw",%nobits
 1784              		.align	2
 1785              		.set	.LANCHOR7,. + 0
 1788              	tapTempo:
 1789 0000 00000000 		.space	100
 1789      00000000 
 1789      00000000 
 1789      00000000 
 1789      00000000 
 1790              		.section	.bss.tone,"aw",%nobits
 1791              		.align	2
 1792              		.set	.LANCHOR11,. + 0
 1795              	tone:
 1796 0000 00000000 		.space	60
 1796      00000000 
 1796      00000000 
 1796      00000000 
 1796      00000000 
 1797              		.section	.bss.toneParam,"aw",%nobits
 1798              		.align	2
 1799              		.set	.LANCHOR1,. + 0
 1802              	toneParam:
 1803 0000 00000000 		.space	56
 1803      00000000 
 1803      00000000 
 1803      00000000 
 1803      00000000 
 1804              		.section	.bss.toneVal,"aw",%nobits
 1805              		.align	2
 1806              		.set	.LANCHOR10,. + 0
 1809              	toneVal:
 1810 0000 00000000 		.space	4
 1811              		.section	.data.bypass,"aw"
 1812              		.set	.LANCHOR6,. + 0
 1815              	bypass:
 1816 0000 01       		.byte	1
 1817              		.section	.sdram_bss,"aw"
 1818              		.align	2
 1821              	delayMems:
 1822 0000 00000000 		.space	1536048
 1822      00000000 
 1822      00000000 
ARM GAS  /var/folders/fs/ht5wlc7s7b56r9p0ngl7ssgc0000gn/T//ccHBcJ2G.s 			page 59


 1822      00000000 
 1822      00000000 
 1823              		.text
 1824              	.Letext0:
 1825              		.file 22 "/Library/DaisyToolchain/0.2.0/arm/arm-none-eabi/include/machine/_default_types.h"
 1826              		.file 23 "/Library/DaisyToolchain/0.2.0/arm/arm-none-eabi/include/sys/_stdint.h"
 1827              		.file 24 "/Library/DaisyToolchain/0.2.0/arm/arm-none-eabi/include/stdint.h"
 1828              		.file 25 "/Library/DaisyToolchain/0.2.0/arm/lib/gcc/arm-none-eabi/10.3.1/include/stddef.h"
 1829              		.file 26 "/Library/DaisyToolchain/0.2.0/arm/arm-none-eabi/include/c++/10.3.1/cmath"
 1830              		.file 27 "/Library/DaisyToolchain/0.2.0/arm/arm-none-eabi/include/c++/10.3.1/bits/std_abs.h"
 1831              		.file 28 "/Library/DaisyToolchain/0.2.0/arm/arm-none-eabi/include/c++/10.3.1/cstdlib"
 1832              		.file 29 "/Library/DaisyToolchain/0.2.0/arm/arm-none-eabi/include/c++/10.3.1/cstdint"
 1833              		.file 30 "/Library/DaisyToolchain/0.2.0/arm/arm-none-eabi/include/c++/10.3.1/type_traits"
 1834              		.file 31 "/Library/DaisyToolchain/0.2.0/arm/arm-none-eabi/include/c++/10.3.1/debug/debug.h"
 1835              		.file 32 "/Library/DaisyToolchain/0.2.0/arm/arm-none-eabi/include/c++/10.3.1/arm-none-eabi/thumb/v
 1836              		.file 33 "/Library/DaisyToolchain/0.2.0/arm/arm-none-eabi/include/c++/10.3.1/bits/algorithmfwd.h"
 1837              		.file 34 "/Library/DaisyToolchain/0.2.0/arm/arm-none-eabi/include/c++/10.3.1/bits/stl_pair.h"
 1838              		.file 35 "/Library/DaisyToolchain/0.2.0/arm/arm-none-eabi/include/c++/10.3.1/bits/exception_ptr.h"
 1839              		.file 36 "/Library/DaisyToolchain/0.2.0/arm/arm-none-eabi/include/c++/10.3.1/cstdarg"
 1840              		.file 37 "/Library/DaisyToolchain/0.2.0/arm/arm-none-eabi/include/c++/10.3.1/cstdio"
 1841              		.file 38 "/Library/DaisyToolchain/0.2.0/arm/arm-none-eabi/include/c++/10.3.1/cstring"
 1842              		.file 39 "/Library/DaisyToolchain/0.2.0/arm/arm-none-eabi/include/c++/10.3.1/cwchar"
 1843              		.file 40 "/Library/DaisyToolchain/0.2.0/arm/arm-none-eabi/include/c++/10.3.1/clocale"
 1844              		.file 41 "/Library/DaisyToolchain/0.2.0/arm/arm-none-eabi/include/c++/10.3.1/bits/basic_string.h"
 1845              		.file 42 "/Library/DaisyToolchain/0.2.0/arm/arm-none-eabi/include/c++/10.3.1/bits/stl_iterator.h"
 1846              		.file 43 "/Library/DaisyToolchain/0.2.0/arm/arm-none-eabi/include/c++/10.3.1/bits/predefined_ops.h
 1847              		.file 44 "/Library/DaisyToolchain/0.2.0/arm/arm-none-eabi/include/sys/_types.h"
 1848              		.file 45 "/Library/DaisyToolchain/0.2.0/arm/arm-none-eabi/include/sys/reent.h"
 1849              		.file 46 "/Library/DaisyToolchain/0.2.0/arm/arm-none-eabi/include/sys/lock.h"
 1850              		.file 47 "/Library/DaisyToolchain/0.2.0/arm/arm-none-eabi/include/math.h"
 1851              		.file 48 "/Library/DaisyToolchain/0.2.0/arm/arm-none-eabi/include/stdlib.h"
 1852              		.file 49 "/Library/DaisyToolchain/0.2.0/arm/arm-none-eabi/include/c++/10.3.1/math.h"
 1853              		.file 50 "/Library/DaisyToolchain/0.2.0/arm/arm-none-eabi/include/c++/10.3.1/stdlib.h"
 1854              		.file 51 "../../libDaisy//src/daisy_core.h"
 1855              		.file 52 "../../libDaisy//src/per/tim.h"
 1856              		.file 53 "../../libDaisy//src/per/sai.h"
 1857              		.file 54 "../../libDaisy//src/util/wav_format.h"
 1858              		.file 55 "../../libDaisy//src/hid/led.h"
 1859              		.file 56 "../../libDaisy//src/util/color.h"
 1860              		.file 57 "../../libDaisy//src/hid/rgb_led.h"
 1861              		.file 58 "../../libDaisy//src/dev/max11300.h"
 1862              		.file 59 "../../libDaisy//src/per/gpio.h"
 1863              		.file 60 "../../libDaisy//src/dev/sdram.h"
 1864              		.file 61 "/Library/DaisyToolchain/0.2.0/arm/lib/gcc/arm-none-eabi/10.3.1/include/stdarg.h"
 1865              		.file 62 "/Library/DaisyToolchain/0.2.0/arm/arm-none-eabi/include/stdio.h"
 1866              		.file 63 "/Library/DaisyToolchain/0.2.0/arm/arm-none-eabi/include/string.h"
 1867              		.file 64 "../../DaisySP//Source/Control/adenv.h"
 1868              		.file 65 "../../DaisySP//Source/Utility/dsp.h"
 1869              		.file 66 "../../DaisySP//Source/Utility/delayline.h"
 1870              		.file 67 "/Library/DaisyToolchain/0.2.0/arm/arm-none-eabi/include/wchar.h"
 1871              		.file 68 "/Library/DaisyToolchain/0.2.0/arm/arm-none-eabi/include/locale.h"
 1872              		.file 69 "Terrarium.h"
 1873              		.file 70 "Delay.h"
 1874              		.file 71 "../../libDaisy//src/dev/sr_595.h"
 1875              		.file 72 "<built-in>"
ARM GAS  /var/folders/fs/ht5wlc7s7b56r9p0ngl7ssgc0000gn/T//ccHBcJ2G.s 			page 60


DEFINED SYMBOLS
                            *ABS*:0000000000000000 Pedal.cpp
/var/folders/fs/ht5wlc7s7b56r9p0ngl7ssgc0000gn/T//ccHBcJ2G.s:19     .text._ZN5daisy9ParameterD2Ev:0000000000000000 $t
/var/folders/fs/ht5wlc7s7b56r9p0ngl7ssgc0000gn/T//ccHBcJ2G.s:26     .text._ZN5daisy9ParameterD2Ev:0000000000000000 _ZN5daisy9ParameterD2Ev
/var/folders/fs/ht5wlc7s7b56r9p0ngl7ssgc0000gn/T//ccHBcJ2G.s:26     .text._ZN5daisy9ParameterD2Ev:0000000000000000 _ZN5daisy9ParameterD1Ev
/var/folders/fs/ht5wlc7s7b56r9p0ngl7ssgc0000gn/T//ccHBcJ2G.s:49     .text._ZN5daisy10DaisyPetalD2Ev:0000000000000000 $t
/var/folders/fs/ht5wlc7s7b56r9p0ngl7ssgc0000gn/T//ccHBcJ2G.s:56     .text._ZN5daisy10DaisyPetalD2Ev:0000000000000000 _ZN5daisy10DaisyPetalD2Ev
/var/folders/fs/ht5wlc7s7b56r9p0ngl7ssgc0000gn/T//ccHBcJ2G.s:56     .text._ZN5daisy10DaisyPetalD2Ev:0000000000000000 _ZN5daisy10DaisyPetalD1Ev
/var/folders/fs/ht5wlc7s7b56r9p0ngl7ssgc0000gn/T//ccHBcJ2G.s:118    .text._ZN7daisysp7BalanceD2Ev:0000000000000000 $t
/var/folders/fs/ht5wlc7s7b56r9p0ngl7ssgc0000gn/T//ccHBcJ2G.s:125    .text._ZN7daisysp7BalanceD2Ev:0000000000000000 _ZN7daisysp7BalanceD2Ev
/var/folders/fs/ht5wlc7s7b56r9p0ngl7ssgc0000gn/T//ccHBcJ2G.s:125    .text._ZN7daisysp7BalanceD2Ev:0000000000000000 _ZN7daisysp7BalanceD1Ev
/var/folders/fs/ht5wlc7s7b56r9p0ngl7ssgc0000gn/T//ccHBcJ2G.s:142    .text._ZN7daisysp9CrossFadeD2Ev:0000000000000000 $t
/var/folders/fs/ht5wlc7s7b56r9p0ngl7ssgc0000gn/T//ccHBcJ2G.s:149    .text._ZN7daisysp9CrossFadeD2Ev:0000000000000000 _ZN7daisysp9CrossFadeD2Ev
/var/folders/fs/ht5wlc7s7b56r9p0ngl7ssgc0000gn/T//ccHBcJ2G.s:149    .text._ZN7daisysp9CrossFadeD2Ev:0000000000000000 _ZN7daisysp9CrossFadeD1Ev
/var/folders/fs/ht5wlc7s7b56r9p0ngl7ssgc0000gn/T//ccHBcJ2G.s:166    .text._ZN10ToneFilterD2Ev:0000000000000000 $t
/var/folders/fs/ht5wlc7s7b56r9p0ngl7ssgc0000gn/T//ccHBcJ2G.s:173    .text._ZN10ToneFilterD2Ev:0000000000000000 _ZN10ToneFilterD2Ev
/var/folders/fs/ht5wlc7s7b56r9p0ngl7ssgc0000gn/T//ccHBcJ2G.s:173    .text._ZN10ToneFilterD2Ev:0000000000000000 _ZN10ToneFilterD1Ev
/var/folders/fs/ht5wlc7s7b56r9p0ngl7ssgc0000gn/T//ccHBcJ2G.s:202    .text.__tcf_0:0000000000000000 $t
/var/folders/fs/ht5wlc7s7b56r9p0ngl7ssgc0000gn/T//ccHBcJ2G.s:208    .text.__tcf_0:0000000000000000 __tcf_0
/var/folders/fs/ht5wlc7s7b56r9p0ngl7ssgc0000gn/T//ccHBcJ2G.s:222    .text._Z10initParamsv:0000000000000000 $t
/var/folders/fs/ht5wlc7s7b56r9p0ngl7ssgc0000gn/T//ccHBcJ2G.s:229    .text._Z10initParamsv:0000000000000000 _Z10initParamsv
/var/folders/fs/ht5wlc7s7b56r9p0ngl7ssgc0000gn/T//ccHBcJ2G.s:300    .text._Z10initParamsv:0000000000000058 $d
/var/folders/fs/ht5wlc7s7b56r9p0ngl7ssgc0000gn/T//ccHBcJ2G.s:308    .text.startup.main:0000000000000000 $t
/var/folders/fs/ht5wlc7s7b56r9p0ngl7ssgc0000gn/T//ccHBcJ2G.s:315    .text.startup.main:0000000000000000 main
/var/folders/fs/ht5wlc7s7b56r9p0ngl7ssgc0000gn/T//ccHBcJ2G.s:437    .text.startup.main:0000000000000058 $d
/var/folders/fs/ht5wlc7s7b56r9p0ngl7ssgc0000gn/T//ccHBcJ2G.s:1821   .sdram_bss:0000000000000000 delayMems
/var/folders/fs/ht5wlc7s7b56r9p0ngl7ssgc0000gn/T//ccHBcJ2G.s:853    .text._Z13AudioCallbackPKPKfPPfj:0000000000000000 _Z13AudioCallbackPKPKfPPfj
/var/folders/fs/ht5wlc7s7b56r9p0ngl7ssgc0000gn/T//ccHBcJ2G.s:448    .text._Z15processControlsv:0000000000000000 $t
/var/folders/fs/ht5wlc7s7b56r9p0ngl7ssgc0000gn/T//ccHBcJ2G.s:455    .text._Z15processControlsv:0000000000000000 _Z15processControlsv
/var/folders/fs/ht5wlc7s7b56r9p0ngl7ssgc0000gn/T//ccHBcJ2G.s:828    .text._Z15processControlsv:0000000000000160 $d
/var/folders/fs/ht5wlc7s7b56r9p0ngl7ssgc0000gn/T//ccHBcJ2G.s:846    .text._Z13AudioCallbackPKPKfPPfj:0000000000000000 $t
/var/folders/fs/ht5wlc7s7b56r9p0ngl7ssgc0000gn/T//ccHBcJ2G.s:1064   .text._Z13AudioCallbackPKPKfPPfj:00000000000000b8 $d
/var/folders/fs/ht5wlc7s7b56r9p0ngl7ssgc0000gn/T//ccHBcJ2G.s:1074   .text.startup._GLOBAL__sub_I_hw:0000000000000000 $t
/var/folders/fs/ht5wlc7s7b56r9p0ngl7ssgc0000gn/T//ccHBcJ2G.s:1080   .text.startup._GLOBAL__sub_I_hw:0000000000000000 _GLOBAL__sub_I_hw
/var/folders/fs/ht5wlc7s7b56r9p0ngl7ssgc0000gn/T//ccHBcJ2G.s:1427   .text.startup._GLOBAL__sub_I_hw:00000000000000b8 $d
/var/folders/fs/ht5wlc7s7b56r9p0ngl7ssgc0000gn/T//ccHBcJ2G.s:1452   .init_array:0000000000000000 $d
/var/folders/fs/ht5wlc7s7b56r9p0ngl7ssgc0000gn/T//ccHBcJ2G.s:1746   .bss.bpm:0000000000000000 bpm
/var/folders/fs/ht5wlc7s7b56r9p0ngl7ssgc0000gn/T//ccHBcJ2G.s:1809   .bss.toneVal:0000000000000000 toneVal
/var/folders/fs/ht5wlc7s7b56r9p0ngl7ssgc0000gn/T//ccHBcJ2G.s:1774   .bss.feedback:0000000000000000 feedback
/var/folders/fs/ht5wlc7s7b56r9p0ngl7ssgc0000gn/T//ccHBcJ2G.s:1767   .bss.dryWet:0000000000000000 dryWet
/var/folders/fs/ht5wlc7s7b56r9p0ngl7ssgc0000gn/T//ccHBcJ2G.s:1815   .data.bypass:0000000000000000 bypass
/var/folders/fs/ht5wlc7s7b56r9p0ngl7ssgc0000gn/T//ccHBcJ2G.s:1753   .bss.bpmParam:0000000000000000 bpmParam
/var/folders/fs/ht5wlc7s7b56r9p0ngl7ssgc0000gn/T//ccHBcJ2G.s:1802   .bss.toneParam:0000000000000000 toneParam
/var/folders/fs/ht5wlc7s7b56r9p0ngl7ssgc0000gn/T//ccHBcJ2G.s:1795   .bss.tone:0000000000000000 tone
/var/folders/fs/ht5wlc7s7b56r9p0ngl7ssgc0000gn/T//ccHBcJ2G.s:1788   .bss.tapTempo:0000000000000000 tapTempo
/var/folders/fs/ht5wlc7s7b56r9p0ngl7ssgc0000gn/T//ccHBcJ2G.s:1739   .bss.balance:0000000000000000 balance
/var/folders/fs/ht5wlc7s7b56r9p0ngl7ssgc0000gn/T//ccHBcJ2G.s:1760   .bss.delay:0000000000000000 delay
/var/folders/fs/ht5wlc7s7b56r9p0ngl7ssgc0000gn/T//ccHBcJ2G.s:1781   .bss.hw:0000000000000000 hw
/var/folders/fs/ht5wlc7s7b56r9p0ngl7ssgc0000gn/T//ccHBcJ2G.s:1468   .rodata:0000000000000000 $d
/var/folders/fs/ht5wlc7s7b56r9p0ngl7ssgc0000gn/T//ccHBcJ2G.s:1728   .bss._ZL9crossFade:0000000000000000 $d
/var/folders/fs/ht5wlc7s7b56r9p0ngl7ssgc0000gn/T//ccHBcJ2G.s:1732   .bss._ZL9crossFade:0000000000000000 _ZL9crossFade
/var/folders/fs/ht5wlc7s7b56r9p0ngl7ssgc0000gn/T//ccHBcJ2G.s:1735   .bss.balance:0000000000000000 $d
/var/folders/fs/ht5wlc7s7b56r9p0ngl7ssgc0000gn/T//ccHBcJ2G.s:1742   .bss.bpm:0000000000000000 $d
/var/folders/fs/ht5wlc7s7b56r9p0ngl7ssgc0000gn/T//ccHBcJ2G.s:1749   .bss.bpmParam:0000000000000000 $d
/var/folders/fs/ht5wlc7s7b56r9p0ngl7ssgc0000gn/T//ccHBcJ2G.s:1756   .bss.delay:0000000000000000 $d
/var/folders/fs/ht5wlc7s7b56r9p0ngl7ssgc0000gn/T//ccHBcJ2G.s:1763   .bss.dryWet:0000000000000000 $d
/var/folders/fs/ht5wlc7s7b56r9p0ngl7ssgc0000gn/T//ccHBcJ2G.s:1770   .bss.feedback:0000000000000000 $d
ARM GAS  /var/folders/fs/ht5wlc7s7b56r9p0ngl7ssgc0000gn/T//ccHBcJ2G.s 			page 61


/var/folders/fs/ht5wlc7s7b56r9p0ngl7ssgc0000gn/T//ccHBcJ2G.s:1777   .bss.hw:0000000000000000 $d
/var/folders/fs/ht5wlc7s7b56r9p0ngl7ssgc0000gn/T//ccHBcJ2G.s:1784   .bss.tapTempo:0000000000000000 $d
/var/folders/fs/ht5wlc7s7b56r9p0ngl7ssgc0000gn/T//ccHBcJ2G.s:1791   .bss.tone:0000000000000000 $d
/var/folders/fs/ht5wlc7s7b56r9p0ngl7ssgc0000gn/T//ccHBcJ2G.s:1798   .bss.toneParam:0000000000000000 $d
/var/folders/fs/ht5wlc7s7b56r9p0ngl7ssgc0000gn/T//ccHBcJ2G.s:1805   .bss.toneVal:0000000000000000 $d
/var/folders/fs/ht5wlc7s7b56r9p0ngl7ssgc0000gn/T//ccHBcJ2G.s:1818   .sdram_bss:0000000000000000 $d
                           .group:0000000000000000 _ZN5daisy9ParameterD5Ev
                           .group:0000000000000000 _ZN5daisy10DaisyPetalD5Ev
                           .group:0000000000000000 _ZN7daisysp7BalanceD5Ev
                           .group:0000000000000000 _ZN7daisysp9CrossFadeD5Ev
                           .group:0000000000000000 _ZN10ToneFilterD5Ev

UNDEFINED SYMBOLS
_ZN5daisy9Parameter4InitENS_13AnalogControlEffNS0_5CurveE
_ZN5daisy10DaisyPetal4InitEb
_ZN5daisy10DaisyPetal17SetAudioBlockSizeEj
_ZN5daisy10DaisyPetal18SetAudioSampleRateENS_9SaiHandle6Config10SampleRateE
_ZN5daisy10DaisyPetal8StartAdcEv
_ZN5Delay9initDelayEPN7daisysp9DelayLineIfLj96000EEE
_ZN5Delay6setBPMEf
_ZN5daisy10DaisyPetal15AudioSampleRateEv
_ZN7daisysp7Balance4InitEf
_ZN5daisy10DaisyPetal10StartAudioEPFvPKPKfPPfjE
_ZN8TapTempo6updateEb
_ZN8TapTempo6getBPMEv
_ZN5Delay11disableHeadERKi
_ZN5daisy13AnalogControl7ProcessEv
_ZN5Delay11setFeedbackERKf
_ZN5daisy9Parameter7ProcessEv
_ZN10ToneFilter7setFreqEf
_ZN5Delay10enableHeadERKi
_ZN8TapTempo6setBPMEf
_ZN5daisy10DaisyPetal21ProcessAnalogControlsEv
_ZN5daisy10DaisyPetal22ProcessDigitalControlsEv
_ZN5Delay7processEf
_ZN10ToneFilter7processEf
_ZN10ToneFilter9getFactorEv
_ZN7daisysp7Balance7ProcessEff
_ZN7daisysp9CrossFade7ProcessERfS1_
memcpy
__aeabi_atexit
_ZN5DelayC1Ev
_ZN5daisy6System6GetNowEv
_ZN10ToneFilterC1Ef
__dso_handle
