ARM GAS  /var/folders/fs/ht5wlc7s7b56r9p0ngl7ssgc0000gn/T//ccZCPiB8.s 			page 1


   1              		.cpu cortex-m7
   2              		.arch armv7e-m
   3              		.fpu fpv5-d16
   4              		.eabi_attribute 28, 1
   5              		.eabi_attribute 20, 1
   6              		.eabi_attribute 21, 1
   7              		.eabi_attribute 23, 3
   8              		.eabi_attribute 24, 1
   9              		.eabi_attribute 25, 1
  10              		.eabi_attribute 26, 1
  11              		.eabi_attribute 30, 2
  12              		.eabi_attribute 34, 1
  13              		.eabi_attribute 18, 4
  14              		.file	"Pedal.cpp"
  15              		.text
  16              	.Ltext0:
  17              		.cfi_sections	.debug_frame
  18              		.section	.text._ZN5daisy9ParameterD2Ev,"axG",%progbits,_ZN5daisy9ParameterD5Ev,comdat
  19              		.align	1
  20              		.p2align 2,,3
  21              		.weak	_ZN5daisy9ParameterD2Ev
  22              		.syntax unified
  23              		.thumb
  24              		.thumb_func
  26              	_ZN5daisy9ParameterD2Ev:
  27              	.LVL0:
  28              	.LFB1655:
  29              		.file 1 "../../libDaisy//src/hid/parameter.h"
   1:../../libDaisy//src/hid/parameter.h **** #pragma once
   2:../../libDaisy//src/hid/parameter.h **** #include <stdint.h>
   3:../../libDaisy//src/hid/parameter.h **** #include "hid/ctrl.h"
   4:../../libDaisy//src/hid/parameter.h **** 
   5:../../libDaisy//src/hid/parameter.h **** namespace daisy
   6:../../libDaisy//src/hid/parameter.h **** {
   7:../../libDaisy//src/hid/parameter.h **** /** @addtogroup controls
   8:../../libDaisy//src/hid/parameter.h ****     @{
   9:../../libDaisy//src/hid/parameter.h **** */
  10:../../libDaisy//src/hid/parameter.h **** 
  11:../../libDaisy//src/hid/parameter.h **** /**      Simple parameter mapping tool that takes a 0-1 input from an hid_ctrl. */
  12:../../libDaisy//src/hid/parameter.h **** class Parameter
  13:../../libDaisy//src/hid/parameter.h **** {
  14:../../libDaisy//src/hid/parameter.h ****   public:
  15:../../libDaisy//src/hid/parameter.h ****     /** Curves are applied to the output signal */
  16:../../libDaisy//src/hid/parameter.h ****     enum Curve
  17:../../libDaisy//src/hid/parameter.h ****     {
  18:../../libDaisy//src/hid/parameter.h ****         LINEAR,      /**< Linear curve */
  19:../../libDaisy//src/hid/parameter.h ****         EXPONENTIAL, /**< Exponential curve */
  20:../../libDaisy//src/hid/parameter.h ****         LOGARITHMIC, /**<  Logarithmic curve */
  21:../../libDaisy//src/hid/parameter.h ****         CUBE,        /**< Cubic curve */
  22:../../libDaisy//src/hid/parameter.h ****         LAST,        /**< Final enum element. */
  23:../../libDaisy//src/hid/parameter.h ****     };
  24:../../libDaisy//src/hid/parameter.h ****     /** Constructor */
  25:../../libDaisy//src/hid/parameter.h ****     Parameter() {}
  26:../../libDaisy//src/hid/parameter.h ****     /** Destructor */
  27:../../libDaisy//src/hid/parameter.h ****     ~Parameter() {}
  30              		.loc 1 27 5 view -0
  31              		.cfi_startproc
ARM GAS  /var/folders/fs/ht5wlc7s7b56r9p0ngl7ssgc0000gn/T//ccZCPiB8.s 			page 2


  32              		@ args = 0, pretend = 0, frame = 0
  33              		@ frame_needed = 0, uses_anonymous_args = 0
  34              		@ link register save eliminated.
  35              	.LBB281:
  36              	.LBI281:
  37              		.file 2 "../../libDaisy//src/hid/ctrl.h"
   1:../../libDaisy//src/hid/ctrl.h **** #pragma once
   2:../../libDaisy//src/hid/ctrl.h **** #ifndef DSY_KNOB_H
   3:../../libDaisy//src/hid/ctrl.h **** #define DSY_KNOB_H /**< & */
   4:../../libDaisy//src/hid/ctrl.h **** #include <stdint.h>
   5:../../libDaisy//src/hid/ctrl.h **** 
   6:../../libDaisy//src/hid/ctrl.h **** #ifdef __cplusplus
   7:../../libDaisy//src/hid/ctrl.h **** namespace daisy
   8:../../libDaisy//src/hid/ctrl.h **** {
   9:../../libDaisy//src/hid/ctrl.h **** /**
  10:../../libDaisy//src/hid/ctrl.h ****     @brief Hardware Interface for control inputs \n 
  11:../../libDaisy//src/hid/ctrl.h ****     Primarily designed for ADC input controls such as \n 
  12:../../libDaisy//src/hid/ctrl.h ****     potentiometers, and control voltage. \n 
  13:../../libDaisy//src/hid/ctrl.h ****     @author Stephen Hensley
  14:../../libDaisy//src/hid/ctrl.h ****     @date November 2019
  15:../../libDaisy//src/hid/ctrl.h ****     @ingroup controls
  16:../../libDaisy//src/hid/ctrl.h **** */
  17:../../libDaisy//src/hid/ctrl.h **** class AnalogControl
  18:../../libDaisy//src/hid/ctrl.h **** {
  19:../../libDaisy//src/hid/ctrl.h ****   public:
  20:../../libDaisy//src/hid/ctrl.h ****     /** Constructor */
  21:../../libDaisy//src/hid/ctrl.h ****     AnalogControl() {}
  22:../../libDaisy//src/hid/ctrl.h ****     /** destructor */
  23:../../libDaisy//src/hid/ctrl.h ****     ~AnalogControl() {}
  38              		.loc 2 23 5 view .LVU1
  39              		.loc 2 23 5 is_stmt 0 view .LVU2
  40              	.LBE281:
  41              		.loc 1 27 19 view .LVU3
  42 0000 7047     		bx	lr
  43              		.cfi_endproc
  44              	.LFE1655:
  46              		.weak	_ZN5daisy9ParameterD1Ev
  47              		.thumb_set _ZN5daisy9ParameterD1Ev,_ZN5daisy9ParameterD2Ev
  48 0002 00BF     		.section	.text._ZN5daisy10DaisyPetalD2Ev,"axG",%progbits,_ZN5daisy10DaisyPetalD5Ev,comdat
  49              		.align	1
  50              		.p2align 2,,3
  51              		.weak	_ZN5daisy10DaisyPetalD2Ev
  52              		.syntax unified
  53              		.thumb
  54              		.thumb_func
  56              	_ZN5daisy10DaisyPetalD2Ev:
  57              	.LVL1:
  58              	.LFB2541:
  59              		.file 3 "../../libDaisy//src/daisy_petal.h"
   1:../../libDaisy//src/daisy_petal.h **** #pragma once
   2:../../libDaisy//src/daisy_petal.h **** #ifndef DSY_PETAL_H
   3:../../libDaisy//src/daisy_petal.h **** #define DSY_PETAL_H /**< & */
   4:../../libDaisy//src/daisy_petal.h **** 
   5:../../libDaisy//src/daisy_petal.h **** #include "daisy_seed.h"
   6:../../libDaisy//src/daisy_petal.h **** 
   7:../../libDaisy//src/daisy_petal.h **** namespace daisy
   8:../../libDaisy//src/daisy_petal.h **** {
ARM GAS  /var/folders/fs/ht5wlc7s7b56r9p0ngl7ssgc0000gn/T//ccZCPiB8.s 			page 3


   9:../../libDaisy//src/daisy_petal.h **** /**
  10:../../libDaisy//src/daisy_petal.h ****    @brief Helpers and hardware definitions for daisy petal.
  11:../../libDaisy//src/daisy_petal.h ****    @ingroup boards
  12:../../libDaisy//src/daisy_petal.h **** */
  13:../../libDaisy//src/daisy_petal.h **** class DaisyPetal
  14:../../libDaisy//src/daisy_petal.h **** {
  15:../../libDaisy//src/daisy_petal.h ****   public:
  16:../../libDaisy//src/daisy_petal.h ****     /** Switches */
  17:../../libDaisy//src/daisy_petal.h ****     enum Sw
  18:../../libDaisy//src/daisy_petal.h ****     {
  19:../../libDaisy//src/daisy_petal.h ****         SW_1,    /**< Footswitch */
  20:../../libDaisy//src/daisy_petal.h ****         SW_2,    /**< Footswitch */
  21:../../libDaisy//src/daisy_petal.h ****         SW_3,    /**< Footswitch */
  22:../../libDaisy//src/daisy_petal.h ****         SW_4,    /**< Footswitch */
  23:../../libDaisy//src/daisy_petal.h ****         SW_5,    /**< Toggle */
  24:../../libDaisy//src/daisy_petal.h ****         SW_6,    /**< Toggle */
  25:../../libDaisy//src/daisy_petal.h ****         SW_7,    /**< Toggle */
  26:../../libDaisy//src/daisy_petal.h ****         SW_LAST, /**< Last enum item */
  27:../../libDaisy//src/daisy_petal.h ****     };
  28:../../libDaisy//src/daisy_petal.h **** 
  29:../../libDaisy//src/daisy_petal.h ****     /** Knobs */
  30:../../libDaisy//src/daisy_petal.h ****     enum Knob
  31:../../libDaisy//src/daisy_petal.h ****     {
  32:../../libDaisy//src/daisy_petal.h ****         KNOB_1,    /**< & */
  33:../../libDaisy//src/daisy_petal.h ****         KNOB_2,    /**< & */
  34:../../libDaisy//src/daisy_petal.h ****         KNOB_3,    /**< & */
  35:../../libDaisy//src/daisy_petal.h ****         KNOB_4,    /**< & */
  36:../../libDaisy//src/daisy_petal.h ****         KNOB_5,    /**< & */
  37:../../libDaisy//src/daisy_petal.h ****         KNOB_6,    /**< & */
  38:../../libDaisy//src/daisy_petal.h ****         KNOB_LAST, /**< & */
  39:../../libDaisy//src/daisy_petal.h ****     };
  40:../../libDaisy//src/daisy_petal.h **** 
  41:../../libDaisy//src/daisy_petal.h ****     /** Leds in ringled */
  42:../../libDaisy//src/daisy_petal.h ****     enum RingLed
  43:../../libDaisy//src/daisy_petal.h ****     {
  44:../../libDaisy//src/daisy_petal.h ****         RING_LED_1,   /**< & */
  45:../../libDaisy//src/daisy_petal.h ****         RING_LED_2,   /**< & */
  46:../../libDaisy//src/daisy_petal.h ****         RING_LED_3,   /**< & */
  47:../../libDaisy//src/daisy_petal.h ****         RING_LED_4,   /**< & */
  48:../../libDaisy//src/daisy_petal.h ****         RING_LED_5,   /**< & */
  49:../../libDaisy//src/daisy_petal.h ****         RING_LED_6,   /**< & */
  50:../../libDaisy//src/daisy_petal.h ****         RING_LED_7,   /**< & */
  51:../../libDaisy//src/daisy_petal.h ****         RING_LED_8,   /**< & */
  52:../../libDaisy//src/daisy_petal.h ****         RING_LED_LAST /**< & */
  53:../../libDaisy//src/daisy_petal.h ****     };
  54:../../libDaisy//src/daisy_petal.h **** 
  55:../../libDaisy//src/daisy_petal.h ****     /** footswitch leds */
  56:../../libDaisy//src/daisy_petal.h ****     enum FootswitchLed
  57:../../libDaisy//src/daisy_petal.h ****     {
  58:../../libDaisy//src/daisy_petal.h ****         FOOTSWITCH_LED_1,    /**< & */
  59:../../libDaisy//src/daisy_petal.h ****         FOOTSWITCH_LED_2,    /**< & */
  60:../../libDaisy//src/daisy_petal.h ****         FOOTSWITCH_LED_3,    /**< & */
  61:../../libDaisy//src/daisy_petal.h ****         FOOTSWITCH_LED_4,    /**< & */
  62:../../libDaisy//src/daisy_petal.h ****         FOOTSWITCH_LED_LAST, /**< & */
  63:../../libDaisy//src/daisy_petal.h ****     };
  64:../../libDaisy//src/daisy_petal.h **** 
  65:../../libDaisy//src/daisy_petal.h ****     /** Constructor */
ARM GAS  /var/folders/fs/ht5wlc7s7b56r9p0ngl7ssgc0000gn/T//ccZCPiB8.s 			page 4


  66:../../libDaisy//src/daisy_petal.h ****     DaisyPetal() {}
  67:../../libDaisy//src/daisy_petal.h ****     /** Destructor */
  68:../../libDaisy//src/daisy_petal.h ****     ~DaisyPetal() {}
  60              		.loc 3 68 5 is_stmt 1 view -0
  61              		.cfi_startproc
  62              		@ args = 0, pretend = 0, frame = 0
  63              		@ frame_needed = 0, uses_anonymous_args = 0
  64              		@ link register save eliminated.
  65              	.LBB282:
  66              	.LBI282:
  67              		.loc 2 23 5 view .LVU5
  68              		.loc 2 23 5 is_stmt 0 view .LVU6
  69              	.LBE282:
  70              	.LBB283:
  71              	.LBI283:
  72              		.file 4 "../../libDaisy//src/hid/encoder.h"
   1:../../libDaisy//src/hid/encoder.h **** #pragma once
   2:../../libDaisy//src/hid/encoder.h **** #ifndef DSY_ENCODER_H
   3:../../libDaisy//src/hid/encoder.h **** #define DSY_ENCODER_H
   4:../../libDaisy//src/hid/encoder.h **** #include "daisy_core.h"
   5:../../libDaisy//src/hid/encoder.h **** #include "per/gpio.h"
   6:../../libDaisy//src/hid/encoder.h **** #include "hid/switch.h"
   7:../../libDaisy//src/hid/encoder.h **** 
   8:../../libDaisy//src/hid/encoder.h **** namespace daisy
   9:../../libDaisy//src/hid/encoder.h **** {
  10:../../libDaisy//src/hid/encoder.h **** /** 
  11:../../libDaisy//src/hid/encoder.h ****     @brief Generic Class for handling Quadrature Encoders \n 
  12:../../libDaisy//src/hid/encoder.h ****     Inspired/influenced by Mutable Instruments (pichenettes) Encoder classes
  13:../../libDaisy//src/hid/encoder.h ****     @author Stephen Hensley
  14:../../libDaisy//src/hid/encoder.h ****     @date December 2019
  15:../../libDaisy//src/hid/encoder.h ****     @ingroup controls
  16:../../libDaisy//src/hid/encoder.h **** */
  17:../../libDaisy//src/hid/encoder.h **** class Encoder
  18:../../libDaisy//src/hid/encoder.h **** {
  19:../../libDaisy//src/hid/encoder.h ****   public:
  20:../../libDaisy//src/hid/encoder.h ****     Encoder() {}
  21:../../libDaisy//src/hid/encoder.h ****     ~Encoder() {}
  73              		.loc 4 21 5 is_stmt 1 view .LVU7
  74              	.LBB284:
  75              	.LBI284:
  76              		.file 5 "../../libDaisy//src/hid/switch.h"
   1:../../libDaisy//src/hid/switch.h **** #pragma once
   2:../../libDaisy//src/hid/switch.h **** #ifndef DSY_SWITCH_H
   3:../../libDaisy//src/hid/switch.h **** #define DSY_SWITCH_H
   4:../../libDaisy//src/hid/switch.h **** #include "daisy_core.h"
   5:../../libDaisy//src/hid/switch.h **** #include "per/gpio.h"
   6:../../libDaisy//src/hid/switch.h **** #include "sys/system.h"
   7:../../libDaisy//src/hid/switch.h **** 
   8:../../libDaisy//src/hid/switch.h **** namespace daisy
   9:../../libDaisy//src/hid/switch.h **** {
  10:../../libDaisy//src/hid/switch.h **** /** 
  11:../../libDaisy//src/hid/switch.h ****     Generic Class for handling momentary/latching switches \n 
  12:../../libDaisy//src/hid/switch.h ****     Inspired/influenced by Mutable Instruments (pichenettes) Switch classes
  13:../../libDaisy//src/hid/switch.h ****     @author Stephen Hensley
  14:../../libDaisy//src/hid/switch.h ****     @date December 2019
  15:../../libDaisy//src/hid/switch.h ****     @ingroup controls
  16:../../libDaisy//src/hid/switch.h **** */
ARM GAS  /var/folders/fs/ht5wlc7s7b56r9p0ngl7ssgc0000gn/T//ccZCPiB8.s 			page 5


  17:../../libDaisy//src/hid/switch.h **** class Switch
  18:../../libDaisy//src/hid/switch.h **** {
  19:../../libDaisy//src/hid/switch.h ****   public:
  20:../../libDaisy//src/hid/switch.h ****     /** Specifies the expected behavior of the switch */
  21:../../libDaisy//src/hid/switch.h ****     enum Type
  22:../../libDaisy//src/hid/switch.h ****     {
  23:../../libDaisy//src/hid/switch.h ****         TYPE_TOGGLE,    /**< & */
  24:../../libDaisy//src/hid/switch.h ****         TYPE_MOMENTARY, /**< & */
  25:../../libDaisy//src/hid/switch.h ****     };
  26:../../libDaisy//src/hid/switch.h ****     /** Specifies whether the pressed is HIGH or LOW. */
  27:../../libDaisy//src/hid/switch.h ****     enum Polarity
  28:../../libDaisy//src/hid/switch.h ****     {
  29:../../libDaisy//src/hid/switch.h ****         POLARITY_NORMAL,   /**< & */
  30:../../libDaisy//src/hid/switch.h ****         POLARITY_INVERTED, /**< & */
  31:../../libDaisy//src/hid/switch.h ****     };
  32:../../libDaisy//src/hid/switch.h **** 
  33:../../libDaisy//src/hid/switch.h ****     /** Specifies whether to use built-in Pull Up/Down resistors to hold button at a given state wh
  34:../../libDaisy//src/hid/switch.h ****     enum Pull
  35:../../libDaisy//src/hid/switch.h ****     {
  36:../../libDaisy//src/hid/switch.h ****         PULL_UP,   /**< & */
  37:../../libDaisy//src/hid/switch.h ****         PULL_DOWN, /**< & */
  38:../../libDaisy//src/hid/switch.h ****         PULL_NONE, /**< & */
  39:../../libDaisy//src/hid/switch.h ****     };
  40:../../libDaisy//src/hid/switch.h **** 
  41:../../libDaisy//src/hid/switch.h ****     Switch() {}
  42:../../libDaisy//src/hid/switch.h ****     ~Switch() {}
  77              		.loc 5 42 5 view .LVU8
  78              		.loc 5 42 5 is_stmt 0 view .LVU9
  79              	.LBE284:
  80              	.LBE283:
  81              	.LBB285:
  82              	.LBI285:
  83              		.file 6 "../../libDaisy//src/daisy_seed.h"
   1:../../libDaisy//src/daisy_seed.h **** #pragma once
   2:../../libDaisy//src/daisy_seed.h **** #ifndef DSY_SEED_H
   3:../../libDaisy//src/daisy_seed.h **** #define DSY_SEED_H
   4:../../libDaisy//src/daisy_seed.h **** 
   5:../../libDaisy//src/daisy_seed.h **** #include "daisy.h"
   6:../../libDaisy//src/daisy_seed.h **** 
   7:../../libDaisy//src/daisy_seed.h **** //Uncomment this out if you're still using the rev2 hardware
   8:../../libDaisy//src/daisy_seed.h **** //#define SEED_REV2
   9:../../libDaisy//src/daisy_seed.h **** 
  10:../../libDaisy//src/daisy_seed.h **** namespace daisy
  11:../../libDaisy//src/daisy_seed.h **** {
  12:../../libDaisy//src/daisy_seed.h **** /**
  13:../../libDaisy//src/daisy_seed.h ****    @brief This is the higher-level interface for the Daisy board. \n 
  14:../../libDaisy//src/daisy_seed.h ****     All basic peripheral configuration/initialization is setup here. \n
  15:../../libDaisy//src/daisy_seed.h **** 
  16:../../libDaisy//src/daisy_seed.h ****    @ingroup boards
  17:../../libDaisy//src/daisy_seed.h **** */
  18:../../libDaisy//src/daisy_seed.h **** class DaisySeed
  19:../../libDaisy//src/daisy_seed.h **** {
  20:../../libDaisy//src/daisy_seed.h ****   public:
  21:../../libDaisy//src/daisy_seed.h ****     DaisySeed() {}
  22:../../libDaisy//src/daisy_seed.h ****     ~DaisySeed() {}
  84              		.loc 6 22 5 is_stmt 1 view .LVU10
  85              	.LBB286:
ARM GAS  /var/folders/fs/ht5wlc7s7b56r9p0ngl7ssgc0000gn/T//ccZCPiB8.s 			page 6


  86              	.LBI286:
  87              		.file 7 "../../libDaisy//src/sys/system.h"
   1:../../libDaisy//src/sys/system.h **** #ifndef DSY_SYSTEM_H
   2:../../libDaisy//src/sys/system.h **** #define DSY_SYSTEM_H
   3:../../libDaisy//src/sys/system.h **** 
   4:../../libDaisy//src/sys/system.h **** #ifndef UNIT_TEST // for unit tests, a dummy implementation is provided below
   5:../../libDaisy//src/sys/system.h **** 
   6:../../libDaisy//src/sys/system.h **** #include <cstdint>
   7:../../libDaisy//src/sys/system.h **** #include "per/tim.h"
   8:../../libDaisy//src/sys/system.h **** 
   9:../../libDaisy//src/sys/system.h **** namespace daisy
  10:../../libDaisy//src/sys/system.h **** {
  11:../../libDaisy//src/sys/system.h **** /** A handle for interacting with the Core System. 
  12:../../libDaisy//src/sys/system.h ****  ** This includes the Clock tree, MPU, global DMA initialization,
  13:../../libDaisy//src/sys/system.h ****  ** cache handling, and any other necessary global initiailzation
  14:../../libDaisy//src/sys/system.h ****  **
  15:../../libDaisy//src/sys/system.h ****  ** @author shensley
  16:../../libDaisy//src/sys/system.h ****  ** @ingroup system
  17:../../libDaisy//src/sys/system.h ****  */
  18:../../libDaisy//src/sys/system.h **** class System
  19:../../libDaisy//src/sys/system.h **** {
  20:../../libDaisy//src/sys/system.h ****   public:
  21:../../libDaisy//src/sys/system.h ****     /** Contains settings for initializing the System */
  22:../../libDaisy//src/sys/system.h ****     struct Config
  23:../../libDaisy//src/sys/system.h ****     {
  24:../../libDaisy//src/sys/system.h ****         /** Specifies the system clock frequency that feeds APB/AHB clocks, etc. */
  25:../../libDaisy//src/sys/system.h ****         enum class SysClkFreq
  26:../../libDaisy//src/sys/system.h ****         {
  27:../../libDaisy//src/sys/system.h ****             FREQ_400MHZ,
  28:../../libDaisy//src/sys/system.h ****             FREQ_480MHZ,
  29:../../libDaisy//src/sys/system.h ****         };
  30:../../libDaisy//src/sys/system.h **** 
  31:../../libDaisy//src/sys/system.h ****         /** Method to call on the struct to set to defaults
  32:../../libDaisy//src/sys/system.h ****          ** CPU Freq set to 400MHz
  33:../../libDaisy//src/sys/system.h ****          ** Cache Enabled 
  34:../../libDaisy//src/sys/system.h ****          ** */
  35:../../libDaisy//src/sys/system.h ****         void Defaults()
  36:../../libDaisy//src/sys/system.h ****         {
  37:../../libDaisy//src/sys/system.h ****             cpu_freq    = SysClkFreq::FREQ_400MHZ;
  38:../../libDaisy//src/sys/system.h ****             use_dcache  = true;
  39:../../libDaisy//src/sys/system.h ****             use_icache  = true;
  40:../../libDaisy//src/sys/system.h ****             skip_clocks = false;
  41:../../libDaisy//src/sys/system.h ****         }
  42:../../libDaisy//src/sys/system.h **** 
  43:../../libDaisy//src/sys/system.h ****         /** Method to call on the struct to set to boost mode:
  44:../../libDaisy//src/sys/system.h ****          ** CPU Freq set to 480MHz
  45:../../libDaisy//src/sys/system.h ****          ** Cache Enabled 
  46:../../libDaisy//src/sys/system.h ****          ** */
  47:../../libDaisy//src/sys/system.h ****         void Boost()
  48:../../libDaisy//src/sys/system.h ****         {
  49:../../libDaisy//src/sys/system.h ****             cpu_freq    = SysClkFreq::FREQ_480MHZ;
  50:../../libDaisy//src/sys/system.h ****             use_dcache  = true;
  51:../../libDaisy//src/sys/system.h ****             use_icache  = true;
  52:../../libDaisy//src/sys/system.h ****             skip_clocks = false;
  53:../../libDaisy//src/sys/system.h ****         }
  54:../../libDaisy//src/sys/system.h **** 
  55:../../libDaisy//src/sys/system.h ****         SysClkFreq cpu_freq;
ARM GAS  /var/folders/fs/ht5wlc7s7b56r9p0ngl7ssgc0000gn/T//ccZCPiB8.s 			page 7


  56:../../libDaisy//src/sys/system.h ****         bool       use_dcache;
  57:../../libDaisy//src/sys/system.h ****         bool       use_icache;
  58:../../libDaisy//src/sys/system.h ****         bool       skip_clocks;
  59:../../libDaisy//src/sys/system.h ****     };
  60:../../libDaisy//src/sys/system.h **** 
  61:../../libDaisy//src/sys/system.h ****     /** Describes the different regions of memory available to the Daisy
  62:../../libDaisy//src/sys/system.h ****      * 
  63:../../libDaisy//src/sys/system.h ****      */
  64:../../libDaisy//src/sys/system.h ****     enum MemoryRegion
  65:../../libDaisy//src/sys/system.h ****     {
  66:../../libDaisy//src/sys/system.h ****         INTERNAL_FLASH = 0,
  67:../../libDaisy//src/sys/system.h ****         ITCMRAM,
  68:../../libDaisy//src/sys/system.h ****         DTCMRAM,
  69:../../libDaisy//src/sys/system.h ****         SRAM_D1,
  70:../../libDaisy//src/sys/system.h ****         SRAM_D2,
  71:../../libDaisy//src/sys/system.h ****         SRAM_D3,
  72:../../libDaisy//src/sys/system.h ****         SDRAM,
  73:../../libDaisy//src/sys/system.h ****         QSPI,
  74:../../libDaisy//src/sys/system.h ****         INVALID_ADDRESS,
  75:../../libDaisy//src/sys/system.h ****     };
  76:../../libDaisy//src/sys/system.h **** 
  77:../../libDaisy//src/sys/system.h ****     System() {}
  78:../../libDaisy//src/sys/system.h ****     ~System() {}
  88              		.loc 7 78 5 view .LVU11
  89              		.loc 7 78 5 is_stmt 0 view .LVU12
  90              	.LBE286:
  91              	.LBB287:
  92              	.LBI287:
  93              		.file 8 "../../libDaisy//src/hid/usb.h"
   1:../../libDaisy//src/hid/usb.h **** #pragma once
   2:../../libDaisy//src/hid/usb.h **** #ifndef DSY_HID_USB_H
   3:../../libDaisy//src/hid/usb.h **** #define DSY_HID_USB_H
   4:../../libDaisy//src/hid/usb.h **** #include <stdint.h>
   5:../../libDaisy//src/hid/usb.h **** #include <stdlib.h>
   6:../../libDaisy//src/hid/usb.h **** 
   7:../../libDaisy//src/hid/usb.h **** namespace daisy
   8:../../libDaisy//src/hid/usb.h **** /** @addtogroup human_interface
   9:../../libDaisy//src/hid/usb.h ****     @{
  10:../../libDaisy//src/hid/usb.h **** */
  11:../../libDaisy//src/hid/usb.h **** 
  12:../../libDaisy//src/hid/usb.h **** {
  13:../../libDaisy//src/hid/usb.h **** /** 
  14:../../libDaisy//src/hid/usb.h ****     @brief Interface for initializing and using the USB Peripherals on the daisy
  15:../../libDaisy//src/hid/usb.h ****     @author Stephen Hensley
  16:../../libDaisy//src/hid/usb.h ****     @date December 2019
  17:../../libDaisy//src/hid/usb.h **** */
  18:../../libDaisy//src/hid/usb.h **** class UsbHandle
  19:../../libDaisy//src/hid/usb.h **** {
  20:../../libDaisy//src/hid/usb.h ****   public:
  21:../../libDaisy//src/hid/usb.h ****     /** Return values for USBHandle Functions */
  22:../../libDaisy//src/hid/usb.h ****     enum class Result
  23:../../libDaisy//src/hid/usb.h ****     {
  24:../../libDaisy//src/hid/usb.h ****         OK,
  25:../../libDaisy//src/hid/usb.h ****         ERR,
  26:../../libDaisy//src/hid/usb.h ****     };
  27:../../libDaisy//src/hid/usb.h **** 
  28:../../libDaisy//src/hid/usb.h ****     /** Specified which of the two USB Peripherals to initialize. */
ARM GAS  /var/folders/fs/ht5wlc7s7b56r9p0ngl7ssgc0000gn/T//ccZCPiB8.s 			page 8


  29:../../libDaisy//src/hid/usb.h ****     enum UsbPeriph
  30:../../libDaisy//src/hid/usb.h ****     {
  31:../../libDaisy//src/hid/usb.h ****         FS_INTERNAL, /**< Internal pin */
  32:../../libDaisy//src/hid/usb.h ****         FS_EXTERNAL, /**< FS External D+ pin is Pin 38 (GPIO32). FS External D- pin is Pin 37 (GPIO
  33:../../libDaisy//src/hid/usb.h ****         FS_BOTH,     /**< Both */
  34:../../libDaisy//src/hid/usb.h ****     };
  35:../../libDaisy//src/hid/usb.h **** 
  36:../../libDaisy//src/hid/usb.h **** 
  37:../../libDaisy//src/hid/usb.h ****     /** Function called upon reception of a buffer */
  38:../../libDaisy//src/hid/usb.h ****     typedef void (*ReceiveCallback)(uint8_t* buff, uint32_t* len);
  39:../../libDaisy//src/hid/usb.h **** 
  40:../../libDaisy//src/hid/usb.h ****     UsbHandle() {}
  41:../../libDaisy//src/hid/usb.h **** 
  42:../../libDaisy//src/hid/usb.h ****     ~UsbHandle() {}
  94              		.loc 8 42 5 is_stmt 1 view .LVU13
  95              		.loc 8 42 5 is_stmt 0 view .LVU14
  96              	.LBE287:
  97              	.LBB288:
  98              	.LBI288:
  99              		.file 9 "../../libDaisy//src/per/adc.h"
   1:../../libDaisy//src/per/adc.h **** #pragma once
   2:../../libDaisy//src/per/adc.h **** #ifndef DSY_ADC_H
   3:../../libDaisy//src/per/adc.h **** #define DSY_ADC_H /**< Macro */
   4:../../libDaisy//src/per/adc.h **** #include <stdint.h>
   5:../../libDaisy//src/per/adc.h **** #include <stdlib.h>
   6:../../libDaisy//src/per/adc.h **** #include "daisy_core.h"
   7:../../libDaisy//src/per/adc.h **** #include "per/gpio.h"
   8:../../libDaisy//src/per/adc.h **** 
   9:../../libDaisy//src/per/adc.h **** #define DSY_ADC_MAX_CHANNELS 16 /**< Maximum number of ADC channels */
  10:../../libDaisy//src/per/adc.h **** 
  11:../../libDaisy//src/per/adc.h **** namespace daisy
  12:../../libDaisy//src/per/adc.h **** {
  13:../../libDaisy//src/per/adc.h **** /** @addtogroup per_analog
  14:../../libDaisy//src/per/adc.h ****     @{
  15:../../libDaisy//src/per/adc.h **** */
  16:../../libDaisy//src/per/adc.h **** 
  17:../../libDaisy//src/per/adc.h **** /* While there may not be many configuration options here,
  18:../../libDaisy//src/per/adc.h **** using a struct like this allows us to add more configuration
  19:../../libDaisy//src/per/adc.h **** later without breaking existing functionality.
  20:../../libDaisy//src/per/adc.h **** */
  21:../../libDaisy//src/per/adc.h **** 
  22:../../libDaisy//src/per/adc.h **** /** @brief   Configuration Structure for an ADC Channel 
  23:../../libDaisy//src/per/adc.h ****  *  @details This can be used to configure a a single input, 
  24:../../libDaisy//src/per/adc.h ****  *           or a multiplexed input, allowing up to 8 inputs on 
  25:../../libDaisy//src/per/adc.h ****  *           one channel.
  26:../../libDaisy//src/per/adc.h ****  *  @note    Sharing data lines to multiple muxes _is_ possible, but
  27:../../libDaisy//src/per/adc.h ****  *           each channel sharing data lines must be set to the maximum
  28:../../libDaisy//src/per/adc.h ****  *           number of channels, even if some multiplexers have fewer
  29:../../libDaisy//src/per/adc.h ****  *           inputs connected.
  30:../../libDaisy//src/per/adc.h **** */
  31:../../libDaisy//src/per/adc.h **** struct AdcChannelConfig
  32:../../libDaisy//src/per/adc.h **** {
  33:../../libDaisy//src/per/adc.h ****     /** Which pin to use for multiplexing */
  34:../../libDaisy//src/per/adc.h ****     enum MuxPin
  35:../../libDaisy//src/per/adc.h ****     {
  36:../../libDaisy//src/per/adc.h ****         MUX_SEL_0,    /**< & */
  37:../../libDaisy//src/per/adc.h ****         MUX_SEL_1,    /**< & */
ARM GAS  /var/folders/fs/ht5wlc7s7b56r9p0ngl7ssgc0000gn/T//ccZCPiB8.s 			page 9


  38:../../libDaisy//src/per/adc.h ****         MUX_SEL_2,    /**< & */
  39:../../libDaisy//src/per/adc.h ****         MUX_SEL_LAST, /**< & */
  40:../../libDaisy//src/per/adc.h ****     };
  41:../../libDaisy//src/per/adc.h **** 
  42:../../libDaisy//src/per/adc.h ****     /** Initializes a single ADC pin as an ADC. 
  43:../../libDaisy//src/per/adc.h ****     \param pin Pin to init.
  44:../../libDaisy//src/per/adc.h ****      */
  45:../../libDaisy//src/per/adc.h ****     void InitSingle(dsy_gpio_pin pin);
  46:../../libDaisy//src/per/adc.h **** 
  47:../../libDaisy//src/per/adc.h ****     /** 
  48:../../libDaisy//src/per/adc.h ****     Initializes a single ADC pin as a Multiplexed ADC.
  49:../../libDaisy//src/per/adc.h ****     Requires a CD405X Multiplexer connected to the pin.
  50:../../libDaisy//src/per/adc.h ****     You only need to supply the mux pins that are required,
  51:../../libDaisy//src/per/adc.h ****     e.g. a 4052 mux would only require mux_0 and mux_1.
  52:../../libDaisy//src/per/adc.h ****     Internal Callbacks handle the pin addressing.
  53:../../libDaisy//src/per/adc.h ****     \param mux_channels must be 1-8
  54:../../libDaisy//src/per/adc.h ****     \param mux_0 First mux pin
  55:../../libDaisy//src/per/adc.h ****     \param mux_1 Second mux pin
  56:../../libDaisy//src/per/adc.h ****     \param mux_2 Third mux pin
  57:../../libDaisy//src/per/adc.h ****     \param adc_pin &
  58:../../libDaisy//src/per/adc.h ****     */
  59:../../libDaisy//src/per/adc.h ****     void InitMux(dsy_gpio_pin adc_pin,
  60:../../libDaisy//src/per/adc.h ****                  size_t       mux_channels,
  61:../../libDaisy//src/per/adc.h ****                  dsy_gpio_pin mux_0,
  62:../../libDaisy//src/per/adc.h ****                  dsy_gpio_pin mux_1 = {DSY_GPIOX, 0},
  63:../../libDaisy//src/per/adc.h ****                  dsy_gpio_pin mux_2 = {DSY_GPIOX, 0});
  64:../../libDaisy//src/per/adc.h **** 
  65:../../libDaisy//src/per/adc.h ****     dsy_gpio pin_;                   /**< & */
  66:../../libDaisy//src/per/adc.h ****     dsy_gpio mux_pin_[MUX_SEL_LAST]; /**< & */
  67:../../libDaisy//src/per/adc.h ****     uint8_t  mux_channels_;          /**< & */
  68:../../libDaisy//src/per/adc.h **** };
  69:../../libDaisy//src/per/adc.h **** 
  70:../../libDaisy//src/per/adc.h **** /**
  71:../../libDaisy//src/per/adc.h ****    @brief Handler for analog to digital conversion
  72:../../libDaisy//src/per/adc.h **** */
  73:../../libDaisy//src/per/adc.h **** class AdcHandle
  74:../../libDaisy//src/per/adc.h **** {
  75:../../libDaisy//src/per/adc.h ****   public:
  76:../../libDaisy//src/per/adc.h ****     /** Supported oversampling amounts */
  77:../../libDaisy//src/per/adc.h ****     enum OverSampling
  78:../../libDaisy//src/per/adc.h ****     {
  79:../../libDaisy//src/per/adc.h ****         OVS_NONE, /**< & */
  80:../../libDaisy//src/per/adc.h ****         OVS_4,    /**< & */
  81:../../libDaisy//src/per/adc.h ****         OVS_8,    /**< & */
  82:../../libDaisy//src/per/adc.h ****         OVS_16,   /**< & */
  83:../../libDaisy//src/per/adc.h ****         OVS_32,   /**< & */
  84:../../libDaisy//src/per/adc.h ****         OVS_64,   /**< & */
  85:../../libDaisy//src/per/adc.h ****         OVS_128,  /**< & */
  86:../../libDaisy//src/per/adc.h ****         OVS_256,  /**< & */
  87:../../libDaisy//src/per/adc.h ****         OVS_512,  /**< & */
  88:../../libDaisy//src/per/adc.h ****         OVS_1024, /**< & */
  89:../../libDaisy//src/per/adc.h ****         OVS_LAST, /**< & */
  90:../../libDaisy//src/per/adc.h ****     };
  91:../../libDaisy//src/per/adc.h **** 
  92:../../libDaisy//src/per/adc.h ****     AdcHandle() {}
  93:../../libDaisy//src/per/adc.h ****     ~AdcHandle() {}
 100              		.loc 9 93 5 is_stmt 1 view .LVU15
ARM GAS  /var/folders/fs/ht5wlc7s7b56r9p0ngl7ssgc0000gn/T//ccZCPiB8.s 			page 10


 101              		.loc 9 93 5 is_stmt 0 view .LVU16
 102              	.LBE288:
 103              	.LBB289:
 104              	.LBI289:
 105              		.file 10 "../../libDaisy//src/hid/audio.h"
   1:../../libDaisy//src/hid/audio.h **** #ifndef DSY_AUDIO_H
   2:../../libDaisy//src/hid/audio.h **** #define DSY_AUDIO_H /**< & */
   3:../../libDaisy//src/hid/audio.h **** 
   4:../../libDaisy//src/hid/audio.h **** #include "per/sai.h"
   5:../../libDaisy//src/hid/audio.h **** 
   6:../../libDaisy//src/hid/audio.h **** namespace daisy
   7:../../libDaisy//src/hid/audio.h **** {
   8:../../libDaisy//src/hid/audio.h **** /** @brief Audio Engine Handle
   9:../../libDaisy//src/hid/audio.h ****  *  @ingroup audio 
  10:../../libDaisy//src/hid/audio.h ****  *  @details This class allows for higher level access to an audio engine.
  11:../../libDaisy//src/hid/audio.h ****  *           If you're using a SOM like the DaisySeed or DaisyPatchSM (or any 
  12:../../libDaisy//src/hid/audio.h ****  *            board that includes one of those objects) then the intialization
  13:../../libDaisy//src/hid/audio.h ****  *            is already taken  care of.
  14:../../libDaisy//src/hid/audio.h ****  *           If you're setting up your own custom hardware, or need to make changes
  15:../../libDaisy//src/hid/audio.h ****  *           you will have to take the following steps:
  16:../../libDaisy//src/hid/audio.h ****  *             1. Create and Initialize an SaiHandle or two depending on your requirements
  17:../../libDaisy//src/hid/audio.h ****  *             2. Initialize the Audio Handle with the desired settings and the Initialized SaiHand
  18:../../libDaisy//src/hid/audio.h ****  *             3. If the connected codec requires special configuration or initialization, do so
  19:../../libDaisy//src/hid/audio.h ****  *             4. Write a callback method using either the AudioCallback or the InterleavingAudioCa
  20:../../libDaisy//src/hid/audio.h ****  *             5. Start the Audio using one of the StartAudio function
  21:../../libDaisy//src/hid/audio.h ****  */
  22:../../libDaisy//src/hid/audio.h **** class AudioHandle
  23:../../libDaisy//src/hid/audio.h **** {
  24:../../libDaisy//src/hid/audio.h ****   public:
  25:../../libDaisy//src/hid/audio.h ****     /** Manually configurable details about the Audio Engine */
  26:../../libDaisy//src/hid/audio.h ****     /** TODO: Figure out how to get samplerate in here. */
  27:../../libDaisy//src/hid/audio.h ****     struct Config
  28:../../libDaisy//src/hid/audio.h ****     {
  29:../../libDaisy//src/hid/audio.h ****         /** number of samples to process per callback */
  30:../../libDaisy//src/hid/audio.h ****         size_t blocksize;
  31:../../libDaisy//src/hid/audio.h **** 
  32:../../libDaisy//src/hid/audio.h ****         /**< Sample rate of audio */
  33:../../libDaisy//src/hid/audio.h ****         SaiHandle::Config::SampleRate samplerate;
  34:../../libDaisy//src/hid/audio.h **** 
  35:../../libDaisy//src/hid/audio.h ****         /** factor for adjustment before and after callback for hardware that may have extra headro
  36:../../libDaisy//src/hid/audio.h ****         float postgain;
  37:../../libDaisy//src/hid/audio.h **** 
  38:../../libDaisy//src/hid/audio.h ****         /** factor for additional one-sided compensation to audio path for hardware that may
  39:../../libDaisy//src/hid/audio.h ****          *  have unequal input/output ranges
  40:../../libDaisy//src/hid/audio.h ****          */
  41:../../libDaisy//src/hid/audio.h ****         float output_compensation;
  42:../../libDaisy//src/hid/audio.h **** 
  43:../../libDaisy//src/hid/audio.h ****         /** Sets default values for config struct */
  44:../../libDaisy//src/hid/audio.h ****         Config()
  45:../../libDaisy//src/hid/audio.h ****         : blocksize(48),
  46:../../libDaisy//src/hid/audio.h ****           samplerate(SaiHandle::Config::SampleRate::SAI_48KHZ),
  47:../../libDaisy//src/hid/audio.h ****           postgain(1.f),
  48:../../libDaisy//src/hid/audio.h ****           output_compensation(1.f)
  49:../../libDaisy//src/hid/audio.h ****         {
  50:../../libDaisy//src/hid/audio.h ****         }
  51:../../libDaisy//src/hid/audio.h ****     };
  52:../../libDaisy//src/hid/audio.h **** 
ARM GAS  /var/folders/fs/ht5wlc7s7b56r9p0ngl7ssgc0000gn/T//ccZCPiB8.s 			page 11


  53:../../libDaisy//src/hid/audio.h ****     enum class Result
  54:../../libDaisy//src/hid/audio.h ****     {
  55:../../libDaisy//src/hid/audio.h ****         OK,
  56:../../libDaisy//src/hid/audio.h ****         ERR,
  57:../../libDaisy//src/hid/audio.h ****     };
  58:../../libDaisy//src/hid/audio.h **** 
  59:../../libDaisy//src/hid/audio.h ****     /** Non-Interleaving input buffer
  60:../../libDaisy//src/hid/audio.h ****      * Buffer arranged by float[chn][sample] 
  61:../../libDaisy//src/hid/audio.h ****      * const so that the user can't modify the input
  62:../../libDaisy//src/hid/audio.h ****      */
  63:../../libDaisy//src/hid/audio.h ****     typedef const float* const* InputBuffer;
  64:../../libDaisy//src/hid/audio.h **** 
  65:../../libDaisy//src/hid/audio.h ****     /** Non-Interleaving output buffer
  66:../../libDaisy//src/hid/audio.h ****      * Arranged by float[chn][sample] 
  67:../../libDaisy//src/hid/audio.h ****      */
  68:../../libDaisy//src/hid/audio.h ****     typedef float** OutputBuffer;
  69:../../libDaisy//src/hid/audio.h **** 
  70:../../libDaisy//src/hid/audio.h ****     /** Type for a Non-Interleaving audio callback 
  71:../../libDaisy//src/hid/audio.h ****      * Non-Interleaving audio callbacks in daisy will be of this type
  72:../../libDaisy//src/hid/audio.h ****      */
  73:../../libDaisy//src/hid/audio.h ****     typedef void (*AudioCallback)(InputBuffer  in,
  74:../../libDaisy//src/hid/audio.h ****                                   OutputBuffer out,
  75:../../libDaisy//src/hid/audio.h ****                                   size_t       size);
  76:../../libDaisy//src/hid/audio.h **** 
  77:../../libDaisy//src/hid/audio.h ****     /** Interleaving Input buffer
  78:../../libDaisy//src/hid/audio.h ****      ** audio is prepared as { L0, R0, L1, R1, . . . LN, RN }]
  79:../../libDaisy//src/hid/audio.h ****      ** this is const, as the user shouldn't modify it
  80:../../libDaisy//src/hid/audio.h ****     */
  81:../../libDaisy//src/hid/audio.h ****     typedef const float* InterleavingInputBuffer;
  82:../../libDaisy//src/hid/audio.h **** 
  83:../../libDaisy//src/hid/audio.h ****     /** Interleaving Output buffer 
  84:../../libDaisy//src/hid/audio.h ****      ** audio is prepared as { L0, R0, L1, R1, . . . LN, RN }
  85:../../libDaisy//src/hid/audio.h ****     */
  86:../../libDaisy//src/hid/audio.h ****     typedef float* InterleavingOutputBuffer;
  87:../../libDaisy//src/hid/audio.h **** 
  88:../../libDaisy//src/hid/audio.h ****     /** Interleaving Audio Callback 
  89:../../libDaisy//src/hid/audio.h ****      * Interleaving audio callbacks in daisy must be of this type
  90:../../libDaisy//src/hid/audio.h ****      */
  91:../../libDaisy//src/hid/audio.h ****     typedef void (*InterleavingAudioCallback)(InterleavingInputBuffer  in,
  92:../../libDaisy//src/hid/audio.h ****                                               InterleavingOutputBuffer out,
  93:../../libDaisy//src/hid/audio.h ****                                               size_t                   size);
  94:../../libDaisy//src/hid/audio.h **** 
  95:../../libDaisy//src/hid/audio.h ****     AudioHandle() : pimpl_(nullptr) {}
  96:../../libDaisy//src/hid/audio.h ****     ~AudioHandle() {}
 106              		.loc 10 96 5 is_stmt 1 view .LVU17
 107              		.loc 10 96 5 is_stmt 0 view .LVU18
 108              	.LBE289:
 109              	.LBE285:
 110              		.loc 3 68 20 view .LVU19
 111 0000 7047     		bx	lr
 112              		.cfi_endproc
 113              	.LFE2541:
 115              		.weak	_ZN5daisy10DaisyPetalD1Ev
 116              		.thumb_set _ZN5daisy10DaisyPetalD1Ev,_ZN5daisy10DaisyPetalD2Ev
 117 0002 00BF     		.section	.text._ZN7daisysp7BalanceD2Ev,"axG",%progbits,_ZN7daisysp7BalanceD5Ev,comdat
 118              		.align	1
 119              		.p2align 2,,3
ARM GAS  /var/folders/fs/ht5wlc7s7b56r9p0ngl7ssgc0000gn/T//ccZCPiB8.s 			page 12


 120              		.weak	_ZN7daisysp7BalanceD2Ev
 121              		.syntax unified
 122              		.thumb
 123              		.thumb_func
 125              	_ZN7daisysp7BalanceD2Ev:
 126              	.LVL2:
 127              	.LFB4320:
 128              		.file 11 "../../DaisySP//Source/Dynamics/balance.h"
   1:../../DaisySP//Source/Dynamics/balance.h **** 
   2:../../DaisySP//Source/Dynamics/balance.h **** #pragma once
   3:../../DaisySP//Source/Dynamics/balance.h **** #ifndef DSY_BALANCE_H
   4:../../DaisySP//Source/Dynamics/balance.h **** #define DSY_BALANCE_H
   5:../../DaisySP//Source/Dynamics/balance.h **** 
   6:../../DaisySP//Source/Dynamics/balance.h **** #include <stdint.h>
   7:../../DaisySP//Source/Dynamics/balance.h **** #ifdef __cplusplus
   8:../../DaisySP//Source/Dynamics/balance.h **** 
   9:../../DaisySP//Source/Dynamics/balance.h **** namespace daisysp
  10:../../DaisySP//Source/Dynamics/balance.h **** {
  11:../../DaisySP//Source/Dynamics/balance.h **** /** Balances two sound sources. Sig is boosted to the level of comp.
  12:../../DaisySP//Source/Dynamics/balance.h **** 
  13:../../DaisySP//Source/Dynamics/balance.h ****     *Original author(s) : Barry Vercoe, john ffitch, Gabriel Maldonado
  14:../../DaisySP//Source/Dynamics/balance.h **** 
  15:../../DaisySP//Source/Dynamics/balance.h ****     *Year: 1991
  16:../../DaisySP//Source/Dynamics/balance.h **** 
  17:../../DaisySP//Source/Dynamics/balance.h ****     *Ported from soundpipe by Ben Sergentanis, May 2020
  18:../../DaisySP//Source/Dynamics/balance.h **** */
  19:../../DaisySP//Source/Dynamics/balance.h **** class Balance
  20:../../DaisySP//Source/Dynamics/balance.h **** {
  21:../../DaisySP//Source/Dynamics/balance.h ****   public:
  22:../../DaisySP//Source/Dynamics/balance.h ****     Balance() {}
  23:../../DaisySP//Source/Dynamics/balance.h ****     ~Balance() {}
 129              		.loc 11 23 5 is_stmt 1 view -0
 130              		.cfi_startproc
 131              		@ args = 0, pretend = 0, frame = 0
 132              		@ frame_needed = 0, uses_anonymous_args = 0
 133              		@ link register save eliminated.
 134              		.loc 11 23 17 is_stmt 0 view .LVU21
 135 0000 7047     		bx	lr
 136              		.cfi_endproc
 137              	.LFE4320:
 139              		.weak	_ZN7daisysp7BalanceD1Ev
 140              		.thumb_set _ZN7daisysp7BalanceD1Ev,_ZN7daisysp7BalanceD2Ev
 141 0002 00BF     		.section	.text._ZN7daisysp9CrossFadeD2Ev,"axG",%progbits,_ZN7daisysp9CrossFadeD5Ev,comdat
 142              		.align	1
 143              		.p2align 2,,3
 144              		.weak	_ZN7daisysp9CrossFadeD2Ev
 145              		.syntax unified
 146              		.thumb
 147              		.thumb_func
 149              	_ZN7daisysp9CrossFadeD2Ev:
 150              	.LVL3:
 151              	.LFB4352:
 152              		.file 12 "../../DaisySP//Source/Dynamics/crossfade.h"
   1:../../DaisySP//Source/Dynamics/crossfade.h **** #pragma once
   2:../../DaisySP//Source/Dynamics/crossfade.h **** #ifndef DSY_CROSSFADE_H
   3:../../DaisySP//Source/Dynamics/crossfade.h **** #define DSY_CROSSFADE_H
   4:../../DaisySP//Source/Dynamics/crossfade.h **** #include <stdint.h>
ARM GAS  /var/folders/fs/ht5wlc7s7b56r9p0ngl7ssgc0000gn/T//ccZCPiB8.s 			page 13


   5:../../DaisySP//Source/Dynamics/crossfade.h **** #ifdef __cplusplus
   6:../../DaisySP//Source/Dynamics/crossfade.h **** 
   7:../../DaisySP//Source/Dynamics/crossfade.h **** namespace daisysp
   8:../../DaisySP//Source/Dynamics/crossfade.h **** {
   9:../../DaisySP//Source/Dynamics/crossfade.h **** /** Curve applied to the CrossFade
  10:../../DaisySP//Source/Dynamics/crossfade.h **** - LIN = linear
  11:../../DaisySP//Source/Dynamics/crossfade.h **** - CPOW = constant power
  12:../../DaisySP//Source/Dynamics/crossfade.h **** - LOG = logarithmic
  13:../../DaisySP//Source/Dynamics/crossfade.h **** - EXP  exponential
  14:../../DaisySP//Source/Dynamics/crossfade.h **** - LAST = end of enum (used for array indexing)
  15:../../DaisySP//Source/Dynamics/crossfade.h **** */
  16:../../DaisySP//Source/Dynamics/crossfade.h **** enum
  17:../../DaisySP//Source/Dynamics/crossfade.h **** {
  18:../../DaisySP//Source/Dynamics/crossfade.h ****     CROSSFADE_LIN,
  19:../../DaisySP//Source/Dynamics/crossfade.h ****     CROSSFADE_CPOW,
  20:../../DaisySP//Source/Dynamics/crossfade.h ****     CROSSFADE_LOG,
  21:../../DaisySP//Source/Dynamics/crossfade.h ****     CROSSFADE_EXP,
  22:../../DaisySP//Source/Dynamics/crossfade.h ****     CROSSFADE_LAST,
  23:../../DaisySP//Source/Dynamics/crossfade.h **** };
  24:../../DaisySP//Source/Dynamics/crossfade.h **** 
  25:../../DaisySP//Source/Dynamics/crossfade.h **** /** Performs a CrossFade between two signals
  26:../../DaisySP//Source/Dynamics/crossfade.h **** 
  27:../../DaisySP//Source/Dynamics/crossfade.h ****     Original author: Paul Batchelor
  28:../../DaisySP//Source/Dynamics/crossfade.h **** 
  29:../../DaisySP//Source/Dynamics/crossfade.h ****     Ported from Soundpipe by Andrew Ikenberry
  30:../../DaisySP//Source/Dynamics/crossfade.h **** 
  31:../../DaisySP//Source/Dynamics/crossfade.h ****     added curve option for constant power, etc.
  32:../../DaisySP//Source/Dynamics/crossfade.h **** */
  33:../../DaisySP//Source/Dynamics/crossfade.h **** class CrossFade
  34:../../DaisySP//Source/Dynamics/crossfade.h **** {
  35:../../DaisySP//Source/Dynamics/crossfade.h ****   public:
  36:../../DaisySP//Source/Dynamics/crossfade.h ****     CrossFade() {}
  37:../../DaisySP//Source/Dynamics/crossfade.h ****     ~CrossFade() {}
 153              		.loc 12 37 5 is_stmt 1 view -0
 154              		.cfi_startproc
 155              		@ args = 0, pretend = 0, frame = 0
 156              		@ frame_needed = 0, uses_anonymous_args = 0
 157              		@ link register save eliminated.
 158              		.loc 12 37 19 is_stmt 0 view .LVU23
 159 0000 7047     		bx	lr
 160              		.cfi_endproc
 161              	.LFE4352:
 163              		.weak	_ZN7daisysp9CrossFadeD1Ev
 164              		.thumb_set _ZN7daisysp9CrossFadeD1Ev,_ZN7daisysp9CrossFadeD2Ev
 165 0002 00BF     		.section	.text._ZN7daisysp7TremoloD2Ev,"axG",%progbits,_ZN7daisysp7TremoloD5Ev,comdat
 166              		.align	1
 167              		.p2align 2,,3
 168              		.weak	_ZN7daisysp7TremoloD2Ev
 169              		.syntax unified
 170              		.thumb
 171              		.thumb_func
 173              	_ZN7daisysp7TremoloD2Ev:
 174              	.LVL4:
 175              	.LFB4474:
 176              		.file 13 "../../DaisySP//Source/Effects/tremolo.h"
   1:../../DaisySP//Source/Effects/tremolo.h **** #pragma once
   2:../../DaisySP//Source/Effects/tremolo.h **** #ifndef DSY_TREMOLO_H
ARM GAS  /var/folders/fs/ht5wlc7s7b56r9p0ngl7ssgc0000gn/T//ccZCPiB8.s 			page 14


   3:../../DaisySP//Source/Effects/tremolo.h **** #define DSY_TREMOLO_H
   4:../../DaisySP//Source/Effects/tremolo.h **** 
   5:../../DaisySP//Source/Effects/tremolo.h **** #include <stdint.h>
   6:../../DaisySP//Source/Effects/tremolo.h **** #ifdef __cplusplus
   7:../../DaisySP//Source/Effects/tremolo.h **** 
   8:../../DaisySP//Source/Effects/tremolo.h **** #include <math.h>
   9:../../DaisySP//Source/Effects/tremolo.h **** #include "Synthesis/oscillator.h"
  10:../../DaisySP//Source/Effects/tremolo.h **** 
  11:../../DaisySP//Source/Effects/tremolo.h **** /** @file tremolo.h */
  12:../../DaisySP//Source/Effects/tremolo.h **** 
  13:../../DaisySP//Source/Effects/tremolo.h **** namespace daisysp
  14:../../DaisySP//Source/Effects/tremolo.h **** {
  15:../../DaisySP//Source/Effects/tremolo.h **** /**  
  16:../../DaisySP//Source/Effects/tremolo.h ****     @brief Tremolo effect.
  17:../../DaisySP//Source/Effects/tremolo.h ****     @author Ben Sergentanis
  18:../../DaisySP//Source/Effects/tremolo.h ****     @date Jan 2021
  19:../../DaisySP//Source/Effects/tremolo.h ****     Based on https://christianfloisand.wordpress.com/2012/04/18/coding-some-tremolo/ \n
  20:../../DaisySP//Source/Effects/tremolo.h **** */
  21:../../DaisySP//Source/Effects/tremolo.h **** class Tremolo
  22:../../DaisySP//Source/Effects/tremolo.h **** {
  23:../../DaisySP//Source/Effects/tremolo.h ****   public:
  24:../../DaisySP//Source/Effects/tremolo.h ****     Tremolo() {}
  25:../../DaisySP//Source/Effects/tremolo.h ****     ~Tremolo() {}
 177              		.loc 13 25 5 is_stmt 1 view -0
 178              		.cfi_startproc
 179              		@ args = 0, pretend = 0, frame = 0
 180              		@ frame_needed = 0, uses_anonymous_args = 0
 181              		@ link register save eliminated.
 182              	.LBB290:
 183              	.LBI290:
 184              		.file 14 "../../DaisySP//Source/Synthesis/oscillator.h"
   1:../../DaisySP//Source/Synthesis/oscillator.h **** #pragma once
   2:../../DaisySP//Source/Synthesis/oscillator.h **** #ifndef DSY_OSCILLATOR_H
   3:../../DaisySP//Source/Synthesis/oscillator.h **** #define DSY_OSCILLATOR_H
   4:../../DaisySP//Source/Synthesis/oscillator.h **** #include <stdint.h>
   5:../../DaisySP//Source/Synthesis/oscillator.h **** #include "Utility/dsp.h"
   6:../../DaisySP//Source/Synthesis/oscillator.h **** #ifdef __cplusplus
   7:../../DaisySP//Source/Synthesis/oscillator.h **** 
   8:../../DaisySP//Source/Synthesis/oscillator.h **** namespace daisysp
   9:../../DaisySP//Source/Synthesis/oscillator.h **** {
  10:../../DaisySP//Source/Synthesis/oscillator.h **** /** Synthesis of several waveforms, including polyBLEP bandlimited waveforms.
  11:../../DaisySP//Source/Synthesis/oscillator.h **** */
  12:../../DaisySP//Source/Synthesis/oscillator.h **** class Oscillator
  13:../../DaisySP//Source/Synthesis/oscillator.h **** {
  14:../../DaisySP//Source/Synthesis/oscillator.h ****   public:
  15:../../DaisySP//Source/Synthesis/oscillator.h ****     Oscillator() {}
  16:../../DaisySP//Source/Synthesis/oscillator.h ****     ~Oscillator() {}
 185              		.loc 14 16 5 view .LVU25
 186              		.loc 14 16 5 is_stmt 0 view .LVU26
 187              	.LBE290:
 188              		.loc 13 25 17 view .LVU27
 189 0000 7047     		bx	lr
 190              		.cfi_endproc
 191              	.LFE4474:
 193              		.weak	_ZN7daisysp7TremoloD1Ev
 194              		.thumb_set _ZN7daisysp7TremoloD1Ev,_ZN7daisysp7TremoloD2Ev
 195 0002 00BF     		.section	.text._ZN10ToneFilterD2Ev,"axG",%progbits,_ZN10ToneFilterD5Ev,comdat
ARM GAS  /var/folders/fs/ht5wlc7s7b56r9p0ngl7ssgc0000gn/T//ccZCPiB8.s 			page 15


 196              		.align	1
 197              		.p2align 2,,3
 198              		.weak	_ZN10ToneFilterD2Ev
 199              		.syntax unified
 200              		.thumb
 201              		.thumb_func
 203              	_ZN10ToneFilterD2Ev:
 204              	.LVL5:
 205              	.LFB5395:
 206              		.file 15 "ToneFilter.h"
   1:ToneFilter.h  **** #pragma once
   2:ToneFilter.h  **** #include "daisysp.h"
   3:ToneFilter.h  **** #include "daisy_seed.h"
   4:ToneFilter.h  **** 
   5:ToneFilter.h  **** using namespace daisysp;
   6:ToneFilter.h  **** using namespace daisy;
   7:ToneFilter.h  **** using namespace daisy::seed;
   8:ToneFilter.h  **** 
   9:ToneFilter.h  **** class ToneFilter
 207              		.loc 15 9 7 is_stmt 1 view -0
 208              		.cfi_startproc
 209              		@ args = 0, pretend = 0, frame = 0
 210              		@ frame_needed = 0, uses_anonymous_args = 0
 211              		@ link register save eliminated.
 212              	.LBB291:
 213              	.LBI291:
 214              		.file 16 "../../DaisySP//Source/Filters/atone.h"
   1:../../DaisySP//Source/Filters/atone.h **** #pragma once
   2:../../DaisySP//Source/Filters/atone.h **** #ifndef DSY_ATONE_H
   3:../../DaisySP//Source/Filters/atone.h **** #define DSY_ATONE_H
   4:../../DaisySP//Source/Filters/atone.h **** 
   5:../../DaisySP//Source/Filters/atone.h **** #include <stdint.h>
   6:../../DaisySP//Source/Filters/atone.h **** #ifdef __cplusplus
   7:../../DaisySP//Source/Filters/atone.h **** 
   8:../../DaisySP//Source/Filters/atone.h **** namespace daisysp
   9:../../DaisySP//Source/Filters/atone.h **** {
  10:../../DaisySP//Source/Filters/atone.h **** /** A first-order recursive high-pass filter with variable frequency response.
  11:../../DaisySP//Source/Filters/atone.h ****      Original Author(s): Barry Vercoe, John FFitch, Gabriel Maldonado
  12:../../DaisySP//Source/Filters/atone.h **** 
  13:../../DaisySP//Source/Filters/atone.h ****      Year: 1991
  14:../../DaisySP//Source/Filters/atone.h **** 
  15:../../DaisySP//Source/Filters/atone.h ****      Original Location: Csound -- OOps/ugens5.c
  16:../../DaisySP//Source/Filters/atone.h **** 
  17:../../DaisySP//Source/Filters/atone.h ****      Ported from soundpipe by Ben Sergentanis, May 2020
  18:../../DaisySP//Source/Filters/atone.h ****     */
  19:../../DaisySP//Source/Filters/atone.h **** class ATone
  20:../../DaisySP//Source/Filters/atone.h **** {
  21:../../DaisySP//Source/Filters/atone.h ****   public:
  22:../../DaisySP//Source/Filters/atone.h ****     ATone() {}
  23:../../DaisySP//Source/Filters/atone.h ****     ~ATone() {}
 215              		.loc 16 23 5 view .LVU29
 216              		.loc 16 23 5 is_stmt 0 view .LVU30
 217              	.LBE291:
 218              	.LBB292:
 219              	.LBI292:
 220              		.file 17 "../../DaisySP//Source/Filters/tone.h"
   1:../../DaisySP//Source/Filters/tone.h **** #pragma once
ARM GAS  /var/folders/fs/ht5wlc7s7b56r9p0ngl7ssgc0000gn/T//ccZCPiB8.s 			page 16


   2:../../DaisySP//Source/Filters/tone.h **** #ifndef DSY_TONE_H
   3:../../DaisySP//Source/Filters/tone.h **** #define DSY_TONE_H
   4:../../DaisySP//Source/Filters/tone.h **** 
   5:../../DaisySP//Source/Filters/tone.h **** #include <stdint.h>
   6:../../DaisySP//Source/Filters/tone.h **** #ifdef __cplusplus
   7:../../DaisySP//Source/Filters/tone.h **** 
   8:../../DaisySP//Source/Filters/tone.h **** namespace daisysp
   9:../../DaisySP//Source/Filters/tone.h **** {
  10:../../DaisySP//Source/Filters/tone.h **** /** A first-order recursive low-pass filter with variable frequency response.
  11:../../DaisySP//Source/Filters/tone.h **** */
  12:../../DaisySP//Source/Filters/tone.h **** class Tone
  13:../../DaisySP//Source/Filters/tone.h **** {
  14:../../DaisySP//Source/Filters/tone.h ****   public:
  15:../../DaisySP//Source/Filters/tone.h ****     Tone() {}
  16:../../DaisySP//Source/Filters/tone.h ****     ~Tone() {}
 221              		.loc 17 16 5 is_stmt 1 view .LVU31
 222              		.loc 17 16 5 is_stmt 0 view .LVU32
 223              	.LBE292:
 224              		.loc 15 9 7 view .LVU33
 225 0000 7047     		bx	lr
 226              		.cfi_endproc
 227              	.LFE5395:
 229              		.weak	_ZN10ToneFilterD1Ev
 230              		.thumb_set _ZN10ToneFilterD1Ev,_ZN10ToneFilterD2Ev
 231 0002 00BF     		.section	.text.__tcf_0,"ax",%progbits
 232              		.align	1
 233              		.p2align 2,,3
 234              		.syntax unified
 235              		.thumb
 236              		.thumb_func
 238              	__tcf_0:
 239              	.LFB5397:
 240              		.file 18 "Pedal.cpp"
   1:Pedal.cpp     **** #include "daisy_petal.h"
   2:Pedal.cpp     **** #include "daisysp.h"
   3:Pedal.cpp     **** #include "Terrarium.h"
   4:Pedal.cpp     **** #include "Delay.h"
   5:Pedal.cpp     **** #include "ToneFilter.h"
   6:Pedal.cpp     **** #include "TapTempo.h"
   7:Pedal.cpp     **** 
   8:Pedal.cpp     **** using namespace daisy;
   9:Pedal.cpp     **** using namespace daisysp;
  10:Pedal.cpp     **** using namespace terrarium;
  11:Pedal.cpp     **** 
  12:Pedal.cpp     **** 
  13:Pedal.cpp     **** Tremolo tremelo;
  14:Pedal.cpp     **** 
  15:Pedal.cpp     **** 
  16:Pedal.cpp     **** DaisyPetal hw;
  17:Pedal.cpp     **** Delay delay;
  18:Pedal.cpp     **** Balance balance;
  19:Pedal.cpp     **** TapTempo tapTempo;
  20:Pedal.cpp     **** ToneFilter tone(48000.f);
  21:Pedal.cpp     **** static CrossFade crossFade;
  22:Pedal.cpp     **** DelayLine<float, MAX_DELAY> DSY_SDRAM_BSS delayMems[4];
 241              		.loc 18 22 43 is_stmt 1 view -0
 242              		.cfi_startproc
ARM GAS  /var/folders/fs/ht5wlc7s7b56r9p0ngl7ssgc0000gn/T//ccZCPiB8.s 			page 17


 243              		@ args = 0, pretend = 0, frame = 0
 244              		@ frame_needed = 0, uses_anonymous_args = 0
 245              		@ link register save eliminated.
 246              		.loc 18 22 43 is_stmt 0 view .LVU35
 247 0000 7047     		bx	lr
 248              		.cfi_endproc
 249              	.LFE5397:
 251 0002 00BF     		.section	.text._Z10initParamsv,"ax",%progbits
 252              		.align	1
 253              		.p2align 2,,3
 254              		.global	_Z10initParamsv
 255              		.syntax unified
 256              		.thumb
 257              		.thumb_func
 259              	_Z10initParamsv:
 260              	.LFB4824:
  23:Pedal.cpp     **** //DelayLineReverse<float, MAX_DELAY> DSY_SDRAM_BSS delayMems[4];
  24:Pedal.cpp     **** 
  25:Pedal.cpp     **** Parameter toneParam;
  26:Pedal.cpp     **** Parameter bpmParam;
  27:Pedal.cpp     **** 
  28:Pedal.cpp     **** bool bypass = true;
  29:Pedal.cpp     **** float dryWet; 
  30:Pedal.cpp     **** float feedback;
  31:Pedal.cpp     **** float toneVal;
  32:Pedal.cpp     **** float bpm;
  33:Pedal.cpp     **** 
  34:Pedal.cpp     **** 
  35:Pedal.cpp     **** 
  36:Pedal.cpp     **** /**
  37:Pedal.cpp     ****  * @brief Initialize special parameters for the terrarium pedal knobs
  38:Pedal.cpp     ****  * (Mostly just setting min/max values)
  39:Pedal.cpp     ****  */
  40:Pedal.cpp     **** void initParams();
  41:Pedal.cpp     **** 
  42:Pedal.cpp     **** /**
  43:Pedal.cpp     ****  * @brief Processes all controls for the terrarium pedal
  44:Pedal.cpp     ****  * 
  45:Pedal.cpp     ****  */
  46:Pedal.cpp     **** void processControls();
  47:Pedal.cpp     **** 
  48:Pedal.cpp     **** void AudioCallback(AudioHandle::InputBuffer in, AudioHandle::OutputBuffer out, size_t size)
  49:Pedal.cpp     **** {
  50:Pedal.cpp     **** 	hw.ProcessAllControls();
  51:Pedal.cpp     **** 	processControls();
  52:Pedal.cpp     **** 	for (size_t i = 0; i < size; i++)
  53:Pedal.cpp     **** 	{
  54:Pedal.cpp     **** 		if(bypass)
  55:Pedal.cpp     **** 			out[0][i] = in[0][i];
  56:Pedal.cpp     **** 		else
  57:Pedal.cpp     **** 		{
  58:Pedal.cpp     **** 			// Needed for crossFade process
  59:Pedal.cpp     **** 			float nonConstInput = in[0][i];
  60:Pedal.cpp     **** 			float finalMix = 0;
  61:Pedal.cpp     **** 			float allDelaySignals = delay.process(in[0][i]);
  62:Pedal.cpp     **** 			float preFilterDelays = allDelaySignals;
  63:Pedal.cpp     **** 
ARM GAS  /var/folders/fs/ht5wlc7s7b56r9p0ngl7ssgc0000gn/T//ccZCPiB8.s 			page 18


  64:Pedal.cpp     **** 			allDelaySignals = tone.process(allDelaySignals);
  65:Pedal.cpp     **** 			allDelaySignals = tremelo.Process(allDelaySignals);
  66:Pedal.cpp     ****             //allDelaySignals = balance.Process(allDelaySignals,preFilterDelays*tone.getFactor());
  67:Pedal.cpp     **** 
  68:Pedal.cpp     **** 			finalMix = crossFade.Process(nonConstInput, allDelaySignals);
  69:Pedal.cpp     **** 
  70:Pedal.cpp     **** 
  71:Pedal.cpp     **** 
  72:Pedal.cpp     **** 			out[0][i] = finalMix;
  73:Pedal.cpp     **** 			
  74:Pedal.cpp     **** 		}
  75:Pedal.cpp     **** 			
  76:Pedal.cpp     **** 	}
  77:Pedal.cpp     **** }
  78:Pedal.cpp     **** 
  79:Pedal.cpp     **** int main(void)
  80:Pedal.cpp     **** {
  81:Pedal.cpp     **** 	hw.Init();
  82:Pedal.cpp     **** 	hw.SetAudioBlockSize(4); // number of samples handled per callback
  83:Pedal.cpp     **** 	hw.SetAudioSampleRate(SaiHandle::Config::SampleRate::SAI_48KHZ);
  84:Pedal.cpp     **** 	hw.StartAdc();
  85:Pedal.cpp     **** 
  86:Pedal.cpp     **** 	delay.initDelay(delayMems);
  87:Pedal.cpp     **** 	//delay.initDelayReverse(delayMems);
  88:Pedal.cpp     **** 	delay.setBPM(90);
  89:Pedal.cpp     **** 	crossFade.Init();
  90:Pedal.cpp     **** 	crossFade.SetCurve(CROSSFADE_CPOW);
  91:Pedal.cpp     **** 	balance.Init(hw.AudioSampleRate());
  92:Pedal.cpp     **** 	initParams();
  93:Pedal.cpp     **** tremelo.Init(hw.AudioSampleRate());
  94:Pedal.cpp     **** tremelo.SetWaveform(Oscillator::WAVE_SIN);
  95:Pedal.cpp     **** tremelo.SetDepth(0.5f);
  96:Pedal.cpp     **** tremelo.SetFreq(10);
  97:Pedal.cpp     **** 	hw.StartAudio(AudioCallback);
  98:Pedal.cpp     **** 	while(1) {}
  99:Pedal.cpp     **** }
 100:Pedal.cpp     **** 
 101:Pedal.cpp     **** void initParams()
 102:Pedal.cpp     **** {
 261              		.loc 18 102 1 is_stmt 1 view -0
 262              		.cfi_startproc
 263              		@ args = 0, pretend = 0, frame = 32
 264              		@ frame_needed = 0, uses_anonymous_args = 0
 103:Pedal.cpp     **** 	toneParam.Init(hw.knob[Terrarium::KNOB_3], -1.0f, 1.0f, Parameter::LINEAR);
 265              		.loc 18 103 2 view .LVU37
 102:Pedal.cpp     **** 	toneParam.Init(hw.knob[Terrarium::KNOB_3], -1.0f, 1.0f, Parameter::LINEAR);
 266              		.loc 18 102 1 is_stmt 0 view .LVU38
 267 0000 10B5     		push	{r4, lr}
 268              		.cfi_def_cfa_offset 8
 269              		.cfi_offset 4, -8
 270              		.cfi_offset 14, -4
 271              		.loc 18 103 42 view .LVU39
 272 0002 154C     		ldr	r4, .L11
 102:Pedal.cpp     **** 	toneParam.Init(hw.knob[Terrarium::KNOB_3], -1.0f, 1.0f, Parameter::LINEAR);
 273              		.loc 18 102 1 view .LVU40
 274 0004 88B0     		sub	sp, sp, #32
 275              		.cfi_def_cfa_offset 40
ARM GAS  /var/folders/fs/ht5wlc7s7b56r9p0ngl7ssgc0000gn/T//ccZCPiB8.s 			page 19


 276              		.loc 18 103 16 view .LVU41
 277 0006 F7EE000A 		vmov.f32	s1, #1.0e+0
 278              		.loc 18 103 42 view .LVU42
 279 000a 04F1E40E 		add	lr, r4, #228
 280 000e EC46     		mov	ip, sp
 281              		.loc 18 103 16 view .LVU43
 282 0010 BFEE000A 		vmov.f32	s0, #-1.0e+0
 283              		.loc 18 103 42 view .LVU44
 284 0014 BEE80F00 		ldmia	lr!, {r0, r1, r2, r3}
 285 0018 ACE80F00 		stmia	ip!, {r0, r1, r2, r3}
 286 001c 9EE80F00 		ldm	lr, {r0, r1, r2, r3}
 287 0020 8CE80F00 		stm	ip, {r0, r1, r2, r3}
 288              		.loc 18 103 16 view .LVU45
 289 0024 6946     		mov	r1, sp
 290 0026 0022     		movs	r2, #0
 291 0028 0C48     		ldr	r0, .L11+4
 292 002a FFF7FEFF 		bl	_ZN5daisy9Parameter4InitENS_13AnalogControlEffNS0_5CurveE
 293              	.LVL6:
 294              	.LBB293:
 295              	.LBI293:
 296              		.loc 2 23 5 is_stmt 1 view .LVU46
 297              		.loc 2 23 5 is_stmt 0 view .LVU47
 298              	.LBE293:
 104:Pedal.cpp     **** 	bpmParam.Init(hw.knob[Terrarium::KNOB_4], 30.0f, 240.0f, Parameter::LINEAR);
 299              		.loc 18 104 2 is_stmt 1 view .LVU48
 300              		.loc 18 104 41 is_stmt 0 view .LVU49
 301 002e 04F1840C 		add	ip, r4, #132
 302 0032 6C46     		mov	r4, sp
 303              		.loc 18 104 15 view .LVU50
 304 0034 B3EE0E0A 		vmov.f32	s0, #3.0e+1
 305 0038 DFED090A 		vldr.32	s1, .L11+8
 306              		.loc 18 104 41 view .LVU51
 307 003c BCE80F00 		ldmia	ip!, {r0, r1, r2, r3}
 308 0040 0FC4     		stmia	r4!, {r0, r1, r2, r3}
 309 0042 9CE80F00 		ldm	ip, {r0, r1, r2, r3}
 310 0046 84E80F00 		stm	r4, {r0, r1, r2, r3}
 311              		.loc 18 104 15 view .LVU52
 312 004a 0022     		movs	r2, #0
 313 004c 6946     		mov	r1, sp
 314 004e 0548     		ldr	r0, .L11+12
 315 0050 FFF7FEFF 		bl	_ZN5daisy9Parameter4InitENS_13AnalogControlEffNS0_5CurveE
 316              	.LVL7:
 317              	.LBB294:
 318              	.LBI294:
 319              		.loc 2 23 5 is_stmt 1 view .LVU53
 320              		.loc 2 23 5 is_stmt 0 view .LVU54
 321              	.LBE294:
 105:Pedal.cpp     **** 
 106:Pedal.cpp     **** }
 322              		.loc 18 106 1 view .LVU55
 323 0054 08B0     		add	sp, sp, #32
 324              		.cfi_def_cfa_offset 8
 325              		@ sp needed
 326 0056 10BD     		pop	{r4, pc}
 327              	.L12:
 328              		.align	2
 329              	.L11:
ARM GAS  /var/folders/fs/ht5wlc7s7b56r9p0ngl7ssgc0000gn/T//ccZCPiB8.s 			page 20


 330 0058 00000000 		.word	.LANCHOR0
 331 005c 00000000 		.word	.LANCHOR1
 332 0060 00007043 		.word	1131413504
 333 0064 00000000 		.word	.LANCHOR2
 334              		.cfi_endproc
 335              	.LFE4824:
 337              		.section	.text.startup.main,"ax",%progbits
 338              		.align	1
 339              		.p2align 2,,3
 340              		.global	main
 341              		.syntax unified
 342              		.thumb
 343              		.thumb_func
 345              	main:
 346              	.LFB4823:
  80:Pedal.cpp     **** 	hw.Init();
 347              		.loc 18 80 1 is_stmt 1 view -0
 348              		.cfi_startproc
 349              		@ Volatile: function does not return.
 350              		@ args = 0, pretend = 0, frame = 0
 351              		@ frame_needed = 0, uses_anonymous_args = 0
  81:Pedal.cpp     **** 	hw.SetAudioBlockSize(4); // number of samples handled per callback
 352              		.loc 18 81 2 view .LVU57
  80:Pedal.cpp     **** 	hw.Init();
 353              		.loc 18 80 1 is_stmt 0 view .LVU58
 354 0000 08B5     		push	{r3, lr}
 355              		.cfi_def_cfa_offset 8
 356              		.cfi_offset 3, -8
 357              		.cfi_offset 14, -4
  81:Pedal.cpp     **** 	hw.SetAudioBlockSize(4); // number of samples handled per callback
 358              		.loc 18 81 9 view .LVU59
 359 0002 0021     		movs	r1, #0
 360 0004 1F48     		ldr	r0, .L16
 361 0006 FFF7FEFF 		bl	_ZN5daisy10DaisyPetal4InitEb
 362              	.LVL8:
  82:Pedal.cpp     **** 	hw.SetAudioSampleRate(SaiHandle::Config::SampleRate::SAI_48KHZ);
 363              		.loc 18 82 2 is_stmt 1 view .LVU60
  82:Pedal.cpp     **** 	hw.SetAudioSampleRate(SaiHandle::Config::SampleRate::SAI_48KHZ);
 364              		.loc 18 82 22 is_stmt 0 view .LVU61
 365 000a 0421     		movs	r1, #4
 366 000c 1D48     		ldr	r0, .L16
 367              	.LBB295:
 368              	.LBB296:
 369              	.LBB297:
  38:../../DaisySP//Source/Dynamics/crossfade.h ****     /** Initializes CrossFade module
  39:../../DaisySP//Source/Dynamics/crossfade.h ****         Defaults
  40:../../DaisySP//Source/Dynamics/crossfade.h ****         - current position = .5
  41:../../DaisySP//Source/Dynamics/crossfade.h ****         - curve = linear
  42:../../DaisySP//Source/Dynamics/crossfade.h ****     */
  43:../../DaisySP//Source/Dynamics/crossfade.h ****     inline void Init(int curve)
  44:../../DaisySP//Source/Dynamics/crossfade.h ****     {
  45:../../DaisySP//Source/Dynamics/crossfade.h ****         pos_   = 0.5f;
 370              		.loc 12 45 16 view .LVU62
 371 000e B6EE008A 		vmov.f32	s16, #5.0e-1
 372              	.LBE297:
 373              	.LBE296:
 374              	.LBE295:
ARM GAS  /var/folders/fs/ht5wlc7s7b56r9p0ngl7ssgc0000gn/T//ccZCPiB8.s 			page 21


  82:Pedal.cpp     **** 	hw.SetAudioSampleRate(SaiHandle::Config::SampleRate::SAI_48KHZ);
 375              		.loc 18 82 22 view .LVU63
 376 0012 FFF7FEFF 		bl	_ZN5daisy10DaisyPetal17SetAudioBlockSizeEj
 377              	.LVL9:
  83:Pedal.cpp     **** 	hw.StartAdc();
 378              		.loc 18 83 2 is_stmt 1 view .LVU64
  83:Pedal.cpp     **** 	hw.StartAdc();
 379              		.loc 18 83 23 is_stmt 0 view .LVU65
 380 0016 0321     		movs	r1, #3
 381 0018 1A48     		ldr	r0, .L16
 382 001a FFF7FEFF 		bl	_ZN5daisy10DaisyPetal18SetAudioSampleRateENS_9SaiHandle6Config10SampleRateE
 383              	.LVL10:
  84:Pedal.cpp     **** 
 384              		.loc 18 84 2 is_stmt 1 view .LVU66
  84:Pedal.cpp     **** 
 385              		.loc 18 84 13 is_stmt 0 view .LVU67
 386 001e 1948     		ldr	r0, .L16
 387 0020 FFF7FEFF 		bl	_ZN5daisy10DaisyPetal8StartAdcEv
 388              	.LVL11:
  86:Pedal.cpp     **** 	//delay.initDelayReverse(delayMems);
 389              		.loc 18 86 2 is_stmt 1 view .LVU68
  86:Pedal.cpp     **** 	//delay.initDelayReverse(delayMems);
 390              		.loc 18 86 17 is_stmt 0 view .LVU69
 391 0024 1849     		ldr	r1, .L16+4
 392 0026 1948     		ldr	r0, .L16+8
 393 0028 FFF7FEFF 		bl	_ZN5Delay9initDelayEPN7daisysp9DelayLineIfLj96000EEE
 394              	.LVL12:
  88:Pedal.cpp     **** 	crossFade.Init();
 395              		.loc 18 88 2 is_stmt 1 view .LVU70
  88:Pedal.cpp     **** 	crossFade.Init();
 396              		.loc 18 88 14 is_stmt 0 view .LVU71
 397 002c 9FED180A 		vldr.32	s0, .L16+12
 398 0030 1648     		ldr	r0, .L16+8
 399 0032 FFF7FEFF 		bl	_ZN5Delay6setBPMEf
 400              	.LVL13:
  89:Pedal.cpp     **** 	crossFade.SetCurve(CROSSFADE_CPOW);
 401              		.loc 18 89 2 is_stmt 1 view .LVU72
 402              	.LBB302:
 403              	.LBI295:
  46:../../DaisySP//Source/Dynamics/crossfade.h ****         curve_ = curve < CROSSFADE_LAST ? curve : CROSSFADE_LIN;
  47:../../DaisySP//Source/Dynamics/crossfade.h ****     }
  48:../../DaisySP//Source/Dynamics/crossfade.h **** 
  49:../../DaisySP//Source/Dynamics/crossfade.h ****     /** Initialize with default linear curve 
  50:../../DaisySP//Source/Dynamics/crossfade.h ****     */
  51:../../DaisySP//Source/Dynamics/crossfade.h ****     inline void Init() { Init(CROSSFADE_LIN); }
 404              		.loc 12 51 17 view .LVU73
 405              	.LBE302:
 406              		.loc 12 51 26 view .LVU74
 407              	.LBB303:
 408              	.LBB300:
 409              	.LBI296:
  43:../../DaisySP//Source/Dynamics/crossfade.h ****     {
 410              		.loc 12 43 17 view .LVU75
 411              	.LBB298:
  45:../../DaisySP//Source/Dynamics/crossfade.h ****         curve_ = curve < CROSSFADE_LAST ? curve : CROSSFADE_LIN;
 412              		.loc 12 45 9 view .LVU76
  45:../../DaisySP//Source/Dynamics/crossfade.h ****         curve_ = curve < CROSSFADE_LAST ? curve : CROSSFADE_LIN;
ARM GAS  /var/folders/fs/ht5wlc7s7b56r9p0ngl7ssgc0000gn/T//ccZCPiB8.s 			page 22


 413              		.loc 12 45 16 is_stmt 0 view .LVU77
 414 0036 174B     		ldr	r3, .L16+16
 415              	.LBE298:
 416              	.LBE300:
 417              	.LBE303:
 418              	.LBB304:
 419              	.LBB305:
  52:../../DaisySP//Source/Dynamics/crossfade.h ****     /** processes CrossFade and returns single sample
  53:../../DaisySP//Source/Dynamics/crossfade.h ****     */
  54:../../DaisySP//Source/Dynamics/crossfade.h ****     float Process(float &in1, float &in2);
  55:../../DaisySP//Source/Dynamics/crossfade.h **** 
  56:../../DaisySP//Source/Dynamics/crossfade.h **** 
  57:../../DaisySP//Source/Dynamics/crossfade.h ****     /** Sets position of CrossFade between two input signals
  58:../../DaisySP//Source/Dynamics/crossfade.h ****         Input range: 0 to 1
  59:../../DaisySP//Source/Dynamics/crossfade.h ****     */
  60:../../DaisySP//Source/Dynamics/crossfade.h ****     inline void SetPos(float pos) { pos_ = pos; }
  61:../../DaisySP//Source/Dynamics/crossfade.h ****     /** Sets current curve applied to CrossFade 
  62:../../DaisySP//Source/Dynamics/crossfade.h ****     Expected input: See [Curve Options](##curve-options)
  63:../../DaisySP//Source/Dynamics/crossfade.h ****     */
  64:../../DaisySP//Source/Dynamics/crossfade.h ****     inline void SetCurve(uint8_t curve) { curve_ = curve; }
 420              		.loc 12 64 50 view .LVU78
 421 0038 0122     		movs	r2, #1
 422              	.LBE305:
 423              	.LBE304:
  91:Pedal.cpp     **** 	initParams();
 424              		.loc 18 91 14 view .LVU79
 425 003a 1248     		ldr	r0, .L16
 426              	.LBB307:
 427              	.LBB301:
 428              	.LBB299:
  45:../../DaisySP//Source/Dynamics/crossfade.h ****         curve_ = curve < CROSSFADE_LAST ? curve : CROSSFADE_LIN;
 429              		.loc 12 45 16 view .LVU80
 430 003c 83ED008A 		vstr.32	s16, [r3]
  46:../../DaisySP//Source/Dynamics/crossfade.h ****     }
 431              		.loc 12 46 9 is_stmt 1 view .LVU81
 432              	.LVL14:
  46:../../DaisySP//Source/Dynamics/crossfade.h ****     }
 433              		.loc 12 46 9 is_stmt 0 view .LVU82
 434              	.LBE299:
 435              	.LBE301:
 436              	.LBE307:
  90:Pedal.cpp     **** 	balance.Init(hw.AudioSampleRate());
 437              		.loc 18 90 2 is_stmt 1 view .LVU83
 438              	.LBB308:
 439              	.LBI304:
 440              		.loc 12 64 17 view .LVU84
 441              	.LBB306:
 442              		.loc 12 64 43 view .LVU85
 443              		.loc 12 64 50 is_stmt 0 view .LVU86
 444 0040 1A71     		strb	r2, [r3, #4]
 445              	.LVL15:
 446              		.loc 12 64 50 view .LVU87
 447              	.LBE306:
 448              	.LBE308:
  91:Pedal.cpp     **** 	initParams();
 449              		.loc 18 91 2 is_stmt 1 view .LVU88
  91:Pedal.cpp     **** 	initParams();
ARM GAS  /var/folders/fs/ht5wlc7s7b56r9p0ngl7ssgc0000gn/T//ccZCPiB8.s 			page 23


 450              		.loc 18 91 14 is_stmt 0 view .LVU89
 451 0042 FFF7FEFF 		bl	_ZN5daisy10DaisyPetal15AudioSampleRateEv
 452              	.LVL16:
 453 0046 1448     		ldr	r0, .L16+20
 454 0048 FFF7FEFF 		bl	_ZN7daisysp7Balance4InitEf
 455              	.LVL17:
  92:Pedal.cpp     **** tremelo.Init(hw.AudioSampleRate());
 456              		.loc 18 92 2 is_stmt 1 view .LVU90
  92:Pedal.cpp     **** tremelo.Init(hw.AudioSampleRate());
 457              		.loc 18 92 12 is_stmt 0 view .LVU91
 458 004c FFF7FEFF 		bl	_Z10initParamsv
 459              	.LVL18:
  93:Pedal.cpp     **** tremelo.SetWaveform(Oscillator::WAVE_SIN);
 460              		.loc 18 93 1 is_stmt 1 view .LVU92
  93:Pedal.cpp     **** tremelo.SetWaveform(Oscillator::WAVE_SIN);
 461              		.loc 18 93 13 is_stmt 0 view .LVU93
 462 0050 0C48     		ldr	r0, .L16
 463 0052 FFF7FEFF 		bl	_ZN5daisy10DaisyPetal15AudioSampleRateEv
 464              	.LVL19:
 465 0056 1148     		ldr	r0, .L16+24
 466 0058 FFF7FEFF 		bl	_ZN7daisysp7Tremolo4InitEf
 467              	.LVL20:
  94:Pedal.cpp     **** tremelo.SetDepth(0.5f);
 468              		.loc 18 94 1 is_stmt 1 view .LVU94
  94:Pedal.cpp     **** tremelo.SetDepth(0.5f);
 469              		.loc 18 94 20 is_stmt 0 view .LVU95
 470 005c 0021     		movs	r1, #0
 471 005e 0F48     		ldr	r0, .L16+24
 472 0060 FFF7FEFF 		bl	_ZN7daisysp7Tremolo11SetWaveformEi
 473              	.LVL21:
  95:Pedal.cpp     **** tremelo.SetFreq(10);
 474              		.loc 18 95 1 is_stmt 1 view .LVU96
  95:Pedal.cpp     **** tremelo.SetFreq(10);
 475              		.loc 18 95 17 is_stmt 0 view .LVU97
 476 0064 B0EE480A 		vmov.f32	s0, s16
 477 0068 0C48     		ldr	r0, .L16+24
 478 006a FFF7FEFF 		bl	_ZN7daisysp7Tremolo8SetDepthEf
 479              	.LVL22:
  96:Pedal.cpp     **** 	hw.StartAudio(AudioCallback);
 480              		.loc 18 96 1 is_stmt 1 view .LVU98
  96:Pedal.cpp     **** 	hw.StartAudio(AudioCallback);
 481              		.loc 18 96 16 is_stmt 0 view .LVU99
 482 006e 0B48     		ldr	r0, .L16+24
 483 0070 B2EE040A 		vmov.f32	s0, #1.0e+1
 484 0074 FFF7FEFF 		bl	_ZN7daisysp7Tremolo7SetFreqEf
 485              	.LVL23:
  97:Pedal.cpp     **** 	while(1) {}
 486              		.loc 18 97 2 is_stmt 1 view .LVU100
  97:Pedal.cpp     **** 	while(1) {}
 487              		.loc 18 97 15 is_stmt 0 view .LVU101
 488 0078 0949     		ldr	r1, .L16+28
 489 007a 0248     		ldr	r0, .L16
 490 007c FFF7FEFF 		bl	_ZN5daisy10DaisyPetal10StartAudioEPFvPKPKfPPfjE
 491              	.LVL24:
 492              	.L14:
  98:Pedal.cpp     **** }
 493              		.loc 18 98 2 is_stmt 1 discriminator 1 view .LVU102
ARM GAS  /var/folders/fs/ht5wlc7s7b56r9p0ngl7ssgc0000gn/T//ccZCPiB8.s 			page 24


  98:Pedal.cpp     **** }
 494              		.loc 18 98 2 discriminator 1 view .LVU103
  98:Pedal.cpp     **** }
 495              		.loc 18 98 2 discriminator 1 view .LVU104
  98:Pedal.cpp     **** }
 496              		.loc 18 98 2 discriminator 1 view .LVU105
 497 0080 FEE7     		b	.L14
 498              	.L17:
 499 0082 00BF     		.align	2
 500              	.L16:
 501 0084 00000000 		.word	.LANCHOR0
 502 0088 00000000 		.word	delayMems
 503 008c 00000000 		.word	.LANCHOR3
 504 0090 0000B442 		.word	1119092736
 505 0094 00000000 		.word	.LANCHOR4
 506 0098 00000000 		.word	.LANCHOR5
 507 009c 00000000 		.word	.LANCHOR6
 508 00a0 00000000 		.word	_Z13AudioCallbackPKPKfPPfj
 509              		.cfi_endproc
 510              	.LFE4823:
 512              		.section	.text._Z15processControlsv,"ax",%progbits
 513              		.align	1
 514              		.p2align 2,,3
 515              		.global	_Z15processControlsv
 516              		.syntax unified
 517              		.thumb
 518              		.thumb_func
 520              	_Z15processControlsv:
 521              	.LFB4825:
 107:Pedal.cpp     **** 
 108:Pedal.cpp     **** void processControls()
 109:Pedal.cpp     **** {
 522              		.loc 18 109 1 view -0
 523              		.cfi_startproc
 524              		@ args = 0, pretend = 0, frame = 16
 525              		@ frame_needed = 0, uses_anonymous_args = 0
 110:Pedal.cpp     **** 	bool tapping = false;
 526              		.loc 18 110 2 view .LVU107
 527              	.LVL25:
 111:Pedal.cpp     **** 
 112:Pedal.cpp     **** 	/***************PROCESS FOOTSWITCHES*****************/
 113:Pedal.cpp     **** 	if(hw.switches[Terrarium::FOOTSWITCH_2].RisingEdge())
 528              		.loc 18 113 2 view .LVU108
 529              	.LBB309:
 530              	.LBI309:
  43:../../libDaisy//src/hid/switch.h **** 
  44:../../libDaisy//src/hid/switch.h ****     /** 
  45:../../libDaisy//src/hid/switch.h ****     Initializes the switch object with a given port/pin combo.
  46:../../libDaisy//src/hid/switch.h ****     \param pin port/pin object to tell the switch which hardware pin to use.
  47:../../libDaisy//src/hid/switch.h ****     \param update_rate Does nothing. Backwards compatibility until next breaking update.
  48:../../libDaisy//src/hid/switch.h ****     \param t switch type -- Default: TYPE_MOMENTARY
  49:../../libDaisy//src/hid/switch.h ****     \param pol switch polarity -- Default: POLARITY_INVERTED
  50:../../libDaisy//src/hid/switch.h ****     \param pu switch pull up/down -- Default: PULL_UP
  51:../../libDaisy//src/hid/switch.h ****     */
  52:../../libDaisy//src/hid/switch.h ****     void
  53:../../libDaisy//src/hid/switch.h ****     Init(dsy_gpio_pin pin, float update_rate, Type t, Polarity pol, Pull pu);
  54:../../libDaisy//src/hid/switch.h **** 
ARM GAS  /var/folders/fs/ht5wlc7s7b56r9p0ngl7ssgc0000gn/T//ccZCPiB8.s 			page 25


  55:../../libDaisy//src/hid/switch.h ****     /**
  56:../../libDaisy//src/hid/switch.h ****        Simplified Init.
  57:../../libDaisy//src/hid/switch.h ****        \param pin port/pin object to tell the switch which hardware pin to use.
  58:../../libDaisy//src/hid/switch.h ****        \param update_rate Left for backwards compatibility until next breaking change.
  59:../../libDaisy//src/hid/switch.h ****     */
  60:../../libDaisy//src/hid/switch.h ****     void Init(dsy_gpio_pin pin, float update_rate = 0.f);
  61:../../libDaisy//src/hid/switch.h **** 
  62:../../libDaisy//src/hid/switch.h ****     /** 
  63:../../libDaisy//src/hid/switch.h ****     Called at update_rate to debounce and handle timing for the switch.
  64:../../libDaisy//src/hid/switch.h ****     In order for events not to be missed, its important that the Edge/Pressed checks
  65:../../libDaisy//src/hid/switch.h ****     be made at the same rate as the debounce function is being called.
  66:../../libDaisy//src/hid/switch.h ****     */
  67:../../libDaisy//src/hid/switch.h ****     void Debounce();
  68:../../libDaisy//src/hid/switch.h **** 
  69:../../libDaisy//src/hid/switch.h ****     /** \return true if a button was just pressed. */
  70:../../libDaisy//src/hid/switch.h ****     inline bool RisingEdge() const { return updated_ ? state_ == 0x7f : false; }
 531              		.loc 5 70 17 view .LVU109
 532              	.LBB310:
 533              		.loc 5 70 38 view .LVU110
 534              	.LBE310:
 535              	.LBE309:
 109:Pedal.cpp     **** 	bool tapping = false;
 536              		.loc 18 109 1 is_stmt 0 view .LVU111
 537 0000 10B5     		push	{r4, lr}
 538              		.cfi_def_cfa_offset 8
 539              		.cfi_offset 4, -8
 540              		.cfi_offset 14, -4
 541              	.LBB313:
 542              	.LBB311:
 543              		.loc 5 70 45 view .LVU112
 544 0002 574C     		ldr	r4, .L46
 545              		.loc 5 70 54 view .LVU113
 546 0004 94F89831 		ldrb	r3, [r4, #408]	@ zero_extendqisi2
 547              	.LBE311:
 548              	.LBE313:
 109:Pedal.cpp     **** 	bool tapping = false;
 549              		.loc 18 109 1 view .LVU114
 550 0008 2DED028B 		vpush.64	{d8}
 551              		.cfi_def_cfa_offset 16
 552              		.cfi_offset 80, -16
 553              		.cfi_offset 81, -12
 554 000c 84B0     		sub	sp, sp, #16
 555              		.cfi_def_cfa_offset 32
 556              	.LBB314:
 557              	.LBB312:
 558              		.loc 5 70 54 view .LVU115
 559 000e 1BB1     		cbz	r3, .L19
 560              	.LVL26:
 561              		.loc 5 70 54 view .LVU116
 562              	.LBE312:
 563              	.LBE314:
 564              		.loc 18 113 2 view .LVU117
 565 0010 94F89E31 		ldrb	r3, [r4, #414]	@ zero_extendqisi2
 566 0014 7F2B     		cmp	r3, #127
 567 0016 77D0     		beq	.L41
 568              	.L19:
 114:Pedal.cpp     **** 		bypass = !bypass;
ARM GAS  /var/folders/fs/ht5wlc7s7b56r9p0ngl7ssgc0000gn/T//ccZCPiB8.s 			page 26


 115:Pedal.cpp     **** 	if(hw.switches[Terrarium::FOOTSWITCH_1].RisingEdge())
 569              		.loc 18 115 2 is_stmt 1 view .LVU118
 570              	.LVL27:
 571              	.LBB315:
 572              	.LBI315:
 573              		.loc 5 70 17 view .LVU119
 574              	.LBB316:
 575              		.loc 5 70 38 view .LVU120
 576              		.loc 5 70 45 is_stmt 0 view .LVU121
 577 0018 94F88811 		ldrb	r1, [r4, #392]	@ zero_extendqisi2
 578              		.loc 5 70 54 view .LVU122
 579 001c 31B1     		cbz	r1, .L20
 580              	.LVL28:
 581              		.loc 5 70 54 view .LVU123
 582              	.LBE316:
 583              	.LBE315:
 584              		.loc 18 115 2 view .LVU124
 585 001e 94F88E11 		ldrb	r1, [r4, #398]	@ zero_extendqisi2
 586 0022 A1F17F01 		sub	r1, #127
 587 0026 B1FA81F1 		clz	r1, r1
 588 002a 4909     		lsrs	r1, r1, #5
 589              	.L20:
 590              	.LVL29:
 116:Pedal.cpp     **** 		tapping = !tapping;
 117:Pedal.cpp     **** 
 118:Pedal.cpp     **** 	tapTempo.update(tapping);
 591              		.loc 18 118 2 is_stmt 1 view .LVU125
 592              		.loc 18 118 17 is_stmt 0 view .LVU126
 593 002c 4D48     		ldr	r0, .L46+4
 594 002e FFF7FEFF 		bl	_ZN8TapTempo6updateEb
 595              	.LVL30:
 119:Pedal.cpp     **** 	delay.setBPM(tapTempo.getBPM());
 596              		.loc 18 119 2 is_stmt 1 view .LVU127
 597              		.loc 18 119 14 is_stmt 0 view .LVU128
 598 0032 4C48     		ldr	r0, .L46+4
 599 0034 FFF7FEFF 		bl	_ZN8TapTempo6getBPMEv
 600              	.LVL31:
 601 0038 4B48     		ldr	r0, .L46+8
 602 003a FFF7FEFF 		bl	_ZN5Delay6setBPMEf
 603              	.LVL32:
 120:Pedal.cpp     **** 
 121:Pedal.cpp     **** 	/***************************************************/
 122:Pedal.cpp     **** 
 123:Pedal.cpp     **** 	/***************PROCESS SWITCHES*****************/
 124:Pedal.cpp     **** 	if(hw.switches[Terrarium::SWITCH_1].Pressed())
 604              		.loc 18 124 2 is_stmt 1 view .LVU129
 605              	.LBB317:
 606              	.LBI317:
  71:../../libDaisy//src/hid/switch.h **** 
  72:../../libDaisy//src/hid/switch.h ****     /** \return true if the button was just released */
  73:../../libDaisy//src/hid/switch.h ****     inline bool FallingEdge() const
  74:../../libDaisy//src/hid/switch.h ****     {
  75:../../libDaisy//src/hid/switch.h ****         return updated_ ? state_ == 0x80 : false;
  76:../../libDaisy//src/hid/switch.h ****     }
  77:../../libDaisy//src/hid/switch.h **** 
  78:../../libDaisy//src/hid/switch.h ****     /** \return true if the button is held down (or if the toggle is on) */
  79:../../libDaisy//src/hid/switch.h ****     inline bool Pressed() const { return state_ == 0xff; }
ARM GAS  /var/folders/fs/ht5wlc7s7b56r9p0ngl7ssgc0000gn/T//ccZCPiB8.s 			page 27


 607              		.loc 5 79 17 view .LVU130
 608              	.LBB318:
 609              		.loc 5 79 35 view .LVU131
 610              		.loc 5 79 35 is_stmt 0 view .LVU132
 611              	.LBE318:
 612              	.LBE317:
 613              		.loc 18 124 2 view .LVU133
 614 003e 94F86E31 		ldrb	r3, [r4, #366]	@ zero_extendqisi2
 125:Pedal.cpp     **** 		delay.enableHead(0);
 615              		.loc 18 125 19 view .LVU134
 616 0042 03A9     		add	r1, sp, #12
 617 0044 4848     		ldr	r0, .L46+8
 124:Pedal.cpp     **** 		delay.enableHead(0);
 618              		.loc 18 124 2 view .LVU135
 619 0046 FF2B     		cmp	r3, #255
 620              		.loc 18 125 20 view .LVU136
 621 0048 4FF00003 		mov	r3, #0
 622              		.loc 18 125 19 view .LVU137
 623 004c 0191     		str	r1, [sp, #4]
 624              		.loc 18 125 20 view .LVU138
 625 004e 0393     		str	r3, [sp, #12]
 124:Pedal.cpp     **** 		delay.enableHead(0);
 626              		.loc 18 124 2 view .LVU139
 627 0050 6BD0     		beq	.L42
 126:Pedal.cpp     **** 	else
 127:Pedal.cpp     **** 		delay.disableHead(0);
 628              		.loc 18 127 3 is_stmt 1 view .LVU140
 629              		.loc 18 127 20 is_stmt 0 view .LVU141
 630 0052 FFF7FEFF 		bl	_ZN5Delay11disableHeadERKi
 631              	.LVL33:
 632 0056 0199     		ldr	r1, [sp, #4]
 633              	.L22:
 128:Pedal.cpp     **** 
 129:Pedal.cpp     **** 	if(hw.switches[Terrarium::SWITCH_2].Pressed())
 634              		.loc 18 129 2 is_stmt 1 view .LVU142
 635              	.LVL34:
 636              	.LBB319:
 637              	.LBI319:
 638              		.loc 5 79 17 view .LVU143
 639              	.LBB320:
 640              		.loc 5 79 35 view .LVU144
 641              		.loc 5 79 35 is_stmt 0 view .LVU145
 642              	.LBE320:
 643              	.LBE319:
 644              		.loc 18 129 2 view .LVU146
 645 0058 94F85E31 		ldrb	r3, [r4, #350]	@ zero_extendqisi2
 130:Pedal.cpp     **** 		delay.enableHead(1);
 646              		.loc 18 130 19 view .LVU147
 647 005c 4248     		ldr	r0, .L46+8
 129:Pedal.cpp     **** 		delay.enableHead(1);
 648              		.loc 18 129 2 view .LVU148
 649 005e FF2B     		cmp	r3, #255
 650              		.loc 18 130 20 view .LVU149
 651 0060 4FF00103 		mov	r3, #1
 652              		.loc 18 130 19 view .LVU150
 653 0064 0191     		str	r1, [sp, #4]
 654              		.loc 18 130 20 view .LVU151
ARM GAS  /var/folders/fs/ht5wlc7s7b56r9p0ngl7ssgc0000gn/T//ccZCPiB8.s 			page 28


 655 0066 0393     		str	r3, [sp, #12]
 129:Pedal.cpp     **** 		delay.enableHead(1);
 656              		.loc 18 129 2 view .LVU152
 657 0068 5BD0     		beq	.L43
 131:Pedal.cpp     **** 	else
 132:Pedal.cpp     **** 		delay.disableHead(1);
 658              		.loc 18 132 3 is_stmt 1 view .LVU153
 659              		.loc 18 132 20 is_stmt 0 view .LVU154
 660 006a FFF7FEFF 		bl	_ZN5Delay11disableHeadERKi
 661              	.LVL35:
 662 006e 0199     		ldr	r1, [sp, #4]
 663              	.L24:
 133:Pedal.cpp     **** 
 134:Pedal.cpp     **** 	if(hw.switches[Terrarium::SWITCH_3].Pressed())
 664              		.loc 18 134 2 is_stmt 1 view .LVU155
 665              	.LVL36:
 666              	.LBB321:
 667              	.LBI321:
 668              		.loc 5 79 17 view .LVU156
 669              	.LBB322:
 670              		.loc 5 79 35 view .LVU157
 671              		.loc 5 79 35 is_stmt 0 view .LVU158
 672              	.LBE322:
 673              	.LBE321:
 674              		.loc 18 134 2 view .LVU159
 675 0070 94F84E31 		ldrb	r3, [r4, #334]	@ zero_extendqisi2
 135:Pedal.cpp     **** 		delay.enableHead(2);
 676              		.loc 18 135 19 view .LVU160
 677 0074 3C48     		ldr	r0, .L46+8
 134:Pedal.cpp     **** 		delay.enableHead(2);
 678              		.loc 18 134 2 view .LVU161
 679 0076 FF2B     		cmp	r3, #255
 680              		.loc 18 135 20 view .LVU162
 681 0078 4FF00203 		mov	r3, #2
 682              		.loc 18 135 19 view .LVU163
 683 007c 0191     		str	r1, [sp, #4]
 684              		.loc 18 135 20 view .LVU164
 685 007e 0393     		str	r3, [sp, #12]
 134:Pedal.cpp     **** 		delay.enableHead(2);
 686              		.loc 18 134 2 view .LVU165
 687 0080 4BD0     		beq	.L44
 136:Pedal.cpp     **** 	else
 137:Pedal.cpp     **** 		delay.disableHead(2);	
 688              		.loc 18 137 3 is_stmt 1 view .LVU166
 689              		.loc 18 137 20 is_stmt 0 view .LVU167
 690 0082 FFF7FEFF 		bl	_ZN5Delay11disableHeadERKi
 691              	.LVL37:
 692 0086 0199     		ldr	r1, [sp, #4]
 693              	.L26:
 138:Pedal.cpp     **** 
 139:Pedal.cpp     **** 	if(hw.switches[Terrarium::SWITCH_4].Pressed())
 694              		.loc 18 139 2 is_stmt 1 view .LVU168
 695              	.LVL38:
 696              	.LBB323:
 697              	.LBI323:
 698              		.loc 5 79 17 view .LVU169
 699              	.LBB324:
ARM GAS  /var/folders/fs/ht5wlc7s7b56r9p0ngl7ssgc0000gn/T//ccZCPiB8.s 			page 29


 700              		.loc 5 79 35 view .LVU170
 701              		.loc 5 79 35 is_stmt 0 view .LVU171
 702              	.LBE324:
 703              	.LBE323:
 704              		.loc 18 139 2 view .LVU172
 705 0088 94F8AE31 		ldrb	r3, [r4, #430]	@ zero_extendqisi2
 140:Pedal.cpp     **** 		delay.enableHead(3);
 706              		.loc 18 140 19 view .LVU173
 707 008c 3648     		ldr	r0, .L46+8
 139:Pedal.cpp     **** 		delay.enableHead(3);
 708              		.loc 18 139 2 view .LVU174
 709 008e FF2B     		cmp	r3, #255
 710              		.loc 18 140 20 view .LVU175
 711 0090 4FF00303 		mov	r3, #3
 712 0094 0393     		str	r3, [sp, #12]
 139:Pedal.cpp     **** 		delay.enableHead(3);
 713              		.loc 18 139 2 view .LVU176
 714 0096 3DD0     		beq	.L45
 141:Pedal.cpp     **** 	else
 142:Pedal.cpp     **** 		delay.disableHead(3);
 715              		.loc 18 142 3 is_stmt 1 view .LVU177
 716              		.loc 18 142 20 is_stmt 0 view .LVU178
 717 0098 FFF7FEFF 		bl	_ZN5Delay11disableHeadERKi
 718              	.LVL39:
 719              	.L28:
 143:Pedal.cpp     **** 	/************************************************/
 144:Pedal.cpp     **** 
 145:Pedal.cpp     **** 	/***************PROCESS KNOBS*****************/
 146:Pedal.cpp     **** 	dryWet = hw.knob[Terrarium::KNOB_1].Process();
 720              		.loc 18 146 2 is_stmt 1 view .LVU179
 721              		.loc 18 146 45 is_stmt 0 view .LVU180
 722 009c 3348     		ldr	r0, .L46+12
 147:Pedal.cpp     **** 	crossFade.SetPos(dryWet);
 148:Pedal.cpp     **** 
 149:Pedal.cpp     **** 	feedback = hw.knob[Terrarium::KNOB_2].Process();
 150:Pedal.cpp     **** 	delay.setFeedback(feedback);
 151:Pedal.cpp     **** 
 152:Pedal.cpp     **** 	toneVal = toneParam.Process();
 153:Pedal.cpp     **** 	tone.setFreq(toneVal);
 154:Pedal.cpp     **** 
 155:Pedal.cpp     **** 	float bpmFromKnob = bpmParam.Process();
 156:Pedal.cpp     **** 
 157:Pedal.cpp     **** 	// Only update the delay time from the knob if it falls within + or - the current bpm to prevent e
 158:Pedal.cpp     ****     if( bpmFromKnob > tapTempo.getBPM() - 1 &&  bpmFromKnob < tapTempo.getBPM() + 1 )
 723              		.loc 18 158 41 view .LVU181
 724 009e F7EE008A 		vmov.f32	s17, #1.0e+0
 146:Pedal.cpp     **** 	crossFade.SetPos(dryWet);
 725              		.loc 18 146 45 view .LVU182
 726 00a2 FFF7FEFF 		bl	_ZN5daisy13AnalogControl7ProcessEv
 727              	.LVL40:
 146:Pedal.cpp     **** 	crossFade.SetPos(dryWet);
 728              		.loc 18 146 9 view .LVU183
 729 00a6 324A     		ldr	r2, .L46+16
 730              	.LBB325:
 731              	.LBB326:
  60:../../DaisySP//Source/Dynamics/crossfade.h ****     /** Sets current curve applied to CrossFade 
 732              		.loc 12 60 42 view .LVU184
ARM GAS  /var/folders/fs/ht5wlc7s7b56r9p0ngl7ssgc0000gn/T//ccZCPiB8.s 			page 30


 733 00a8 324B     		ldr	r3, .L46+20
 734              	.LBE326:
 735              	.LBE325:
 149:Pedal.cpp     **** 	delay.setFeedback(feedback);
 736              		.loc 18 149 47 view .LVU185
 737 00aa 3348     		ldr	r0, .L46+24
 146:Pedal.cpp     **** 	crossFade.SetPos(dryWet);
 738              		.loc 18 146 9 view .LVU186
 739 00ac 82ED000A 		vstr.32	s0, [r2]
 147:Pedal.cpp     **** 
 740              		.loc 18 147 2 is_stmt 1 view .LVU187
 741              	.LVL41:
 742              	.LBB328:
 743              	.LBI325:
  60:../../DaisySP//Source/Dynamics/crossfade.h ****     /** Sets current curve applied to CrossFade 
 744              		.loc 12 60 17 view .LVU188
 745              	.LBB327:
  60:../../DaisySP//Source/Dynamics/crossfade.h ****     /** Sets current curve applied to CrossFade 
 746              		.loc 12 60 37 view .LVU189
  60:../../DaisySP//Source/Dynamics/crossfade.h ****     /** Sets current curve applied to CrossFade 
 747              		.loc 12 60 42 is_stmt 0 view .LVU190
 748 00b0 83ED000A 		vstr.32	s0, [r3]
 749              	.LVL42:
  60:../../DaisySP//Source/Dynamics/crossfade.h ****     /** Sets current curve applied to CrossFade 
 750              		.loc 12 60 42 view .LVU191
 751              	.LBE327:
 752              	.LBE328:
 149:Pedal.cpp     **** 	delay.setFeedback(feedback);
 753              		.loc 18 149 2 is_stmt 1 view .LVU192
 149:Pedal.cpp     **** 	delay.setFeedback(feedback);
 754              		.loc 18 149 47 is_stmt 0 view .LVU193
 755 00b4 FFF7FEFF 		bl	_ZN5daisy13AnalogControl7ProcessEv
 756              	.LVL43:
 149:Pedal.cpp     **** 	delay.setFeedback(feedback);
 757              		.loc 18 149 11 view .LVU194
 758 00b8 3049     		ldr	r1, .L46+28
 150:Pedal.cpp     **** 
 759              		.loc 18 150 19 view .LVU195
 760 00ba 2B48     		ldr	r0, .L46+8
 149:Pedal.cpp     **** 	delay.setFeedback(feedback);
 761              		.loc 18 149 11 view .LVU196
 762 00bc 81ED000A 		vstr.32	s0, [r1]
 150:Pedal.cpp     **** 
 763              		.loc 18 150 2 is_stmt 1 view .LVU197
 150:Pedal.cpp     **** 
 764              		.loc 18 150 19 is_stmt 0 view .LVU198
 765 00c0 FFF7FEFF 		bl	_ZN5Delay11setFeedbackERKf
 766              	.LVL44:
 152:Pedal.cpp     **** 	tone.setFreq(toneVal);
 767              		.loc 18 152 2 is_stmt 1 view .LVU199
 152:Pedal.cpp     **** 	tone.setFreq(toneVal);
 768              		.loc 18 152 29 is_stmt 0 view .LVU200
 769 00c4 2E48     		ldr	r0, .L46+32
 770 00c6 FFF7FEFF 		bl	_ZN5daisy9Parameter7ProcessEv
 771              	.LVL45:
 152:Pedal.cpp     **** 	tone.setFreq(toneVal);
 772              		.loc 18 152 10 view .LVU201
ARM GAS  /var/folders/fs/ht5wlc7s7b56r9p0ngl7ssgc0000gn/T//ccZCPiB8.s 			page 31


 773 00ca 2E4B     		ldr	r3, .L46+36
 153:Pedal.cpp     **** 
 774              		.loc 18 153 14 view .LVU202
 775 00cc 2E48     		ldr	r0, .L46+40
 152:Pedal.cpp     **** 	tone.setFreq(toneVal);
 776              		.loc 18 152 10 view .LVU203
 777 00ce 83ED000A 		vstr.32	s0, [r3]
 153:Pedal.cpp     **** 
 778              		.loc 18 153 2 is_stmt 1 view .LVU204
 153:Pedal.cpp     **** 
 779              		.loc 18 153 14 is_stmt 0 view .LVU205
 780 00d2 FFF7FEFF 		bl	_ZN10ToneFilter7setFreqEf
 781              	.LVL46:
 155:Pedal.cpp     **** 
 782              		.loc 18 155 2 is_stmt 1 view .LVU206
 155:Pedal.cpp     **** 
 783              		.loc 18 155 38 is_stmt 0 view .LVU207
 784 00d6 2D48     		ldr	r0, .L46+44
 785 00d8 FFF7FEFF 		bl	_ZN5daisy9Parameter7ProcessEv
 786              	.LVL47:
 787              		.loc 18 158 38 view .LVU208
 788 00dc 2148     		ldr	r0, .L46+4
 155:Pedal.cpp     **** 
 789              		.loc 18 155 38 view .LVU209
 790 00de B0EE408A 		vmov.f32	s16, s0
 791              	.LVL48:
 792              		.loc 18 158 5 is_stmt 1 view .LVU210
 793              		.loc 18 158 38 is_stmt 0 view .LVU211
 794 00e2 FFF7FEFF 		bl	_ZN8TapTempo6getBPMEv
 795              	.LVL49:
 796              		.loc 18 158 41 view .LVU212
 797 00e6 30EE680A 		vsub.f32	s0, s0, s17
 798              		.loc 18 158 45 view .LVU213
 799 00ea B4EEC80A 		vcmpe.f32	s0, s16
 800 00ee F1EE10FA 		vmrs	APSR_nzcv, FPSCR
 801 00f2 1ED4     		bmi	.L29
 802 00f4 264C     		ldr	r4, .L46+48
 803              	.L30:
 159:Pedal.cpp     ****     {    
 160:Pedal.cpp     **** 		tapTempo.setBPM(bpmFromKnob);
 161:Pedal.cpp     **** 		delay.setBPM(bpm);
 162:Pedal.cpp     **** 	}
 163:Pedal.cpp     **** 	
 164:Pedal.cpp     **** 	/*********************************************/
 165:Pedal.cpp     **** 
 166:Pedal.cpp     **** 	bpm = tapTempo.getBPM();
 804              		.loc 18 166 2 is_stmt 1 view .LVU214
 805              		.loc 18 166 23 is_stmt 0 view .LVU215
 806 00f6 1B48     		ldr	r0, .L46+4
 807 00f8 FFF7FEFF 		bl	_ZN8TapTempo6getBPMEv
 808              	.LVL50:
 809              		.loc 18 166 6 view .LVU216
 810 00fc 84ED000A 		vstr.32	s0, [r4]
 167:Pedal.cpp     **** }...
 811              		.loc 18 167 1 view .LVU217
 812 0100 04B0     		add	sp, sp, #16
 813              		.cfi_remember_state
ARM GAS  /var/folders/fs/ht5wlc7s7b56r9p0ngl7ssgc0000gn/T//ccZCPiB8.s 			page 32


 814              		.cfi_def_cfa_offset 16
 815              		@ sp needed
 816 0102 BDEC028B 		vldm	sp!, {d8}
 817              		.cfi_restore 80
 818              		.cfi_restore 81
 819              		.cfi_def_cfa_offset 8
 820              	.LVL51:
 821              		.loc 18 167 1 view .LVU218
 822 0106 10BD     		pop	{r4, pc}
 823              	.LVL52:
 824              	.L41:
 825              		.cfi_restore_state
 114:Pedal.cpp     **** 		bypass = !bypass;
 826              		.loc 18 114 3 is_stmt 1 view .LVU219
 114:Pedal.cpp     **** 		bypass = !bypass;
 827              		.loc 18 114 10 is_stmt 0 view .LVU220
 828 0108 224A     		ldr	r2, .L46+52
 114:Pedal.cpp     **** 		bypass = !bypass;
 829              		.loc 18 114 12 view .LVU221
 830 010a 1378     		ldrb	r3, [r2]	@ zero_extendqisi2
 831 010c 83F00103 		eor	r3, r3, #1
 114:Pedal.cpp     **** 		bypass = !bypass;
 832              		.loc 18 114 10 view .LVU222
 833 0110 1370     		strb	r3, [r2]
 834 0112 81E7     		b	.L19
 835              	.LVL53:
 836              	.L45:
 140:Pedal.cpp     **** 		delay.enableHead(3);
 837              		.loc 18 140 3 is_stmt 1 view .LVU223
 140:Pedal.cpp     **** 		delay.enableHead(3);
 838              		.loc 18 140 19 is_stmt 0 view .LVU224
 839 0114 FFF7FEFF 		bl	_ZN5Delay10enableHeadERKi
 840              	.LVL54:
 841 0118 C0E7     		b	.L28
 842              	.L44:
 135:Pedal.cpp     **** 		delay.enableHead(2);
 843              		.loc 18 135 3 is_stmt 1 view .LVU225
 135:Pedal.cpp     **** 		delay.enableHead(2);
 844              		.loc 18 135 19 is_stmt 0 view .LVU226
 845 011a FFF7FEFF 		bl	_ZN5Delay10enableHeadERKi
 846              	.LVL55:
 847 011e 0199     		ldr	r1, [sp, #4]
 848 0120 B2E7     		b	.L26
 849              	.L43:
 130:Pedal.cpp     **** 		delay.enableHead(1);
 850              		.loc 18 130 3 is_stmt 1 view .LVU227
 130:Pedal.cpp     **** 		delay.enableHead(1);
 851              		.loc 18 130 19 is_stmt 0 view .LVU228
 852 0122 FFF7FEFF 		bl	_ZN5Delay10enableHeadERKi
 853              	.LVL56:
 854 0126 0199     		ldr	r1, [sp, #4]
 855 0128 A2E7     		b	.L24
 856              	.L42:
 125:Pedal.cpp     **** 		delay.enableHead(0);
 857              		.loc 18 125 3 is_stmt 1 view .LVU229
 125:Pedal.cpp     **** 		delay.enableHead(0);
 858              		.loc 18 125 19 is_stmt 0 view .LVU230
ARM GAS  /var/folders/fs/ht5wlc7s7b56r9p0ngl7ssgc0000gn/T//ccZCPiB8.s 			page 33


 859 012a FFF7FEFF 		bl	_ZN5Delay10enableHeadERKi
 860              	.LVL57:
 861 012e 0199     		ldr	r1, [sp, #4]
 862 0130 92E7     		b	.L22
 863              	.LVL58:
 864              	.L29:
 158:Pedal.cpp     ****     if( bpmFromKnob > tapTempo.getBPM() - 1 &&  bpmFromKnob < tapTempo.getBPM() + 1 )
 865              		.loc 18 158 78 discriminator 1 view .LVU231
 866 0132 0C48     		ldr	r0, .L46+4
 867 0134 FFF7FEFF 		bl	_ZN8TapTempo6getBPMEv
 868              	.LVL59:
 158:Pedal.cpp     ****     if( bpmFromKnob > tapTempo.getBPM() - 1 &&  bpmFromKnob < tapTempo.getBPM() + 1 )
 869              		.loc 18 158 81 discriminator 1 view .LVU232
 870 0138 30EE280A 		vadd.f32	s0, s0, s17
 161:Pedal.cpp     **** 		delay.setBPM(bpm);
 871              		.loc 18 161 15 discriminator 1 view .LVU233
 872 013c 144C     		ldr	r4, .L46+48
 158:Pedal.cpp     ****     if( bpmFromKnob > tapTempo.getBPM() - 1 &&  bpmFromKnob < tapTempo.getBPM() + 1 )
 873              		.loc 18 158 45 discriminator 1 view .LVU234
 874 013e B4EEC80A 		vcmpe.f32	s0, s16
 875 0142 F1EE10FA 		vmrs	APSR_nzcv, FPSCR
 876 0146 D6DD     		ble	.L30
 160:Pedal.cpp     **** 		tapTempo.setBPM(bpmFromKnob);
 877              		.loc 18 160 3 is_stmt 1 view .LVU235
 160:Pedal.cpp     **** 		tapTempo.setBPM(bpmFromKnob);
 878              		.loc 18 160 18 is_stmt 0 view .LVU236
 879 0148 B0EE480A 		vmov.f32	s0, s16
 880 014c 0548     		ldr	r0, .L46+4
 881 014e FFF7FEFF 		bl	_ZN8TapTempo6setBPMEf
 882              	.LVL60:
 161:Pedal.cpp     **** 		delay.setBPM(bpm);
 883              		.loc 18 161 3 is_stmt 1 view .LVU237
 161:Pedal.cpp     **** 		delay.setBPM(bpm);
 884              		.loc 18 161 15 is_stmt 0 view .LVU238
 885 0152 94ED000A 		vldr.32	s0, [r4]
 886 0156 0448     		ldr	r0, .L46+8
 887 0158 FFF7FEFF 		bl	_ZN5Delay6setBPMEf
 888              	.LVL61:
 889 015c CBE7     		b	.L30
 890              	.L47:
 891 015e 00BF     		.align	2
 892              	.L46:
 893 0160 00000000 		.word	.LANCHOR0
 894 0164 00000000 		.word	.LANCHOR8
 895 0168 00000000 		.word	.LANCHOR3
 896 016c 64000000 		.word	.LANCHOR0+100
 897 0170 00000000 		.word	.LANCHOR9
 898 0174 00000000 		.word	.LANCHOR4
 899 0178 A4000000 		.word	.LANCHOR0+164
 900 017c 00000000 		.word	.LANCHOR10
 901 0180 00000000 		.word	.LANCHOR1
 902 0184 00000000 		.word	.LANCHOR11
 903 0188 00000000 		.word	.LANCHOR12
 904 018c 00000000 		.word	.LANCHOR2
 905 0190 00000000 		.word	.LANCHOR13
 906 0194 00000000 		.word	.LANCHOR7
 907              		.cfi_endproc
ARM GAS  /var/folders/fs/ht5wlc7s7b56r9p0ngl7ssgc0000gn/T//ccZCPiB8.s 			page 34


 908              	.LFE4825:
 910              		.section	.text._Z13AudioCallbackPKPKfPPfj,"ax",%progbits
 911              		.align	1
 912              		.p2align 2,,3
 913              		.global	_Z13AudioCallbackPKPKfPPfj
 914              		.syntax unified
 915              		.thumb
 916              		.thumb_func
 918              	_Z13AudioCallbackPKPKfPPfj:
 919              	.LVL62:
 920              	.LFB4822:
  49:Pedal.cpp     **** {
 921              		.loc 18 49 1 is_stmt 1 view -0
 922              		.cfi_startproc
 923              		@ args = 0, pretend = 0, frame = 8
 924              		@ frame_needed = 0, uses_anonymous_args = 0
  50:Pedal.cpp     **** 	hw.ProcessAllControls();
 925              		.loc 18 50 2 view .LVU240
 926              	.LBB329:
 927              	.LBI329:
  69:../../libDaisy//src/daisy_petal.h **** 
  70:../../libDaisy//src/daisy_petal.h ****     /** Initialize daisy petal */
  71:../../libDaisy//src/daisy_petal.h ****     void Init(bool boost = false);
  72:../../libDaisy//src/daisy_petal.h **** 
  73:../../libDaisy//src/daisy_petal.h ****     /**
  74:../../libDaisy//src/daisy_petal.h ****        Wait before moving on.
  75:../../libDaisy//src/daisy_petal.h ****        \param del Delay time in ms.
  76:../../libDaisy//src/daisy_petal.h ****      */
  77:../../libDaisy//src/daisy_petal.h ****     void DelayMs(size_t del);
  78:../../libDaisy//src/daisy_petal.h **** 
  79:../../libDaisy//src/daisy_petal.h **** 
  80:../../libDaisy//src/daisy_petal.h ****     /** Starts the callback
  81:../../libDaisy//src/daisy_petal.h ****     \param cb Interleaved callback function
  82:../../libDaisy//src/daisy_petal.h ****     */
  83:../../libDaisy//src/daisy_petal.h ****     void StartAudio(AudioHandle::InterleavingAudioCallback cb);
  84:../../libDaisy//src/daisy_petal.h **** 
  85:../../libDaisy//src/daisy_petal.h ****     /** Starts the callback
  86:../../libDaisy//src/daisy_petal.h ****     \param cb multichannel callback function
  87:../../libDaisy//src/daisy_petal.h ****     */
  88:../../libDaisy//src/daisy_petal.h ****     void StartAudio(AudioHandle::AudioCallback cb);
  89:../../libDaisy//src/daisy_petal.h **** 
  90:../../libDaisy//src/daisy_petal.h ****     /**
  91:../../libDaisy//src/daisy_petal.h ****        Switch callback functions
  92:../../libDaisy//src/daisy_petal.h ****        \param cb New interleaved callback function.
  93:../../libDaisy//src/daisy_petal.h ****     */
  94:../../libDaisy//src/daisy_petal.h ****     void ChangeAudioCallback(AudioHandle::InterleavingAudioCallback cb);
  95:../../libDaisy//src/daisy_petal.h **** 
  96:../../libDaisy//src/daisy_petal.h ****     /**
  97:../../libDaisy//src/daisy_petal.h ****        Switch callback functions
  98:../../libDaisy//src/daisy_petal.h ****        \param cb New multichannel callback function.
  99:../../libDaisy//src/daisy_petal.h ****     */
 100:../../libDaisy//src/daisy_petal.h ****     void ChangeAudioCallback(AudioHandle::AudioCallback cb);
 101:../../libDaisy//src/daisy_petal.h **** 
 102:../../libDaisy//src/daisy_petal.h ****     /** Stops the audio if it is running. */
 103:../../libDaisy//src/daisy_petal.h ****     void StopAudio();
 104:../../libDaisy//src/daisy_petal.h **** 
 105:../../libDaisy//src/daisy_petal.h ****     /** Updates the Audio Sample Rate, and reinitializes.
ARM GAS  /var/folders/fs/ht5wlc7s7b56r9p0ngl7ssgc0000gn/T//ccZCPiB8.s 			page 35


 106:../../libDaisy//src/daisy_petal.h ****      ** Audio must be stopped for this to work.
 107:../../libDaisy//src/daisy_petal.h ****      */
 108:../../libDaisy//src/daisy_petal.h ****     void SetAudioSampleRate(SaiHandle::Config::SampleRate samplerate);
 109:../../libDaisy//src/daisy_petal.h **** 
 110:../../libDaisy//src/daisy_petal.h ****     /** Returns the audio sample rate in Hz as a floating point number.
 111:../../libDaisy//src/daisy_petal.h ****      */
 112:../../libDaisy//src/daisy_petal.h ****     float AudioSampleRate();
 113:../../libDaisy//src/daisy_petal.h **** 
 114:../../libDaisy//src/daisy_petal.h ****     /** Sets the number of samples processed per channel by the audio callback.
 115:../../libDaisy//src/daisy_petal.h ****        \param size Audio block size
 116:../../libDaisy//src/daisy_petal.h ****      */
 117:../../libDaisy//src/daisy_petal.h ****     void SetAudioBlockSize(size_t size);
 118:../../libDaisy//src/daisy_petal.h **** 
 119:../../libDaisy//src/daisy_petal.h ****     /** Returns the number of samples per channel in a block of audio. */
 120:../../libDaisy//src/daisy_petal.h ****     size_t AudioBlockSize();
 121:../../libDaisy//src/daisy_petal.h **** 
 122:../../libDaisy//src/daisy_petal.h ****     /** Returns the rate in Hz that the Audio callback is called */
 123:../../libDaisy//src/daisy_petal.h ****     float AudioCallbackRate();
 124:../../libDaisy//src/daisy_petal.h **** 
 125:../../libDaisy//src/daisy_petal.h ****     /** Start analog to digital conversion. */
 126:../../libDaisy//src/daisy_petal.h ****     void StartAdc();
 127:../../libDaisy//src/daisy_petal.h **** 
 128:../../libDaisy//src/daisy_petal.h ****     /** Stops Transfering data from the ADC */
 129:../../libDaisy//src/daisy_petal.h ****     void StopAdc();
 130:../../libDaisy//src/daisy_petal.h **** 
 131:../../libDaisy//src/daisy_petal.h ****     /** Call at the same frequency as controls are read for stable readings.*/
 132:../../libDaisy//src/daisy_petal.h ****     void ProcessAnalogControls();
 133:../../libDaisy//src/daisy_petal.h **** 
 134:../../libDaisy//src/daisy_petal.h ****     /** Process Analog and Digital Controls */
 135:../../libDaisy//src/daisy_petal.h ****     inline void ProcessAllControls()
 928              		.loc 3 135 17 view .LVU241
 929              	.LBB330:
 136:../../libDaisy//src/daisy_petal.h ****     {
 137:../../libDaisy//src/daisy_petal.h ****         ProcessAnalogControls();
 930              		.loc 3 137 9 view .LVU242
 931              	.LBE330:
 932              	.LBE329:
  49:Pedal.cpp     **** {
 933              		.loc 18 49 1 is_stmt 0 view .LVU243
 934 0000 2DE9F043 		push	{r4, r5, r6, r7, r8, r9, lr}
 935              		.cfi_def_cfa_offset 28
 936              		.cfi_offset 4, -28
 937              		.cfi_offset 5, -24
 938              		.cfi_offset 6, -20
 939              		.cfi_offset 7, -16
 940              		.cfi_offset 8, -12
 941              		.cfi_offset 9, -8
 942              		.cfi_offset 14, -4
 943 0004 1546     		mov	r5, r2
 944 0006 83B0     		sub	sp, sp, #12
 945              		.cfi_def_cfa_offset 40
  49:Pedal.cpp     **** {
 946              		.loc 18 49 1 view .LVU244
 947 0008 0646     		mov	r6, r0
 948              	.LBB333:
 949              	.LBB331:
 950              		.loc 3 137 30 view .LVU245
ARM GAS  /var/folders/fs/ht5wlc7s7b56r9p0ngl7ssgc0000gn/T//ccZCPiB8.s 			page 36


 951 000a 2348     		ldr	r0, .L59
 952              	.LVL63:
 953              		.loc 3 137 30 view .LVU246
 954              	.LBE331:
 955              	.LBE333:
  49:Pedal.cpp     **** {
 956              		.loc 18 49 1 view .LVU247
 957 000c 0F46     		mov	r7, r1
 958              	.LBB334:
 959              	.LBB332:
 960              		.loc 3 137 30 view .LVU248
 961 000e FFF7FEFF 		bl	_ZN5daisy10DaisyPetal21ProcessAnalogControlsEv
 962              	.LVL64:
 138:../../libDaisy//src/daisy_petal.h ****         ProcessDigitalControls();
 963              		.loc 3 138 9 is_stmt 1 view .LVU249
 964              		.loc 3 138 31 is_stmt 0 view .LVU250
 965 0012 2148     		ldr	r0, .L59
 966 0014 FFF7FEFF 		bl	_ZN5daisy10DaisyPetal22ProcessDigitalControlsEv
 967              	.LVL65:
 968              		.loc 3 138 31 view .LVU251
 969              	.LBE332:
 970              	.LBE334:
  51:Pedal.cpp     **** 	processControls();
 971              		.loc 18 51 2 is_stmt 1 view .LVU252
  51:Pedal.cpp     **** 	processControls();
 972              		.loc 18 51 17 is_stmt 0 view .LVU253
 973 0018 FFF7FEFF 		bl	_Z15processControlsv
 974              	.LVL66:
  52:Pedal.cpp     **** 	for (size_t i = 0; i < size; i++)
 975              		.loc 18 52 2 is_stmt 1 view .LVU254
 976              	.LBB335:
  52:Pedal.cpp     **** 	for (size_t i = 0; i < size; i++)
 977              		.loc 18 52 23 view .LVU255
 978 001c 002D     		cmp	r5, #0
 979 001e 37D0     		beq	.L48
  52:Pedal.cpp     **** 	for (size_t i = 0; i < size; i++)
 980              		.loc 18 52 14 is_stmt 0 view .LVU256
 981 0020 0024     		movs	r4, #0
 982 0022 DFF88880 		ldr	r8, .L59+20
 983 0026 0BE0     		b	.L52
 984              	.LVL67:
 985              	.L58:
 986              	.LBB336:
  55:Pedal.cpp     **** 			out[0][i] = in[0][i];
 987              		.loc 18 55 23 view .LVU257
 988 0028 3268     		ldr	r2, [r6]
  55:Pedal.cpp     **** 			out[0][i] = in[0][i];
 989              		.loc 18 55 14 view .LVU258
 990 002a 3B68     		ldr	r3, [r7]
  55:Pedal.cpp     **** 			out[0][i] = in[0][i];
 991              		.loc 18 55 23 view .LVU259
 992 002c 02EB840C 		add	ip, r2, r4, lsl #2
  55:Pedal.cpp     **** 			out[0][i] = in[0][i];
 993              		.loc 18 55 14 view .LVU260
 994 0030 03EB8403 		add	r3, r3, r4, lsl #2
 995              	.LBE336:
  52:Pedal.cpp     **** 	for (size_t i = 0; i < size; i++)
ARM GAS  /var/folders/fs/ht5wlc7s7b56r9p0ngl7ssgc0000gn/T//ccZCPiB8.s 			page 37


 996              		.loc 18 52 2 view .LVU261
 997 0034 0134     		adds	r4, r4, #1
 998              	.LVL68:
 999              	.LBB340:
  55:Pedal.cpp     **** 			out[0][i] = in[0][i];
 1000              		.loc 18 55 23 view .LVU262
 1001 0036 DCF80020 		ldr	r2, [ip]	@ float
 1002              	.LBE340:
  52:Pedal.cpp     **** 	for (size_t i = 0; i < size; i++)
 1003              		.loc 18 52 23 view .LVU263
 1004 003a A542     		cmp	r5, r4
 1005              	.LBB341:
  55:Pedal.cpp     **** 			out[0][i] = in[0][i];
 1006              		.loc 18 55 14 view .LVU264
 1007 003c 1A60     		str	r2, [r3]	@ float
 1008              	.LBE341:
  52:Pedal.cpp     **** 	for (size_t i = 0; i < size; i++)
 1009              		.loc 18 52 2 is_stmt 1 view .LVU265
 1010              	.LVL69:
  52:Pedal.cpp     **** 	for (size_t i = 0; i < size; i++)
 1011              		.loc 18 52 23 view .LVU266
 1012 003e 27D0     		beq	.L48
 1013              	.LVL70:
 1014              	.L52:
  52:Pedal.cpp     **** 	for (size_t i = 0; i < size; i++)
 1015              		.loc 18 52 23 is_stmt 0 view .LVU267
 1016              	.LBE335:
  54:Pedal.cpp     **** 		if(bypass)
 1017              		.loc 18 54 3 is_stmt 1 view .LVU268
 1018              	.LBB345:
 1019              	.LBB342:
  55:Pedal.cpp     **** 			out[0][i] = in[0][i];
 1020              		.loc 18 55 4 view .LVU269
  54:Pedal.cpp     **** 		if(bypass)
 1021              		.loc 18 54 3 is_stmt 0 view .LVU270
 1022 0040 98F80030 		ldrb	r3, [r8]	@ zero_extendqisi2
 1023 0044 002B     		cmp	r3, #0
 1024 0046 EFD1     		bne	.L58
 1025              	.LBB337:
  59:Pedal.cpp     **** 			float nonConstInput = in[0][i];
 1026              		.loc 18 59 4 is_stmt 1 view .LVU271
  59:Pedal.cpp     **** 			float nonConstInput = in[0][i];
 1027              		.loc 18 59 33 is_stmt 0 view .LVU272
 1028 0048 3368     		ldr	r3, [r6]
 1029 004a 4FEA8409 		lsl	r9, r4, #2
  61:Pedal.cpp     **** 			float allDelaySignals = delay.process(in[0][i]);
 1030              		.loc 18 61 41 view .LVU273
 1031 004e 1348     		ldr	r0, .L59+4
  59:Pedal.cpp     **** 			float nonConstInput = in[0][i];
 1032              		.loc 18 59 33 view .LVU274
 1033 0050 03EB8403 		add	r3, r3, r4, lsl #2
 1034              	.LBE337:
 1035              	.LBE342:
  52:Pedal.cpp     **** 	for (size_t i = 0; i < size; i++)
 1036              		.loc 18 52 2 view .LVU275
 1037 0054 0134     		adds	r4, r4, #1
 1038              	.LVL71:
ARM GAS  /var/folders/fs/ht5wlc7s7b56r9p0ngl7ssgc0000gn/T//ccZCPiB8.s 			page 38


 1039              	.LBB343:
 1040              	.LBB338:
  59:Pedal.cpp     **** 			float nonConstInput = in[0][i];
 1041              		.loc 18 59 33 view .LVU276
 1042 0056 93ED000A 		vldr.32	s0, [r3]
  59:Pedal.cpp     **** 			float nonConstInput = in[0][i];
 1043              		.loc 18 59 10 view .LVU277
 1044 005a 8DED000A 		vstr.32	s0, [sp]
  60:Pedal.cpp     **** 			float finalMix = 0;
 1045              		.loc 18 60 4 is_stmt 1 view .LVU278
 1046              	.LVL72:
  61:Pedal.cpp     **** 			float allDelaySignals = delay.process(in[0][i]);
 1047              		.loc 18 61 4 view .LVU279
  61:Pedal.cpp     **** 			float allDelaySignals = delay.process(in[0][i]);
 1048              		.loc 18 61 41 is_stmt 0 view .LVU280
 1049 005e FFF7FEFF 		bl	_ZN5Delay7processEf
 1050              	.LVL73:
  64:Pedal.cpp     **** 			allDelaySignals = tone.process(allDelaySignals);
 1051              		.loc 18 64 34 view .LVU281
 1052 0062 0F48     		ldr	r0, .L59+8
  61:Pedal.cpp     **** 			float allDelaySignals = delay.process(in[0][i]);
 1053              		.loc 18 61 50 view .LVU282
 1054 0064 8DED010A 		vstr.32	s0, [sp, #4]
  62:Pedal.cpp     **** 			float preFilterDelays = allDelaySignals;
 1055              		.loc 18 62 4 is_stmt 1 view .LVU283
 1056              	.LVL74:
  64:Pedal.cpp     **** 			allDelaySignals = tone.process(allDelaySignals);
 1057              		.loc 18 64 4 view .LVU284
  64:Pedal.cpp     **** 			allDelaySignals = tone.process(allDelaySignals);
 1058              		.loc 18 64 34 is_stmt 0 view .LVU285
 1059 0068 FFF7FEFF 		bl	_ZN10ToneFilter7processEf
 1060              	.LVL75:
  65:Pedal.cpp     **** 			allDelaySignals = tremelo.Process(allDelaySignals);
 1061              		.loc 18 65 37 view .LVU286
 1062 006c 0D48     		ldr	r0, .L59+12
  64:Pedal.cpp     **** 			allDelaySignals = tone.process(allDelaySignals);
 1063              		.loc 18 64 20 view .LVU287
 1064 006e 8DED010A 		vstr.32	s0, [sp, #4]
  65:Pedal.cpp     **** 			allDelaySignals = tremelo.Process(allDelaySignals);
 1065              		.loc 18 65 4 is_stmt 1 view .LVU288
  65:Pedal.cpp     **** 			allDelaySignals = tremelo.Process(allDelaySignals);
 1066              		.loc 18 65 37 is_stmt 0 view .LVU289
 1067 0072 FFF7FEFF 		bl	_ZN7daisysp7Tremolo7ProcessEf
 1068              	.LVL76:
  68:Pedal.cpp     **** 			finalMix = crossFade.Process(nonConstInput, allDelaySignals);
 1069              		.loc 18 68 32 view .LVU290
 1070 0076 01AA     		add	r2, sp, #4
 1071 0078 6946     		mov	r1, sp
 1072 007a 0B48     		ldr	r0, .L59+16
  65:Pedal.cpp     **** 			allDelaySignals = tremelo.Process(allDelaySignals);
 1073              		.loc 18 65 20 view .LVU291
 1074 007c 8DED010A 		vstr.32	s0, [sp, #4]
  68:Pedal.cpp     **** 			finalMix = crossFade.Process(nonConstInput, allDelaySignals);
 1075              		.loc 18 68 4 is_stmt 1 view .LVU292
  68:Pedal.cpp     **** 			finalMix = crossFade.Process(nonConstInput, allDelaySignals);
 1076              		.loc 18 68 32 is_stmt 0 view .LVU293
 1077 0080 FFF7FEFF 		bl	_ZN7daisysp9CrossFade7ProcessERfS1_
ARM GAS  /var/folders/fs/ht5wlc7s7b56r9p0ngl7ssgc0000gn/T//ccZCPiB8.s 			page 39


 1078              	.LVL77:
  72:Pedal.cpp     **** 			out[0][i] = finalMix;
 1079              		.loc 18 72 4 is_stmt 1 view .LVU294
  72:Pedal.cpp     **** 			out[0][i] = finalMix;
 1080              		.loc 18 72 14 is_stmt 0 view .LVU295
 1081 0084 3B68     		ldr	r3, [r7]
 1082              	.LBE338:
 1083              	.LBE343:
  52:Pedal.cpp     **** 	for (size_t i = 0; i < size; i++)
 1084              		.loc 18 52 23 view .LVU296
 1085 0086 A542     		cmp	r5, r4
 1086              	.LBB344:
 1087              	.LBB339:
  72:Pedal.cpp     **** 			out[0][i] = finalMix;
 1088              		.loc 18 72 14 view .LVU297
 1089 0088 4B44     		add	r3, r3, r9
 1090 008a 83ED000A 		vstr.32	s0, [r3]
 1091              	.LBE339:
 1092              	.LBE344:
  52:Pedal.cpp     **** 	for (size_t i = 0; i < size; i++)
 1093              		.loc 18 52 2 is_stmt 1 view .LVU298
 1094              	.LVL78:
  52:Pedal.cpp     **** 	for (size_t i = 0; i < size; i++)
 1095              		.loc 18 52 23 view .LVU299
 1096 008e D7D1     		bne	.L52
 1097              	.LVL79:
 1098              	.L48:
  52:Pedal.cpp     **** 	for (size_t i = 0; i < size; i++)
 1099              		.loc 18 52 23 is_stmt 0 view .LVU300
 1100              	.LBE345:
  77:Pedal.cpp     **** }
 1101              		.loc 18 77 1 view .LVU301
 1102 0090 03B0     		add	sp, sp, #12
 1103              		.cfi_def_cfa_offset 28
 1104              		@ sp needed
 1105 0092 BDE8F083 		pop	{r4, r5, r6, r7, r8, r9, pc}
 1106              	.LVL80:
 1107              	.L60:
  77:Pedal.cpp     **** }
 1108              		.loc 18 77 1 view .LVU302
 1109 0096 00BF     		.align	2
 1110              	.L59:
 1111 0098 00000000 		.word	.LANCHOR0
 1112 009c 00000000 		.word	.LANCHOR3
 1113 00a0 00000000 		.word	.LANCHOR12
 1114 00a4 00000000 		.word	.LANCHOR6
 1115 00a8 00000000 		.word	.LANCHOR4
 1116 00ac 00000000 		.word	.LANCHOR7
 1117              		.cfi_endproc
 1118              	.LFE4822:
 1120              		.section	.text.startup._GLOBAL__sub_I_tremelo,"ax",%progbits
 1121              		.align	1
 1122              		.p2align 2,,3
 1123              		.syntax unified
 1124              		.thumb
 1125              		.thumb_func
 1127              	_GLOBAL__sub_I_tremelo:
ARM GAS  /var/folders/fs/ht5wlc7s7b56r9p0ngl7ssgc0000gn/T//ccZCPiB8.s 			page 40


 1128              	.LFB5401:
 1129              		.loc 18 167 1 is_stmt 1 view -0
 1130              		.cfi_startproc
 1131              		@ args = 0, pretend = 0, frame = 0
 1132              		@ frame_needed = 0, uses_anonymous_args = 0
 1133              	.LBB406:
 1134              	.LBI406:
 1135              		.loc 18 167 1 view .LVU304
 1136              	.LVL81:
 1137              	.LBB407:
 1138              	.LBB408:
 1139              	.LBI408:
  24:../../DaisySP//Source/Effects/tremolo.h ****     ~Tremolo() {}
 1140              		.loc 13 24 5 view .LVU305
 1141              	.LBB409:
 1142              	.LBB410:
 1143              	.LBI410:
  15:../../DaisySP//Source/Synthesis/oscillator.h ****     ~Oscillator() {}
 1144              		.loc 14 15 5 view .LVU306
  15:../../DaisySP//Source/Synthesis/oscillator.h ****     ~Oscillator() {}
 1145              		.loc 14 15 5 is_stmt 0 view .LVU307
 1146              	.LBE410:
 1147              	.LBE409:
 1148              	.LBE408:
 1149              	.LBE407:
 1150              	.LBE406:
 1151              		.loc 18 167 1 view .LVU308
 1152 0000 F8B5     		push	{r3, r4, r5, r6, r7, lr}
 1153              		.cfi_def_cfa_offset 24
 1154              		.cfi_offset 3, -24
 1155              		.cfi_offset 4, -20
 1156              		.cfi_offset 5, -16
 1157              		.cfi_offset 6, -12
 1158              		.cfi_offset 7, -8
 1159              		.cfi_offset 14, -4
 1160              	.LBB475:
 1161              	.LBB471:
  13:Pedal.cpp     **** Tremolo tremelo;
 1162              		.loc 18 13 9 view .LVU309
 1163 0002 304E     		ldr	r6, .L63
 1164              	.LBB411:
 1165              	.LBB412:
 1166              	.LBB413:
 1167              	.LBB414:
 1168              	.LBB415:
 1169              	.LBB416:
 1170              	.LBB417:
 1171              		.file 19 "../../libDaisy//src/per/qspi.h"
   1:../../libDaisy//src/per/qspi.h **** #ifndef DSY_QSPI
   2:../../libDaisy//src/per/qspi.h **** #define DSY_QSPI /**< Macro */
   3:../../libDaisy//src/per/qspi.h **** 
   4:../../libDaisy//src/per/qspi.h **** #ifndef UNIT_TEST // for unit tests, a dummy implementation
   5:../../libDaisy//src/per/qspi.h **** 
   6:../../libDaisy//src/per/qspi.h **** #include <cstdint>
   7:../../libDaisy//src/per/qspi.h **** #include "daisy_core.h" // Added for dsy_gpio_pin typedef
   8:../../libDaisy//src/per/qspi.h **** 
   9:../../libDaisy//src/per/qspi.h **** #define DSY_QSPI_TEXT       \
ARM GAS  /var/folders/fs/ht5wlc7s7b56r9p0ngl7ssgc0000gn/T//ccZCPiB8.s 			page 41


  10:../../libDaisy//src/per/qspi.h ****     __attribute__((section( \
  11:../../libDaisy//src/per/qspi.h ****         ".qspiflash_text"))) /**< used for reading memory in memory_mapped mode. */
  12:../../libDaisy//src/per/qspi.h **** #define DSY_QSPI_DATA       \
  13:../../libDaisy//src/per/qspi.h ****     __attribute__((section( \
  14:../../libDaisy//src/per/qspi.h ****         ".qspiflash_data"))) /**< used for reading memory in memory_mapped mode. */
  15:../../libDaisy//src/per/qspi.h **** #define DSY_QSPI_BSS        \
  16:../../libDaisy//src/per/qspi.h ****     __attribute__((section( \
  17:../../libDaisy//src/per/qspi.h ****         ".qspiflash_bss"))) /**< used for reading memory in memory_mapped mode. */
  18:../../libDaisy//src/per/qspi.h **** 
  19:../../libDaisy//src/per/qspi.h **** namespace daisy
  20:../../libDaisy//src/per/qspi.h **** {
  21:../../libDaisy//src/per/qspi.h **** /** @addtogroup serial
  22:../../libDaisy//src/per/qspi.h **** @{
  23:../../libDaisy//src/per/qspi.h **** */
  24:../../libDaisy//src/per/qspi.h **** 
  25:../../libDaisy//src/per/qspi.h **** /** 
  26:../../libDaisy//src/per/qspi.h ****  Driver for QSPI peripheral to interface with external flash memory. \n 
  27:../../libDaisy//src/per/qspi.h ****     Currently supported QSPI Devices: \n 
  28:../../libDaisy//src/per/qspi.h ****     * IS25LP080D
  29:../../libDaisy//src/per/qspi.h **** */
  30:../../libDaisy//src/per/qspi.h **** class QSPIHandle
  31:../../libDaisy//src/per/qspi.h **** {
  32:../../libDaisy//src/per/qspi.h ****   public:
  33:../../libDaisy//src/per/qspi.h ****     enum Result
  34:../../libDaisy//src/per/qspi.h ****     {
  35:../../libDaisy//src/per/qspi.h ****         OK = 0,
  36:../../libDaisy//src/per/qspi.h ****         ERR
  37:../../libDaisy//src/per/qspi.h ****     };
  38:../../libDaisy//src/per/qspi.h **** 
  39:../../libDaisy//src/per/qspi.h ****     /** Indicates the current status of the module. 
  40:../../libDaisy//src/per/qspi.h ****          *  Warnings are indicated by a leading W.
  41:../../libDaisy//src/per/qspi.h ****          *  Errors are indicated by a leading E and cause an immediate exit.
  42:../../libDaisy//src/per/qspi.h ****          * 
  43:../../libDaisy//src/per/qspi.h ****          *  \param GOOD - No errors have been reported.
  44:../../libDaisy//src/per/qspi.h ****          *  \param E_HAL_ERROR - HAL code did not return HAL_OK.
  45:../../libDaisy//src/per/qspi.h ****          *  \param E_SWITCHING_MODES - An error was encountered while switching QSPI peripheral mod
  46:../../libDaisy//src/per/qspi.h ****          *  \param E_INVALID_MODE - QSPI should not be written to while the program is executing fr
  47:../../libDaisy//src/per/qspi.h ****          */
  48:../../libDaisy//src/per/qspi.h ****     enum Status
  49:../../libDaisy//src/per/qspi.h ****     {
  50:../../libDaisy//src/per/qspi.h ****         GOOD = 0,
  51:../../libDaisy//src/per/qspi.h ****         E_HAL_ERROR,
  52:../../libDaisy//src/per/qspi.h ****         E_SWITCHING_MODES,
  53:../../libDaisy//src/per/qspi.h ****         E_INVALID_MODE,
  54:../../libDaisy//src/per/qspi.h ****     };
  55:../../libDaisy//src/per/qspi.h **** 
  56:../../libDaisy//src/per/qspi.h ****     /** Configuration structure for interfacing with QSPI Driver */
  57:../../libDaisy//src/per/qspi.h ****     struct Config
  58:../../libDaisy//src/per/qspi.h ****     {
  59:../../libDaisy//src/per/qspi.h ****         /** Flash Devices supported. (Both of these are more-or-less the same, just different sizes
  60:../../libDaisy//src/per/qspi.h ****         enum Device
  61:../../libDaisy//src/per/qspi.h ****         {
  62:../../libDaisy//src/per/qspi.h ****             IS25LP080D,  /**< & */
  63:../../libDaisy//src/per/qspi.h ****             IS25LP064A,  /**< & */
  64:../../libDaisy//src/per/qspi.h ****             DEVICE_LAST, /**< & */
  65:../../libDaisy//src/per/qspi.h ****         };
  66:../../libDaisy//src/per/qspi.h **** 
ARM GAS  /var/folders/fs/ht5wlc7s7b56r9p0ngl7ssgc0000gn/T//ccZCPiB8.s 			page 42


  67:../../libDaisy//src/per/qspi.h ****         /** 
  68:../../libDaisy//src/per/qspi.h ****         Modes of operation.
  69:../../libDaisy//src/per/qspi.h ****         Memory Mapped mode: QSPI configured so that the QSPI can be
  70:../../libDaisy//src/per/qspi.h ****         read from starting address 0x90000000. Writing is not
  71:../../libDaisy//src/per/qspi.h ****         possible in this mode. \n 
  72:../../libDaisy//src/per/qspi.h ****         Indirect Polling mode: Device driver enabled. 
  73:../../libDaisy//src/per/qspi.h ****         */
  74:../../libDaisy//src/per/qspi.h ****         enum Mode
  75:../../libDaisy//src/per/qspi.h ****         {
  76:../../libDaisy//src/per/qspi.h ****             MEMORY_MAPPED,    /**< & */
  77:../../libDaisy//src/per/qspi.h ****             INDIRECT_POLLING, /**< & */
  78:../../libDaisy//src/per/qspi.h ****             MODE_LAST,
  79:../../libDaisy//src/per/qspi.h ****         };
  80:../../libDaisy//src/per/qspi.h **** 
  81:../../libDaisy//src/per/qspi.h ****         //SCK,  CE# (active low)
  82:../../libDaisy//src/per/qspi.h ****         struct
  83:../../libDaisy//src/per/qspi.h ****         {
  84:../../libDaisy//src/per/qspi.h ****             dsy_gpio_pin io0; /**< & */
  85:../../libDaisy//src/per/qspi.h ****             dsy_gpio_pin io1; /**< & */
  86:../../libDaisy//src/per/qspi.h ****             dsy_gpio_pin io2; /**< & */
  87:../../libDaisy//src/per/qspi.h ****             dsy_gpio_pin io3; /**< & */
  88:../../libDaisy//src/per/qspi.h ****             dsy_gpio_pin clk; /**< & */
  89:../../libDaisy//src/per/qspi.h ****             dsy_gpio_pin ncs; /**< & */
  90:../../libDaisy//src/per/qspi.h ****         } pin_config;
  91:../../libDaisy//src/per/qspi.h **** 
  92:../../libDaisy//src/per/qspi.h ****         Device device;
  93:../../libDaisy//src/per/qspi.h ****         Mode   mode;
  94:../../libDaisy//src/per/qspi.h ****     };
  95:../../libDaisy//src/per/qspi.h **** 
  96:../../libDaisy//src/per/qspi.h ****     /** 
  97:../../libDaisy//src/per/qspi.h ****         Initializes QSPI peripheral, and Resets, and prepares memory for access.
  98:../../libDaisy//src/per/qspi.h ****         \param config should be populated with the mode, device and pin_config before calling this 
  99:../../libDaisy//src/per/qspi.h ****         \return Result::OK or Result::ERR
 100:../../libDaisy//src/per/qspi.h ****         */
 101:../../libDaisy//src/per/qspi.h ****     Result Init(const Config& config);
 102:../../libDaisy//src/per/qspi.h **** 
 103:../../libDaisy//src/per/qspi.h ****     /** Returns the current config. */
 104:../../libDaisy//src/per/qspi.h ****     const Config& GetConfig() const;
 105:../../libDaisy//src/per/qspi.h **** 
 106:../../libDaisy//src/per/qspi.h ****     // Couldn't this just be called before anything else in init? That
 107:../../libDaisy//src/per/qspi.h ****     // would make manually calling it unnecessary.
 108:../../libDaisy//src/per/qspi.h ****     /** 
 109:../../libDaisy//src/per/qspi.h ****         Deinitializes the peripheral
 110:../../libDaisy//src/per/qspi.h ****         This should be called before reinitializing QSPI in a different mode.
 111:../../libDaisy//src/per/qspi.h ****         \return Result::OK or Result::ERR
 112:../../libDaisy//src/per/qspi.h ****         */
 113:../../libDaisy//src/per/qspi.h ****     Result DeInit();
 114:../../libDaisy//src/per/qspi.h **** 
 115:../../libDaisy//src/per/qspi.h ****     /** 
 116:../../libDaisy//src/per/qspi.h ****         Writes a single page to to the specified address on the QSPI chip.
 117:../../libDaisy//src/per/qspi.h ****         For IS25LP*, page size is 256 bytes.
 118:../../libDaisy//src/per/qspi.h ****         \param address Address to write to
 119:../../libDaisy//src/per/qspi.h ****         \param size Buffer size
 120:../../libDaisy//src/per/qspi.h ****         \param buffer Buffer to write
 121:../../libDaisy//src/per/qspi.h ****         \return Result::OK or Result::ERR
 122:../../libDaisy//src/per/qspi.h ****         */
 123:../../libDaisy//src/per/qspi.h ****     Result WritePage(uint32_t address, uint32_t size, uint8_t* buffer);
ARM GAS  /var/folders/fs/ht5wlc7s7b56r9p0ngl7ssgc0000gn/T//ccZCPiB8.s 			page 43


 124:../../libDaisy//src/per/qspi.h **** 
 125:../../libDaisy//src/per/qspi.h ****     /** 
 126:../../libDaisy//src/per/qspi.h ****         Writes data in buffer to to the QSPI. Starting at address to address+size 
 127:../../libDaisy//src/per/qspi.h ****         \param address Address to write to
 128:../../libDaisy//src/per/qspi.h ****         \param size Buffer size
 129:../../libDaisy//src/per/qspi.h ****         \param buffer Buffer to write
 130:../../libDaisy//src/per/qspi.h ****         \return Result::OK or Result::ERR
 131:../../libDaisy//src/per/qspi.h ****         */
 132:../../libDaisy//src/per/qspi.h ****     Result Write(uint32_t address, uint32_t size, uint8_t* buffer);
 133:../../libDaisy//src/per/qspi.h **** 
 134:../../libDaisy//src/per/qspi.h ****     /** 
 135:../../libDaisy//src/per/qspi.h ****         Erases the area specified on the chip.
 136:../../libDaisy//src/per/qspi.h ****         Erasures will happen by 4K, 32K or 64K increments.
 137:../../libDaisy//src/per/qspi.h ****         Smallest erase possible is 4kB at a time. (on IS25LP*)
 138:../../libDaisy//src/per/qspi.h ****         \param start_addr Address to begin erasing from
 139:../../libDaisy//src/per/qspi.h ****         \param end_addr  Address to stop erasing at
 140:../../libDaisy//src/per/qspi.h ****         \return Result::OK or Result::ERR
 141:../../libDaisy//src/per/qspi.h ****         */
 142:../../libDaisy//src/per/qspi.h ****     Result Erase(uint32_t start_addr, uint32_t end_addr);
 143:../../libDaisy//src/per/qspi.h **** 
 144:../../libDaisy//src/per/qspi.h ****     /**  
 145:../../libDaisy//src/per/qspi.h ****          Erases a single sector of the chip.  
 146:../../libDaisy//src/per/qspi.h ****         TODO: Document the size of this function. 
 147:../../libDaisy//src/per/qspi.h ****         \param address Address of sector to erase
 148:../../libDaisy//src/per/qspi.h ****         \return Result::OK or Result::ERR
 149:../../libDaisy//src/per/qspi.h ****         */
 150:../../libDaisy//src/per/qspi.h ****     Result EraseSector(uint32_t address);
 151:../../libDaisy//src/per/qspi.h **** 
 152:../../libDaisy//src/per/qspi.h ****     /** Returns the current class status. Useful for debugging.
 153:../../libDaisy//src/per/qspi.h ****      *  \returns Status
 154:../../libDaisy//src/per/qspi.h ****      */
 155:../../libDaisy//src/per/qspi.h ****     Status GetStatus();
 156:../../libDaisy//src/per/qspi.h **** 
 157:../../libDaisy//src/per/qspi.h ****     /** Returns a pointer to the actual memory used 
 158:../../libDaisy//src/per/qspi.h ****      *  The memory at this address is read-only
 159:../../libDaisy//src/per/qspi.h ****      *  to write to it use the Write function.
 160:../../libDaisy//src/per/qspi.h ****      * 
 161:../../libDaisy//src/per/qspi.h ****      *  \param offset returns the pointer starting this 
 162:../../libDaisy//src/per/qspi.h ****      *                many bytes into the memory
 163:../../libDaisy//src/per/qspi.h ****     */
 164:../../libDaisy//src/per/qspi.h ****     void* GetData(uint32_t offset = 0);
 165:../../libDaisy//src/per/qspi.h **** 
 166:../../libDaisy//src/per/qspi.h ****     QSPIHandle() : pimpl_(nullptr) {}
 1172              		.loc 19 166 34 view .LVU310
 1173 0004 0025     		movs	r5, #0
 1174 0006 304C     		ldr	r4, .L63+4
 1175              	.LBE417:
 1176              	.LBE416:
 1177              	.LBE415:
 1178              	.LBE414:
 1179              	.LBE413:
 1180              	.LBE412:
 1181              	.LBE411:
  13:Pedal.cpp     **** Tremolo tremelo;
 1182              		.loc 18 13 9 view .LVU311
 1183 0008 3246     		mov	r2, r6
 1184 000a 3049     		ldr	r1, .L63+8
ARM GAS  /var/folders/fs/ht5wlc7s7b56r9p0ngl7ssgc0000gn/T//ccZCPiB8.s 			page 44


 1185 000c 3048     		ldr	r0, .L63+12
 1186 000e FFF7FEFF 		bl	__aeabi_atexit
 1187              	.LVL82:
 1188              	.LBB450:
 1189              	.LBI411:
  66:../../libDaisy//src/daisy_petal.h ****     /** Destructor */
 1190              		.loc 3 66 5 is_stmt 1 view .LVU312
 1191              	.LBB447:
 1192              	.LBB433:
 1193              	.LBI413:
  21:../../libDaisy//src/daisy_seed.h ****     ~DaisySeed() {}
 1194              		.loc 6 21 5 view .LVU313
 1195              	.LBB431:
 1196              	.LBB420:
 1197              	.LBI415:
 1198              		.loc 19 166 5 view .LVU314
 1199              	.LBB419:
 1200              	.LBB418:
 1201              		.loc 19 166 34 is_stmt 0 view .LVU315
 1202 0012 2560     		str	r5, [r4]
 1203              	.LVL83:
 1204              		.loc 19 166 34 view .LVU316
 1205              	.LBE418:
 1206              	.LBE419:
 1207              	.LBE420:
 1208              	.LBB421:
 1209              	.LBI421:
  95:../../libDaisy//src/hid/audio.h ****     ~AudioHandle() {}
 1210              		.loc 10 95 5 is_stmt 1 view .LVU317
 1211              	.LBB422:
 1212              	.LBB423:
  95:../../libDaisy//src/hid/audio.h ****     ~AudioHandle() {}
 1213              		.loc 10 95 35 is_stmt 0 view .LVU318
 1214 0014 6561     		str	r5, [r4, #20]
 1215              	.LVL84:
  95:../../libDaisy//src/hid/audio.h ****     ~AudioHandle() {}
 1216              		.loc 10 95 35 view .LVU319
 1217              	.LBE423:
 1218              	.LBE422:
 1219              	.LBE421:
 1220              	.LBB424:
 1221              	.LBI424:
  92:../../libDaisy//src/per/adc.h ****     ~AdcHandle() {}
 1222              		.loc 9 92 5 is_stmt 1 view .LVU320
  92:../../libDaisy//src/per/adc.h ****     ~AdcHandle() {}
 1223              		.loc 9 92 5 is_stmt 0 view .LVU321
 1224              	.LBE424:
 1225              	.LBB425:
 1226              	.LBI425:
 1227              		.file 20 "../../libDaisy//src/per/dac.h"
   1:../../libDaisy//src/per/dac.h **** #pragma once
   2:../../libDaisy//src/per/dac.h **** #ifndef DSY_DAC_H
   3:../../libDaisy//src/per/dac.h **** #define DSY_DAC_H
   4:../../libDaisy//src/per/dac.h **** 
   5:../../libDaisy//src/per/dac.h **** #include "daisy_core.h"
   6:../../libDaisy//src/per/dac.h **** 
   7:../../libDaisy//src/per/dac.h **** namespace daisy
ARM GAS  /var/folders/fs/ht5wlc7s7b56r9p0ngl7ssgc0000gn/T//ccZCPiB8.s 			page 45


   8:../../libDaisy//src/per/dac.h **** {
   9:../../libDaisy//src/per/dac.h **** /** @brief DAC handle for Built-in DAC Peripheral 
  10:../../libDaisy//src/per/dac.h ****  *  @ingroup per_analog
  11:../../libDaisy//src/per/dac.h ****  ** 
  12:../../libDaisy//src/per/dac.h ****  ** For now only Normal Mode is supported,
  13:../../libDaisy//src/per/dac.h ****  ** Sample and hold mode provides reduced power consumption, but requires a bit more setup.
  14:../../libDaisy//src/per/dac.h ****  **
  15:../../libDaisy//src/per/dac.h ****  ** For now connecting the DAC through other internal peripherals is also not supported.
  16:../../libDaisy//src/per/dac.h ****  **
  17:../../libDaisy//src/per/dac.h ****  ** Since the DAC channels have dedicated pins we don't need to pass in a pin config like with
  18:../../libDaisy//src/per/dac.h ****  ** other modules. However, it is still important to not try to use the DAC pins for anything else.
  19:../../libDaisy//src/per/dac.h ****  ** DAC Channel 1 is on PA4, and DAC Channel 2 is on PA5
  20:../../libDaisy//src/per/dac.h ****  ***/
  21:../../libDaisy//src/per/dac.h **** class DacHandle
  22:../../libDaisy//src/per/dac.h **** {
  23:../../libDaisy//src/per/dac.h ****   public:
  24:../../libDaisy//src/per/dac.h ****     /** Return Values for the DacHandle class */
  25:../../libDaisy//src/per/dac.h ****     enum class Result
  26:../../libDaisy//src/per/dac.h ****     {
  27:../../libDaisy//src/per/dac.h ****         OK,
  28:../../libDaisy//src/per/dac.h ****         ERR,
  29:../../libDaisy//src/per/dac.h ****     };
  30:../../libDaisy//src/per/dac.h **** 
  31:../../libDaisy//src/per/dac.h ****     /** Selects which channel(s) will be configured for use. */
  32:../../libDaisy//src/per/dac.h ****     enum class Channel
  33:../../libDaisy//src/per/dac.h ****     {
  34:../../libDaisy//src/per/dac.h ****         ONE,
  35:../../libDaisy//src/per/dac.h ****         TWO,
  36:../../libDaisy//src/per/dac.h ****         BOTH,
  37:../../libDaisy//src/per/dac.h ****     };
  38:../../libDaisy//src/per/dac.h **** 
  39:../../libDaisy//src/per/dac.h ****     /** Sets the Mode for the DAC channels.
  40:../../libDaisy//src/per/dac.h ****      **
  41:../../libDaisy//src/per/dac.h ****      ** Polling mode uses the blocking mode to transmit a single value at a time.
  42:../../libDaisy//src/per/dac.h ****      **
  43:../../libDaisy//src/per/dac.h ****      ** DMA mode uses a buffer, and periodically transmits it triggering a 
  44:../../libDaisy//src/per/dac.h ****      ** callback to fill the buffer when it is ready for more samples.
  45:../../libDaisy//src/per/dac.h ****      ***/
  46:../../libDaisy//src/per/dac.h ****     enum class Mode
  47:../../libDaisy//src/per/dac.h ****     {
  48:../../libDaisy//src/per/dac.h ****         POLLING,
  49:../../libDaisy//src/per/dac.h ****         DMA,
  50:../../libDaisy//src/per/dac.h ****     };
  51:../../libDaisy//src/per/dac.h **** 
  52:../../libDaisy//src/per/dac.h ****     /** Sets the number of bits per sample transmitted out of the DAC.
  53:../../libDaisy//src/per/dac.h ****      ** The output range will be: 0V - VDDA
  54:../../libDaisy//src/per/dac.h ****      ** The resolution will be roughly: bitdepth / (VDDA - 0V) 
  55:../../libDaisy//src/per/dac.h ****      ***/
  56:../../libDaisy//src/per/dac.h ****     enum class BitDepth
  57:../../libDaisy//src/per/dac.h ****     {
  58:../../libDaisy//src/per/dac.h ****         BITS_8,
  59:../../libDaisy//src/per/dac.h ****         BITS_12
  60:../../libDaisy//src/per/dac.h ****     };
  61:../../libDaisy//src/per/dac.h **** 
  62:../../libDaisy//src/per/dac.h ****     /** Sets whether the DAC output is buffered for higher drive ability. */
  63:../../libDaisy//src/per/dac.h ****     enum class BufferState
  64:../../libDaisy//src/per/dac.h ****     {
ARM GAS  /var/folders/fs/ht5wlc7s7b56r9p0ngl7ssgc0000gn/T//ccZCPiB8.s 			page 46


  65:../../libDaisy//src/per/dac.h ****         ENABLED,
  66:../../libDaisy//src/per/dac.h ****         DISABLED,
  67:../../libDaisy//src/per/dac.h ****     };
  68:../../libDaisy//src/per/dac.h **** 
  69:../../libDaisy//src/per/dac.h ****     /** Configuration structure for initializing the DAC structure. */
  70:../../libDaisy//src/per/dac.h ****     struct Config
  71:../../libDaisy//src/per/dac.h ****     {
  72:../../libDaisy//src/per/dac.h ****         /** Target Samplerate in Hz used to configure the internal 
  73:../../libDaisy//src/per/dac.h ****          ** timebase for DMA mode. Does nothing in POLLING mode.
  74:../../libDaisy//src/per/dac.h ****          ** If the value is 0 at Init time this will default to 48000Hz 
  75:../../libDaisy//src/per/dac.h ****          ** otherwise the driver will attempt meet the target.*/
  76:../../libDaisy//src/per/dac.h ****         uint32_t target_samplerate;
  77:../../libDaisy//src/per/dac.h **** 
  78:../../libDaisy//src/per/dac.h ****         Channel     chn;
  79:../../libDaisy//src/per/dac.h ****         Mode        mode;
  80:../../libDaisy//src/per/dac.h ****         BitDepth    bitdepth;
  81:../../libDaisy//src/per/dac.h ****         BufferState buff_state;
  82:../../libDaisy//src/per/dac.h ****     };
  83:../../libDaisy//src/per/dac.h **** 
  84:../../libDaisy//src/per/dac.h ****     DacHandle() : pimpl_(nullptr) {}
 1228              		.loc 20 84 5 is_stmt 1 view .LVU322
 1229              	.LBE425:
 1230              	.LBE431:
 1231              	.LBE433:
 1232              	.LBB434:
 1233              	.LBB435:
 1234              		.file 21 "../../libDaisy//src/dev/leddriver.h"
   1:../../libDaisy//src/dev/leddriver.h **** #pragma once
   2:../../libDaisy//src/dev/leddriver.h **** #ifndef SA_LED_DRIVER_H
   3:../../libDaisy//src/dev/leddriver.h **** #define SA_LED_DRIVER_H /**< & */
   4:../../libDaisy//src/dev/leddriver.h **** 
   5:../../libDaisy//src/dev/leddriver.h **** #ifdef __cplusplus
   6:../../libDaisy//src/dev/leddriver.h **** 
   7:../../libDaisy//src/dev/leddriver.h **** #include <stdint.h>
   8:../../libDaisy//src/dev/leddriver.h **** #include "per/i2c.h"
   9:../../libDaisy//src/dev/leddriver.h **** #include "per/gpio.h"
  10:../../libDaisy//src/dev/leddriver.h **** 
  11:../../libDaisy//src/dev/leddriver.h **** namespace daisy
  12:../../libDaisy//src/dev/leddriver.h **** {
  13:../../libDaisy//src/dev/leddriver.h **** /** LED driver for one or multiple PCA9685 12bit PWM chips connected to
  14:../../libDaisy//src/dev/leddriver.h ****  * a single I2C peripheral.
  15:../../libDaisy//src/dev/leddriver.h ****  * It includes gamma correction from 8bit brightness values but it 
  16:../../libDaisy//src/dev/leddriver.h ****  * can also be supplied with raw 12bit values.
  17:../../libDaisy//src/dev/leddriver.h ****  * This driver uses two buffers - one for drawing, one for transmitting.
  18:../../libDaisy//src/dev/leddriver.h ****  * Multiple LedDriverPca9685 instances can be used at the same time.
  19:../../libDaisy//src/dev/leddriver.h ****  * \param numDrivers    The number of PCA9685 driver attached to the I2C
  20:../../libDaisy//src/dev/leddriver.h ****  *                      peripheral.
  21:../../libDaisy//src/dev/leddriver.h ****  * \param persistentBufferContents If set to true, the current draw buffer 
  22:../../libDaisy//src/dev/leddriver.h ****  *                      contents will be copied to the next draw buffer 
  23:../../libDaisy//src/dev/leddriver.h ****  *                      during SwapBuffersAndTransmit(). Use this, if you plan
  24:../../libDaisy//src/dev/leddriver.h ****  *                      to write single leds at a time. 
  25:../../libDaisy//src/dev/leddriver.h ****  *                      If you will alway update all leds before calling 
  26:../../libDaisy//src/dev/leddriver.h ****  *                      SwapBuffersAndTransmit(), you can set this to false
  27:../../libDaisy//src/dev/leddriver.h ****  *                      and safe some cycles.
  28:../../libDaisy//src/dev/leddriver.h ****  * 
  29:../../libDaisy//src/dev/leddriver.h ****  *  @ingroup device
  30:../../libDaisy//src/dev/leddriver.h ****  */
ARM GAS  /var/folders/fs/ht5wlc7s7b56r9p0ngl7ssgc0000gn/T//ccZCPiB8.s 			page 47


  31:../../libDaisy//src/dev/leddriver.h **** template <int numDrivers, bool persistentBufferContents = true>
  32:../../libDaisy//src/dev/leddriver.h **** class LedDriverPca9685
 1235              		.loc 21 32 7 is_stmt 0 view .LVU323
 1236 0016 4FF40072 		mov	r2, #512
 1237              	.LBE435:
 1238              	.LBE434:
 1239              	.LBB441:
 1240              	.LBB432:
 1241              	.LBB428:
 1242              	.LBB426:
 1243              	.LBB427:
 1244              		.loc 20 84 33 view .LVU324
 1245 001a 2562     		str	r5, [r4, #32]
 1246              	.LVL85:
 1247              		.loc 20 84 33 view .LVU325
 1248              	.LBE427:
 1249              	.LBE426:
 1250              	.LBE428:
 1251              	.LBB429:
 1252              	.LBI429:
  40:../../libDaisy//src/hid/usb.h **** 
 1253              		.loc 8 40 5 is_stmt 1 view .LVU326
  40:../../libDaisy//src/hid/usb.h **** 
 1254              		.loc 8 40 5 is_stmt 0 view .LVU327
 1255              	.LBE429:
 1256              	.LBB430:
 1257              	.LBI430:
  77:../../libDaisy//src/sys/system.h ****     ~System() {}
 1258              		.loc 7 77 5 is_stmt 1 view .LVU328
  77:../../libDaisy//src/sys/system.h ****     ~System() {}
 1259              		.loc 7 77 5 is_stmt 0 view .LVU329
 1260              	.LBE430:
 1261              	.LBE432:
 1262              	.LBE441:
 1263              	.LBB442:
 1264              	.LBI442:
  20:../../libDaisy//src/hid/encoder.h ****     ~Encoder() {}
 1265              		.loc 4 20 5 is_stmt 1 view .LVU330
 1266              	.LBB443:
 1267              	.LBB444:
 1268              	.LBI444:
  41:../../libDaisy//src/hid/switch.h ****     ~Switch() {}
 1269              		.loc 5 41 5 view .LVU331
  41:../../libDaisy//src/hid/switch.h ****     ~Switch() {}
 1270              		.loc 5 41 5 is_stmt 0 view .LVU332
 1271              	.LBE444:
 1272              	.LBE443:
 1273              	.LBE442:
 1274              	.LBE447:
 1275              	.LBE450:
 1276              	.LBE471:
 1277              	.LBE475:
  66:../../libDaisy//src/daisy_petal.h ****     /** Destructor */
 1278              		.loc 3 66 18 is_stmt 1 view .LVU333
 1279              	.LBB476:
 1280              	.LBB472:
 1281              	.LBB451:
ARM GAS  /var/folders/fs/ht5wlc7s7b56r9p0ngl7ssgc0000gn/T//ccZCPiB8.s 			page 48


 1282              	.LBB448:
 1283              	.LBB445:
 1284              	.LBI445:
  21:../../libDaisy//src/hid/ctrl.h ****     /** destructor */
 1285              		.loc 2 21 5 view .LVU334
  21:../../libDaisy//src/hid/ctrl.h ****     /** destructor */
 1286              		.loc 2 21 5 is_stmt 0 view .LVU335
 1287              	.LBE445:
 1288              	.LBE448:
 1289              	.LBE451:
 1290              	.LBE472:
 1291              	.LBE476:
  66:../../libDaisy//src/daisy_petal.h ****     /** Destructor */
 1292              		.loc 3 66 18 is_stmt 1 view .LVU336
  66:../../libDaisy//src/daisy_petal.h ****     /** Destructor */
 1293              		.loc 3 66 18 view .LVU337
  66:../../libDaisy//src/daisy_petal.h ****     /** Destructor */
 1294              		.loc 3 66 18 view .LVU338
 1295              	.LBB477:
 1296              	.LBB473:
 1297              	.LBB452:
 1298              	.LBB449:
 1299              	.LBB446:
 1300              	.LBI434:
 1301              		.loc 21 32 7 view .LVU339
 1302              	.LBB440:
 1303              	.LBB436:
 1304              	.LBI436:
 1305              		.file 22 "../../libDaisy//src/per/i2c.h"
   1:../../libDaisy//src/per/i2c.h **** #pragma once
   2:../../libDaisy//src/per/i2c.h **** #include "daisy_core.h"
   3:../../libDaisy//src/per/i2c.h **** 
   4:../../libDaisy//src/per/i2c.h **** namespace daisy
   5:../../libDaisy//src/per/i2c.h **** {
   6:../../libDaisy//src/per/i2c.h **** /** A handle for interacting with an I2C peripheral. This is a dumb
   7:../../libDaisy//src/per/i2c.h ****  *  gateway that internally points to one of the four I2C peripherals
   8:../../libDaisy//src/per/i2c.h ****  *  after it was initialised. It can then be copied and passed around.
   9:../../libDaisy//src/per/i2c.h ****  *  Use an I2CHandle like this:
  10:../../libDaisy//src/per/i2c.h ****  *  
  11:../../libDaisy//src/per/i2c.h ****  *      // setup the configuration
  12:../../libDaisy//src/per/i2c.h ****  *      I2CHandle::Config i2c_conf;
  13:../../libDaisy//src/per/i2c.h ****  *      i2c_conf.periph = I2CHandle::Config::Peripheral::I2C_1;
  14:../../libDaisy//src/per/i2c.h ****  *      i2c_conf.speed  = I2CHandle::Config::Speed::I2C_400KHZ;
  15:../../libDaisy//src/per/i2c.h ****  *      i2c_conf.mode   = I2CHandle::Config::Mode::Master;
  16:../../libDaisy//src/per/i2c.h ****  *      i2c_conf.pin_config.scl  = {DSY_GPIOB, 8};
  17:../../libDaisy//src/per/i2c.h ****  *      i2c_conf.pin_config.sda  = {DSY_GPIOB, 9};
  18:../../libDaisy//src/per/i2c.h ****  *      // initialise the peripheral
  19:../../libDaisy//src/per/i2c.h ****  *      I2CHandle i2c;
  20:../../libDaisy//src/per/i2c.h ****  *      i2c.Init(i2c_conf);
  21:../../libDaisy//src/per/i2c.h ****  *      // now i2c points to the corresponding peripheral and can be used.
  22:../../libDaisy//src/per/i2c.h ****  *      i2c.TransmitBlocking( ... );
  23:../../libDaisy//src/per/i2c.h ****  */
  24:../../libDaisy//src/per/i2c.h **** class I2CHandle
  25:../../libDaisy//src/per/i2c.h **** {
  26:../../libDaisy//src/per/i2c.h ****   public:
  27:../../libDaisy//src/per/i2c.h ****     /** Contains settings for initialising an I2C interface. */
  28:../../libDaisy//src/per/i2c.h ****     struct Config
ARM GAS  /var/folders/fs/ht5wlc7s7b56r9p0ngl7ssgc0000gn/T//ccZCPiB8.s 			page 49


  29:../../libDaisy//src/per/i2c.h ****     {
  30:../../libDaisy//src/per/i2c.h ****         /** Specifies whether the interface will operate in master or slave mode. */
  31:../../libDaisy//src/per/i2c.h ****         enum class Mode
  32:../../libDaisy//src/per/i2c.h ****         {
  33:../../libDaisy//src/per/i2c.h ****             I2C_MASTER,
  34:../../libDaisy//src/per/i2c.h ****             I2C_SLAVE,
  35:../../libDaisy//src/per/i2c.h ****         };
  36:../../libDaisy//src/per/i2c.h **** 
  37:../../libDaisy//src/per/i2c.h ****         /** Specifices the internal peripheral to use (these are mapped to different pins on the ha
  38:../../libDaisy//src/per/i2c.h ****         enum class Peripheral
  39:../../libDaisy//src/per/i2c.h ****         {
  40:../../libDaisy//src/per/i2c.h ****             I2C_1 = 0, /**< & */
  41:../../libDaisy//src/per/i2c.h ****             I2C_2,     /**< & */
  42:../../libDaisy//src/per/i2c.h ****             I2C_3,     /**< & */
  43:../../libDaisy//src/per/i2c.h ****             I2C_4,     /**< & */
  44:../../libDaisy//src/per/i2c.h ****         };
  45:../../libDaisy//src/per/i2c.h **** 
  46:../../libDaisy//src/per/i2c.h ****         /** Rate at which the clock/data will be sent/received. The device being used will have max
  47:../../libDaisy//src/per/i2c.h ****          *  1MHZ Mode is currently 886kHz
  48:../../libDaisy//src/per/i2c.h ****          */
  49:../../libDaisy//src/per/i2c.h ****         enum class Speed
  50:../../libDaisy//src/per/i2c.h ****         {
  51:../../libDaisy//src/per/i2c.h ****             I2C_100KHZ, /**< & */
  52:../../libDaisy//src/per/i2c.h ****             I2C_400KHZ, /**< & */
  53:../../libDaisy//src/per/i2c.h ****             I2C_1MHZ,   /**< & */
  54:../../libDaisy//src/per/i2c.h ****         };
  55:../../libDaisy//src/per/i2c.h **** 
  56:../../libDaisy//src/per/i2c.h ****         Peripheral periph; /**< & */
  57:../../libDaisy//src/per/i2c.h ****         struct
  58:../../libDaisy//src/per/i2c.h ****         {
  59:../../libDaisy//src/per/i2c.h ****             dsy_gpio_pin scl; /**< & */
  60:../../libDaisy//src/per/i2c.h ****             dsy_gpio_pin sda; /**< & */
  61:../../libDaisy//src/per/i2c.h ****         } pin_config;         /**< & */
  62:../../libDaisy//src/per/i2c.h **** 
  63:../../libDaisy//src/per/i2c.h ****         Speed speed; /**< & */
  64:../../libDaisy//src/per/i2c.h ****         Mode  mode;  /**< & */
  65:../../libDaisy//src/per/i2c.h ****         // 0x10 is chosen as a default to avoid conflicts with reserved addresses
  66:../../libDaisy//src/per/i2c.h ****         uint8_t address = 0x10; /**< & */
  67:../../libDaisy//src/per/i2c.h ****     };
  68:../../libDaisy//src/per/i2c.h **** 
  69:../../libDaisy//src/per/i2c.h ****     /** Return values for I2C functions. */
  70:../../libDaisy//src/per/i2c.h ****     enum class Result
  71:../../libDaisy//src/per/i2c.h ****     {
  72:../../libDaisy//src/per/i2c.h ****         OK, /**< & */
  73:../../libDaisy//src/per/i2c.h ****         ERR /**< & */
  74:../../libDaisy//src/per/i2c.h ****     };
  75:../../libDaisy//src/per/i2c.h **** 
  76:../../libDaisy//src/per/i2c.h ****     enum class Direction
  77:../../libDaisy//src/per/i2c.h ****     {
  78:../../libDaisy//src/per/i2c.h ****         TRANSMIT, /**< & */
  79:../../libDaisy//src/per/i2c.h ****         RECEIVE,  /**< & */
  80:../../libDaisy//src/per/i2c.h ****     };
  81:../../libDaisy//src/per/i2c.h **** 
  82:../../libDaisy//src/per/i2c.h ****     I2CHandle() : pimpl_(nullptr) {}
 1306              		.loc 22 82 5 view .LVU340
 1307              	.LBE436:
 1308              		.loc 21 32 7 is_stmt 0 view .LVU341
ARM GAS  /var/folders/fs/ht5wlc7s7b56r9p0ngl7ssgc0000gn/T//ccZCPiB8.s 			page 50


 1309 001c 04F2DA40 		addw	r0, r4, #1242
 1310              	.LBB439:
 1311              	.LBB437:
 1312              	.LBB438:
 1313              		.loc 22 82 33 view .LVU342
 1314 0020 C4F8C454 		str	r5, [r4, #1220]
 1315              	.LVL86:
 1316              		.loc 22 82 33 view .LVU343
 1317              	.LBE438:
 1318              	.LBE437:
 1319              	.LBE439:
 1320              		.loc 21 32 7 view .LVU344
 1321 0024 2B49     		ldr	r1, .L63+16
 1322 0026 FFF7FEFF 		bl	memcpy
 1323              	.LVL87:
 1324              		.loc 21 32 7 view .LVU345
 1325              	.LBE440:
 1326              	.LBE446:
 1327              	.LBE449:
 1328              	.LBE452:
  16:Pedal.cpp     **** DaisyPetal hw;
 1329              		.loc 18 16 12 view .LVU346
 1330 002a 3246     		mov	r2, r6
 1331 002c 2A49     		ldr	r1, .L63+20
 1332 002e 2046     		mov	r0, r4
 1333 0030 FFF7FEFF 		bl	__aeabi_atexit
 1334              	.LVL88:
  17:Pedal.cpp     **** Delay delay;
 1335              		.loc 18 17 7 view .LVU347
 1336 0034 2948     		ldr	r0, .L63+24
 1337 0036 FFF7FEFF 		bl	_ZN5DelayC1Ev
 1338              	.LVL89:
 1339              	.LBB453:
 1340              	.LBI453:
  22:../../DaisySP//Source/Dynamics/balance.h ****     ~Balance() {}
 1341              		.loc 11 22 5 is_stmt 1 view .LVU348
  22:../../DaisySP//Source/Dynamics/balance.h ****     ~Balance() {}
 1342              		.loc 11 22 5 is_stmt 0 view .LVU349
 1343              	.LBE453:
  18:Pedal.cpp     **** Balance balance;
 1344              		.loc 18 18 9 view .LVU350
 1345 003a 3246     		mov	r2, r6
 1346 003c 2849     		ldr	r1, .L63+28
 1347 003e 2948     		ldr	r0, .L63+32
 1348              	.LBB454:
 1349              	.LBB455:
 1350              		.file 23 "TapTempo.h"
   1:TapTempo.h    **** /*
   2:TapTempo.h    ****  * Ported from https://github.com/dxinteractive/ArduinoTapTempo/tree/master 
   3:TapTempo.h    ****  * Info from original file below
   4:TapTempo.h    ****  * 
   5:TapTempo.h    ****  * An Arduino library that times consecutive button presses to calculate Beats Per Minute. Corrects
   6:TapTempo.h    ****  * Copyright (c) 2016 Damien Clarke
   7:TapTempo.h    ****  * 
   8:TapTempo.h    ****  * Permission is hereby granted, free of charge, to any person obtaining a copy
   9:TapTempo.h    ****  * of this software and associated documentation files (the "Software"), to deal
  10:TapTempo.h    ****  * in the Software without restriction, including without limitation the rights
ARM GAS  /var/folders/fs/ht5wlc7s7b56r9p0ngl7ssgc0000gn/T//ccZCPiB8.s 			page 51


  11:TapTempo.h    ****  * to use, copy, modify, merge, publish, distribute, sublicense, and/or sell
  12:TapTempo.h    ****  * copies of the Software, and to permit persons to whom the Software is
  13:TapTempo.h    ****  * furnished to do so, subject to the following conditions:
  14:TapTempo.h    ****  * 
  15:TapTempo.h    ****  * The above copyright notice and this permission notice shall be included in all
  16:TapTempo.h    ****  * copies or substantial portions of the Software.
  17:TapTempo.h    ****  * 
  18:TapTempo.h    ****  * THE SOFTWARE IS PROVIDED "AS IS", WITHOUT WARRANTY OF ANY KIND, EXPRESS OR
  19:TapTempo.h    ****  * IMPLIED, INCLUDING BUT NOT LIMITED TO THE WARRANTIES OF MERCHANTABILITY,
  20:TapTempo.h    ****  * FITNESS FOR A PARTICULAR PURPOSE AND NONINFRINGEMENT. IN NO EVENT SHALL THE
  21:TapTempo.h    ****  * AUTHORS OR COPYRIGHT HOLDERS BE LIABLE FOR ANY CLAIM, DAMAGES OR OTHER
  22:TapTempo.h    ****  * LIABILITY, WHETHER IN AN ACTION OF CONTRACT, TORT OR OTHERWISE, ARISING FROM,
  23:TapTempo.h    ****  * OUT OF OR IN CONNECTION WITH THE SOFTWARE OR THE USE OR OTHER DEALINGS IN THE
  24:TapTempo.h    ****  * SOFTWARE.  
  25:TapTempo.h    ****  */
  26:TapTempo.h    ****  
  27:TapTempo.h    **** #ifndef TAP_TEMPO_H
  28:TapTempo.h    **** #define TAP_TEMPO_H
  29:TapTempo.h    **** #include <math.h>
  30:TapTempo.h    **** #include "daisy_seed.h"
  31:TapTempo.h    **** 
  32:TapTempo.h    **** class TapTempo
 1351              		.loc 23 32 7 view .LVU351
 1352 0040 294C     		ldr	r4, .L63+36
 1353              	.LBE455:
 1354              	.LBE454:
  18:Pedal.cpp     **** Balance balance;
 1355              		.loc 18 18 9 view .LVU352
 1356 0042 FFF7FEFF 		bl	__aeabi_atexit
 1357              	.LVL90:
 1358              	.LBB460:
 1359              	.LBI454:
 1360              		.loc 23 32 7 is_stmt 1 view .LVU353
 1361              	.LBB456:
 1362 0046 294B     		ldr	r3, .L63+40
 1363 0048 0321     		movs	r1, #3
 1364 004a 294A     		ldr	r2, .L63+44
 1365 004c 2361     		str	r3, [r4, #16]	@ float
 1366 004e 4FF4FA73 		mov	r3, #500
 1367 0052 6261     		str	r2, [r4, #20]	@ float
 1368 0054 4FF4FA62 		mov	r2, #2000
 1369 0058 6362     		str	r3, [r4, #36]
 1370 005a FA23     		movs	r3, #250
 1371 005c 2576     		strb	r5, [r4, #24]
 1372              	.LBE456:
 1373              	.LBE460:
  20:Pedal.cpp     **** ToneFilter tone(48000.f);
 1374              		.loc 18 20 24 is_stmt 0 view .LVU354
 1375 005e 254F     		ldr	r7, .L63+48
 1376              	.LBB461:
 1377              	.LBB457:
 1378              		.loc 23 32 7 view .LVU355
 1379 0060 C4E90023 		strd	r2, r3, [r4]
 1380 0064 0823     		movs	r3, #8
 1381 0066 C4E90755 		strd	r5, r5, [r4, #28]
 1382 006a C4E90213 		strd	r1, r3, [r4, #8]
 1383 006e FFF7FEFF 		bl	_ZN5daisy6System6GetNowEv
ARM GAS  /var/folders/fs/ht5wlc7s7b56r9p0ngl7ssgc0000gn/T//ccZCPiB8.s 			page 52


 1384              	.LVL91:
 1385 0072 0123     		movs	r3, #1
 1386              	.LBE457:
 1387              	.LBE461:
  20:Pedal.cpp     **** ToneFilter tone(48000.f);
 1388              		.loc 18 20 24 view .LVU356
 1389 0074 9FED200A 		vldr.32	s0, .L63+52
 1390              	.LBB462:
 1391              	.LBB458:
 1392              		.loc 23 32 7 view .LVU357
 1393 0078 A4F86030 		strh	r3, [r4, #96]	@ movhi
 1394              	.LVL92:
 1395              		.loc 23 32 7 view .LVU358
 1396 007c E562     		str	r5, [r4, #44]
 1397 007e A565     		str	r5, [r4, #88]
 1398 0080 A062     		str	r0, [r4, #40]
 1399              	.LBE458:
 1400              	.LBE462:
  20:Pedal.cpp     **** ToneFilter tone(48000.f);
 1401              		.loc 18 20 24 view .LVU359
 1402 0082 3846     		mov	r0, r7
 1403              	.LBB463:
 1404              	.LBB459:
 1405              		.loc 23 32 7 view .LVU360
 1406 0084 E565     		str	r5, [r4, #92]
 1407              	.LBE459:
 1408              	.LBE463:
  20:Pedal.cpp     **** ToneFilter tone(48000.f);
 1409              		.loc 18 20 24 view .LVU361
 1410 0086 FFF7FEFF 		bl	_ZN10ToneFilterC1Ef
 1411              	.LVL93:
  20:Pedal.cpp     **** ToneFilter tone(48000.f);
 1412              		.loc 18 20 12 view .LVU362
 1413 008a 3246     		mov	r2, r6
 1414 008c 1B49     		ldr	r1, .L63+56
 1415 008e 3846     		mov	r0, r7
 1416 0090 FFF7FEFF 		bl	__aeabi_atexit
 1417              	.LVL94:
 1418              	.LBB464:
 1419              	.LBI464:
  36:../../DaisySP//Source/Dynamics/crossfade.h ****     ~CrossFade() {}
 1420              		.loc 12 36 5 is_stmt 1 view .LVU363
  36:../../DaisySP//Source/Dynamics/crossfade.h ****     ~CrossFade() {}
 1421              		.loc 12 36 5 is_stmt 0 view .LVU364
 1422              	.LBE464:
  25:Pedal.cpp     **** Parameter toneParam;
 1423              		.loc 18 25 11 view .LVU365
 1424 0094 1A4C     		ldr	r4, .L63+60
  21:Pedal.cpp     **** static CrossFade crossFade;
 1425              		.loc 18 21 18 view .LVU366
 1426 0096 3246     		mov	r2, r6
 1427 0098 1A49     		ldr	r1, .L63+64
 1428 009a 1B48     		ldr	r0, .L63+68
 1429 009c FFF7FEFF 		bl	__aeabi_atexit
 1430              	.LVL95:
  22:Pedal.cpp     **** DelayLine<float, MAX_DELAY> DSY_SDRAM_BSS delayMems[4];
 1431              		.loc 18 22 54 is_stmt 1 view .LVU367
ARM GAS  /var/folders/fs/ht5wlc7s7b56r9p0ngl7ssgc0000gn/T//ccZCPiB8.s 			page 53


  22:Pedal.cpp     **** DelayLine<float, MAX_DELAY> DSY_SDRAM_BSS delayMems[4];
 1432              		.loc 18 22 43 is_stmt 0 view .LVU368
 1433 00a0 3246     		mov	r2, r6
 1434 00a2 1A49     		ldr	r1, .L63+72
 1435 00a4 2846     		mov	r0, r5
 1436 00a6 FFF7FEFF 		bl	__aeabi_atexit
 1437              	.LVL96:
 1438              	.LBB465:
 1439              	.LBI465:
  25:../../libDaisy//src/hid/parameter.h ****     /** Destructor */
 1440              		.loc 1 25 5 is_stmt 1 view .LVU369
 1441              	.LBB466:
 1442              	.LBB467:
 1443              	.LBI467:
  21:../../libDaisy//src/hid/ctrl.h ****     /** destructor */
 1444              		.loc 2 21 5 view .LVU370
  21:../../libDaisy//src/hid/ctrl.h ****     /** destructor */
 1445              		.loc 2 21 5 is_stmt 0 view .LVU371
 1446              	.LBE467:
 1447              	.LBE466:
 1448              	.LBE465:
  25:Pedal.cpp     **** Parameter toneParam;
 1449              		.loc 18 25 11 view .LVU372
 1450 00aa 3246     		mov	r2, r6
 1451 00ac 2146     		mov	r1, r4
 1452 00ae 1848     		ldr	r0, .L63+76
 1453 00b0 FFF7FEFF 		bl	__aeabi_atexit
 1454              	.LVL97:
 1455              	.LBB468:
 1456              	.LBI468:
  25:../../libDaisy//src/hid/parameter.h ****     /** Destructor */
 1457              		.loc 1 25 5 is_stmt 1 view .LVU373
 1458              	.LBB469:
 1459              	.LBB470:
 1460              	.LBI470:
  21:../../libDaisy//src/hid/ctrl.h ****     /** destructor */
 1461              		.loc 2 21 5 view .LVU374
  21:../../libDaisy//src/hid/ctrl.h ****     /** destructor */
 1462              		.loc 2 21 5 is_stmt 0 view .LVU375
 1463              	.LBE470:
 1464              	.LBE469:
 1465              	.LBE468:
  26:Pedal.cpp     **** Parameter bpmParam;
 1466              		.loc 18 26 11 view .LVU376
 1467 00b4 3246     		mov	r2, r6
 1468 00b6 2146     		mov	r1, r4
 1469 00b8 1648     		ldr	r0, .L63+80
 1470              	.LBE473:
 1471              	.LBE477:
 1472              		.loc 18 167 1 view .LVU377
 1473 00ba BDE8F840 		pop	{r3, r4, r5, r6, r7, lr}
 1474              		.cfi_restore 14
 1475              		.cfi_restore 7
 1476              		.cfi_restore 6
 1477              		.cfi_restore 5
 1478              		.cfi_restore 4
 1479              		.cfi_restore 3
ARM GAS  /var/folders/fs/ht5wlc7s7b56r9p0ngl7ssgc0000gn/T//ccZCPiB8.s 			page 54


 1480              		.cfi_def_cfa_offset 0
 1481              	.LBB478:
 1482              	.LBB474:
  26:Pedal.cpp     **** Parameter bpmParam;
 1483              		.loc 18 26 11 view .LVU378
 1484 00be FFF7FEBF 		b	__aeabi_atexit
 1485              	.LVL98:
 1486              	.L64:
 1487 00c2 00BF     		.align	2
 1488              	.L63:
 1489 00c4 00000000 		.word	__dso_handle
 1490 00c8 00000000 		.word	.LANCHOR0
 1491 00cc 00000000 		.word	_ZN7daisysp7TremoloD1Ev
 1492 00d0 00000000 		.word	.LANCHOR6
 1493 00d4 00000000 		.word	.LANCHOR14
 1494 00d8 00000000 		.word	_ZN5daisy10DaisyPetalD1Ev
 1495 00dc 00000000 		.word	.LANCHOR3
 1496 00e0 00000000 		.word	_ZN7daisysp7BalanceD1Ev
 1497 00e4 00000000 		.word	.LANCHOR5
 1498 00e8 00000000 		.word	.LANCHOR8
 1499 00ec 0000E03F 		.word	1071644672
 1500 00f0 00003040 		.word	1076887552
 1501 00f4 00000000 		.word	.LANCHOR12
 1502 00f8 00803B47 		.word	1195081728
 1503 00fc 00000000 		.word	_ZN10ToneFilterD1Ev
 1504 0100 00000000 		.word	_ZN5daisy9ParameterD1Ev
 1505 0104 00000000 		.word	_ZN7daisysp9CrossFadeD1Ev
 1506 0108 00000000 		.word	.LANCHOR4
 1507 010c 00000000 		.word	__tcf_0
 1508 0110 00000000 		.word	.LANCHOR1
 1509 0114 00000000 		.word	.LANCHOR2
 1510              	.LBE474:
 1511              	.LBE478:
 1512              		.cfi_endproc
 1513              	.LFE5401:
 1515              		.section	.init_array,"aw",%init_array
 1516              		.align	2
 1517 0000 00000000 		.word	_GLOBAL__sub_I_tremelo(target1)
 1518              		.global	bpm
 1519              		.global	toneVal
 1520              		.global	feedback
 1521              		.global	dryWet
 1522              		.global	bypass
 1523              		.global	bpmParam
 1524              		.global	toneParam
 1525              		.global	delayMems
 1526              		.global	tone
 1527              		.global	tapTempo
 1528              		.global	balance
 1529              		.global	delay
 1530              		.global	hw
 1531              		.global	tremelo
 1532              		.section	.rodata
 1533              		.align	2
 1534              		.set	.LANCHOR14,. + 0
 1535              	.LC0:
 1536 0000 0000     		.short	0
ARM GAS  /var/folders/fs/ht5wlc7s7b56r9p0ngl7ssgc0000gn/T//ccZCPiB8.s 			page 55


 1537 0002 0100     		.short	1
 1538 0004 0100     		.short	1
 1539 0006 0100     		.short	1
 1540 0008 0100     		.short	1
 1541 000a 0100     		.short	1
 1542 000c 0100     		.short	1
 1543 000e 0100     		.short	1
 1544 0010 0100     		.short	1
 1545 0012 0100     		.short	1
 1546 0014 0100     		.short	1
 1547 0016 0100     		.short	1
 1548 0018 0200     		.short	2
 1549 001a 0200     		.short	2
 1550 001c 0200     		.short	2
 1551 001e 0200     		.short	2
 1552 0020 0200     		.short	2
 1553 0022 0200     		.short	2
 1554 0024 0200     		.short	2
 1555 0026 0300     		.short	3
 1556 0028 0300     		.short	3
 1557 002a 0400     		.short	4
 1558 002c 0400     		.short	4
 1559 002e 0500     		.short	5
 1560 0030 0500     		.short	5
 1561 0032 0600     		.short	6
 1562 0034 0700     		.short	7
 1563 0036 0800     		.short	8
 1564 0038 0800     		.short	8
 1565 003a 0900     		.short	9
 1566 003c 0A00     		.short	10
 1567 003e 0B00     		.short	11
 1568 0040 0C00     		.short	12
 1569 0042 0D00     		.short	13
 1570 0044 0F00     		.short	15
 1571 0046 1000     		.short	16
 1572 0048 1100     		.short	17
 1573 004a 1200     		.short	18
 1574 004c 1400     		.short	20
 1575 004e 1500     		.short	21
 1576 0050 1700     		.short	23
 1577 0052 1900     		.short	25
 1578 0054 1A00     		.short	26
 1579 0056 1C00     		.short	28
 1580 0058 1E00     		.short	30
 1581 005a 2000     		.short	32
 1582 005c 2200     		.short	34
 1583 005e 2400     		.short	36
 1584 0060 2600     		.short	38
 1585 0062 2800     		.short	40
 1586 0064 2B00     		.short	43
 1587 0066 2D00     		.short	45
 1588 0068 3000     		.short	48
 1589 006a 3200     		.short	50
 1590 006c 3500     		.short	53
 1591 006e 3800     		.short	56
 1592 0070 3B00     		.short	59
 1593 0072 3E00     		.short	62
ARM GAS  /var/folders/fs/ht5wlc7s7b56r9p0ngl7ssgc0000gn/T//ccZCPiB8.s 			page 56


 1594 0074 4100     		.short	65
 1595 0076 4400     		.short	68
 1596 0078 4700     		.short	71
 1597 007a 4B00     		.short	75
 1598 007c 4E00     		.short	78
 1599 007e 5200     		.short	82
 1600 0080 5500     		.short	85
 1601 0082 5900     		.short	89
 1602 0084 5D00     		.short	93
 1603 0086 6100     		.short	97
 1604 0088 6500     		.short	101
 1605 008a 6900     		.short	105
 1606 008c 6E00     		.short	110
 1607 008e 7200     		.short	114
 1608 0090 7700     		.short	119
 1609 0092 7B00     		.short	123
 1610 0094 8000     		.short	128
 1611 0096 8500     		.short	133
 1612 0098 8A00     		.short	138
 1613 009a 8F00     		.short	143
 1614 009c 9500     		.short	149
 1615 009e 9A00     		.short	154
 1616 00a0 9F00     		.short	159
 1617 00a2 A500     		.short	165
 1618 00a4 AB00     		.short	171
 1619 00a6 B100     		.short	177
 1620 00a8 B700     		.short	183
 1621 00aa BD00     		.short	189
 1622 00ac C300     		.short	195
 1623 00ae CA00     		.short	202
 1624 00b0 D000     		.short	208
 1625 00b2 D700     		.short	215
 1626 00b4 DE00     		.short	222
 1627 00b6 E500     		.short	229
 1628 00b8 EC00     		.short	236
 1629 00ba F300     		.short	243
 1630 00bc FA00     		.short	250
 1631 00be 0201     		.short	258
 1632 00c0 0A01     		.short	266
 1633 00c2 1101     		.short	273
 1634 00c4 1901     		.short	281
 1635 00c6 2201     		.short	290
 1636 00c8 2A01     		.short	298
 1637 00ca 3201     		.short	306
 1638 00cc 3B01     		.short	315
 1639 00ce 4401     		.short	324
 1640 00d0 4C01     		.short	332
 1641 00d2 5501     		.short	341
 1642 00d4 5F01     		.short	351
 1643 00d6 6801     		.short	360
 1644 00d8 7101     		.short	369
 1645 00da 7B01     		.short	379
 1646 00dc 8501     		.short	389
 1647 00de 8F01     		.short	399
 1648 00e0 9901     		.short	409
 1649 00e2 A301     		.short	419
 1650 00e4 AE01     		.short	430
ARM GAS  /var/folders/fs/ht5wlc7s7b56r9p0ngl7ssgc0000gn/T//ccZCPiB8.s 			page 57


 1651 00e6 B801     		.short	440
 1652 00e8 C301     		.short	451
 1653 00ea CE01     		.short	462
 1654 00ec D901     		.short	473
 1655 00ee E501     		.short	485
 1656 00f0 F001     		.short	496
 1657 00f2 FC01     		.short	508
 1658 00f4 0802     		.short	520
 1659 00f6 1402     		.short	532
 1660 00f8 2002     		.short	544
 1661 00fa 2C02     		.short	556
 1662 00fc 3902     		.short	569
 1663 00fe 4602     		.short	582
 1664 0100 5202     		.short	594
 1665 0102 6002     		.short	608
 1666 0104 6D02     		.short	621
 1667 0106 7A02     		.short	634
 1668 0108 8802     		.short	648
 1669 010a 9602     		.short	662
 1670 010c A402     		.short	676
 1671 010e B202     		.short	690
 1672 0110 C002     		.short	704
 1673 0112 CF02     		.short	719
 1674 0114 DE02     		.short	734
 1675 0116 ED02     		.short	749
 1676 0118 FC02     		.short	764
 1677 011a 0B03     		.short	779
 1678 011c 1B03     		.short	795
 1679 011e 2B03     		.short	811
 1680 0120 3B03     		.short	827
 1681 0122 4B03     		.short	843
 1682 0124 5B03     		.short	859
 1683 0126 6C03     		.short	876
 1684 0128 7D03     		.short	893
 1685 012a 8E03     		.short	910
 1686 012c 9F03     		.short	927
 1687 012e B003     		.short	944
 1688 0130 C203     		.short	962
 1689 0132 D403     		.short	980
 1690 0134 E603     		.short	998
 1691 0136 F803     		.short	1016
 1692 0138 0A04     		.short	1034
 1693 013a 1D04     		.short	1053
 1694 013c 3004     		.short	1072
 1695 013e 4304     		.short	1091
 1696 0140 5604     		.short	1110
 1697 0142 6A04     		.short	1130
 1698 0144 7E04     		.short	1150
 1699 0146 9204     		.short	1170
 1700 0148 A604     		.short	1190
 1701 014a BA04     		.short	1210
 1702 014c CF04     		.short	1231
 1703 014e E404     		.short	1252
 1704 0150 F904     		.short	1273
 1705 0152 0E05     		.short	1294
 1706 0154 2405     		.short	1316
 1707 0156 3A05     		.short	1338
ARM GAS  /var/folders/fs/ht5wlc7s7b56r9p0ngl7ssgc0000gn/T//ccZCPiB8.s 			page 58


 1708 0158 5005     		.short	1360
 1709 015a 6605     		.short	1382
 1710 015c 7C05     		.short	1404
 1711 015e 9305     		.short	1427
 1712 0160 AA05     		.short	1450
 1713 0162 C105     		.short	1473
 1714 0164 D905     		.short	1497
 1715 0166 F005     		.short	1520
 1716 0168 0806     		.short	1544
 1717 016a 2006     		.short	1568
 1718 016c 3906     		.short	1593
 1719 016e 5106     		.short	1617
 1720 0170 6A06     		.short	1642
 1721 0172 8306     		.short	1667
 1722 0174 9D06     		.short	1693
 1723 0176 B606     		.short	1718
 1724 0178 D006     		.short	1744
 1725 017a EA06     		.short	1770
 1726 017c 0507     		.short	1797
 1727 017e 1F07     		.short	1823
 1728 0180 3A07     		.short	1850
 1729 0182 5507     		.short	1877
 1730 0184 7107     		.short	1905
 1731 0186 8C07     		.short	1932
 1732 0188 A807     		.short	1960
 1733 018a C407     		.short	1988
 1734 018c E107     		.short	2017
 1735 018e FD07     		.short	2045
 1736 0190 1A08     		.short	2074
 1737 0192 3708     		.short	2103
 1738 0194 5508     		.short	2133
 1739 0196 7208     		.short	2162
 1740 0198 9008     		.short	2192
 1741 019a AF08     		.short	2223
 1742 019c CD08     		.short	2253
 1743 019e EC08     		.short	2284
 1744 01a0 0B09     		.short	2315
 1745 01a2 2A09     		.short	2346
 1746 01a4 4A09     		.short	2378
 1747 01a6 6A09     		.short	2410
 1748 01a8 8A09     		.short	2442
 1749 01aa AA09     		.short	2474
 1750 01ac CB09     		.short	2507
 1751 01ae EC09     		.short	2540
 1752 01b0 0D0A     		.short	2573
 1753 01b2 2E0A     		.short	2606
 1754 01b4 500A     		.short	2640
 1755 01b6 720A     		.short	2674
 1756 01b8 940A     		.short	2708
 1757 01ba B70A     		.short	2743
 1758 01bc DA0A     		.short	2778
 1759 01be FD0A     		.short	2813
 1760 01c0 210B     		.short	2849
 1761 01c2 440B     		.short	2884
 1762 01c4 680B     		.short	2920
 1763 01c6 8D0B     		.short	2957
 1764 01c8 B10B     		.short	2993
ARM GAS  /var/folders/fs/ht5wlc7s7b56r9p0ngl7ssgc0000gn/T//ccZCPiB8.s 			page 59


 1765 01ca D60B     		.short	3030
 1766 01cc FB0B     		.short	3067
 1767 01ce 210C     		.short	3105
 1768 01d0 470C     		.short	3143
 1769 01d2 6D0C     		.short	3181
 1770 01d4 930C     		.short	3219
 1771 01d6 BA0C     		.short	3258
 1772 01d8 E10C     		.short	3297
 1773 01da 080D     		.short	3336
 1774 01dc 300D     		.short	3376
 1775 01de 580D     		.short	3416
 1776 01e0 800D     		.short	3456
 1777 01e2 A80D     		.short	3496
 1778 01e4 D10D     		.short	3537
 1779 01e6 FA0D     		.short	3578
 1780 01e8 230E     		.short	3619
 1781 01ea 4D0E     		.short	3661
 1782 01ec 770E     		.short	3703
 1783 01ee A10E     		.short	3745
 1784 01f0 CC0E     		.short	3788
 1785 01f2 F70E     		.short	3831
 1786 01f4 220F     		.short	3874
 1787 01f6 4E0F     		.short	3918
 1788 01f8 7A0F     		.short	3962
 1789 01fa A60F     		.short	4006
 1790 01fc D20F     		.short	4050
 1791 01fe FF0F     		.short	4095
 1792              		.section	.bss._ZL9crossFade,"aw",%nobits
 1793              		.align	2
 1794              		.set	.LANCHOR4,. + 0
 1797              	_ZL9crossFade:
 1798 0000 00000000 		.space	8
 1798      00000000 
 1799              		.section	.bss.balance,"aw",%nobits
 1800              		.align	2
 1801              		.set	.LANCHOR5,. + 0
 1804              	balance:
 1805 0000 00000000 		.space	28
 1805      00000000 
 1805      00000000 
 1805      00000000 
 1805      00000000 
 1806              		.section	.bss.bpm,"aw",%nobits
 1807              		.align	2
 1808              		.set	.LANCHOR13,. + 0
 1811              	bpm:
 1812 0000 00000000 		.space	4
 1813              		.section	.bss.bpmParam,"aw",%nobits
 1814              		.align	2
 1815              		.set	.LANCHOR2,. + 0
 1818              	bpmParam:
 1819 0000 00000000 		.space	56
 1819      00000000 
 1819      00000000 
 1819      00000000 
 1819      00000000 
 1820              		.section	.bss.delay,"aw",%nobits
ARM GAS  /var/folders/fs/ht5wlc7s7b56r9p0ngl7ssgc0000gn/T//ccZCPiB8.s 			page 60


 1821              		.align	2
 1822              		.set	.LANCHOR3,. + 0
 1825              	delay:
 1826 0000 00000000 		.space	92
 1826      00000000 
 1826      00000000 
 1826      00000000 
 1826      00000000 
 1827              		.section	.bss.dryWet,"aw",%nobits
 1828              		.align	2
 1829              		.set	.LANCHOR9,. + 0
 1832              	dryWet:
 1833 0000 00000000 		.space	4
 1834              		.section	.bss.feedback,"aw",%nobits
 1835              		.align	2
 1836              		.set	.LANCHOR10,. + 0
 1839              	feedback:
 1840 0000 00000000 		.space	4
 1841              		.section	.bss.hw,"aw",%nobits
 1842              		.align	2
 1843              		.set	.LANCHOR0,. + 0
 1846              	hw:
 1847 0000 00000000 		.space	1756
 1847      00000000 
 1847      00000000 
 1847      00000000 
 1847      00000000 
 1848              		.section	.bss.tapTempo,"aw",%nobits
 1849              		.align	2
 1850              		.set	.LANCHOR8,. + 0
 1853              	tapTempo:
 1854 0000 00000000 		.space	100
 1854      00000000 
 1854      00000000 
 1854      00000000 
 1854      00000000 
 1855              		.section	.bss.tone,"aw",%nobits
 1856              		.align	2
 1857              		.set	.LANCHOR12,. + 0
 1860              	tone:
 1861 0000 00000000 		.space	60
 1861      00000000 
 1861      00000000 
 1861      00000000 
 1861      00000000 
 1862              		.section	.bss.toneParam,"aw",%nobits
 1863              		.align	2
 1864              		.set	.LANCHOR1,. + 0
 1867              	toneParam:
 1868 0000 00000000 		.space	56
 1868      00000000 
 1868      00000000 
 1868      00000000 
 1868      00000000 
 1869              		.section	.bss.toneVal,"aw",%nobits
 1870              		.align	2
 1871              		.set	.LANCHOR11,. + 0
ARM GAS  /var/folders/fs/ht5wlc7s7b56r9p0ngl7ssgc0000gn/T//ccZCPiB8.s 			page 61


 1874              	toneVal:
 1875 0000 00000000 		.space	4
 1876              		.section	.bss.tremelo,"aw",%nobits
 1877              		.align	2
 1878              		.set	.LANCHOR6,. + 0
 1881              	tremelo:
 1882 0000 00000000 		.space	56
 1882      00000000 
 1882      00000000 
 1882      00000000 
 1882      00000000 
 1883              		.section	.data.bypass,"aw"
 1884              		.set	.LANCHOR7,. + 0
 1887              	bypass:
 1888 0000 01       		.byte	1
 1889              		.section	.sdram_bss,"aw"
 1890              		.align	2
 1893              	delayMems:
 1894 0000 00000000 		.space	1536048
 1894      00000000 
 1894      00000000 
 1894      00000000 
 1894      00000000 
 1895              		.text
 1896              	.Letext0:
 1897              		.file 24 "/Library/DaisyToolchain/0.2.0/arm/arm-none-eabi/include/machine/_default_types.h"
 1898              		.file 25 "/Library/DaisyToolchain/0.2.0/arm/arm-none-eabi/include/sys/_stdint.h"
 1899              		.file 26 "/Library/DaisyToolchain/0.2.0/arm/arm-none-eabi/include/stdint.h"
 1900              		.file 27 "/Library/DaisyToolchain/0.2.0/arm/lib/gcc/arm-none-eabi/10.3.1/include/stddef.h"
 1901              		.file 28 "/Library/DaisyToolchain/0.2.0/arm/arm-none-eabi/include/c++/10.3.1/cmath"
 1902              		.file 29 "/Library/DaisyToolchain/0.2.0/arm/arm-none-eabi/include/c++/10.3.1/bits/std_abs.h"
 1903              		.file 30 "/Library/DaisyToolchain/0.2.0/arm/arm-none-eabi/include/c++/10.3.1/cstdlib"
 1904              		.file 31 "/Library/DaisyToolchain/0.2.0/arm/arm-none-eabi/include/c++/10.3.1/cstdint"
 1905              		.file 32 "/Library/DaisyToolchain/0.2.0/arm/arm-none-eabi/include/c++/10.3.1/type_traits"
 1906              		.file 33 "/Library/DaisyToolchain/0.2.0/arm/arm-none-eabi/include/c++/10.3.1/debug/debug.h"
 1907              		.file 34 "/Library/DaisyToolchain/0.2.0/arm/arm-none-eabi/include/c++/10.3.1/arm-none-eabi/thumb/v
 1908              		.file 35 "/Library/DaisyToolchain/0.2.0/arm/arm-none-eabi/include/c++/10.3.1/bits/algorithmfwd.h"
 1909              		.file 36 "/Library/DaisyToolchain/0.2.0/arm/arm-none-eabi/include/c++/10.3.1/bits/stl_pair.h"
 1910              		.file 37 "/Library/DaisyToolchain/0.2.0/arm/arm-none-eabi/include/c++/10.3.1/bits/exception_ptr.h"
 1911              		.file 38 "/Library/DaisyToolchain/0.2.0/arm/arm-none-eabi/include/c++/10.3.1/cstdarg"
 1912              		.file 39 "/Library/DaisyToolchain/0.2.0/arm/arm-none-eabi/include/c++/10.3.1/cstdio"
 1913              		.file 40 "/Library/DaisyToolchain/0.2.0/arm/arm-none-eabi/include/c++/10.3.1/cstring"
 1914              		.file 41 "/Library/DaisyToolchain/0.2.0/arm/arm-none-eabi/include/c++/10.3.1/cwchar"
 1915              		.file 42 "/Library/DaisyToolchain/0.2.0/arm/arm-none-eabi/include/c++/10.3.1/clocale"
 1916              		.file 43 "/Library/DaisyToolchain/0.2.0/arm/arm-none-eabi/include/c++/10.3.1/bits/basic_string.h"
 1917              		.file 44 "/Library/DaisyToolchain/0.2.0/arm/arm-none-eabi/include/c++/10.3.1/bits/stl_iterator.h"
 1918              		.file 45 "/Library/DaisyToolchain/0.2.0/arm/arm-none-eabi/include/c++/10.3.1/bits/predefined_ops.h
 1919              		.file 46 "/Library/DaisyToolchain/0.2.0/arm/arm-none-eabi/include/sys/_types.h"
 1920              		.file 47 "/Library/DaisyToolchain/0.2.0/arm/arm-none-eabi/include/sys/reent.h"
 1921              		.file 48 "/Library/DaisyToolchain/0.2.0/arm/arm-none-eabi/include/sys/lock.h"
 1922              		.file 49 "/Library/DaisyToolchain/0.2.0/arm/arm-none-eabi/include/math.h"
 1923              		.file 50 "/Library/DaisyToolchain/0.2.0/arm/arm-none-eabi/include/stdlib.h"
 1924              		.file 51 "/Library/DaisyToolchain/0.2.0/arm/arm-none-eabi/include/c++/10.3.1/math.h"
 1925              		.file 52 "/Library/DaisyToolchain/0.2.0/arm/arm-none-eabi/include/c++/10.3.1/stdlib.h"
 1926              		.file 53 "../../libDaisy//src/daisy_core.h"
 1927              		.file 54 "../../libDaisy//src/per/tim.h"
 1928              		.file 55 "../../libDaisy//src/per/sai.h"
ARM GAS  /var/folders/fs/ht5wlc7s7b56r9p0ngl7ssgc0000gn/T//ccZCPiB8.s 			page 62


 1929              		.file 56 "../../libDaisy//src/util/wav_format.h"
 1930              		.file 57 "../../libDaisy//src/hid/led.h"
 1931              		.file 58 "../../libDaisy//src/util/color.h"
 1932              		.file 59 "../../libDaisy//src/hid/rgb_led.h"
 1933              		.file 60 "../../libDaisy//src/dev/max11300.h"
 1934              		.file 61 "../../libDaisy//src/per/gpio.h"
 1935              		.file 62 "../../libDaisy//src/dev/sdram.h"
 1936              		.file 63 "/Library/DaisyToolchain/0.2.0/arm/lib/gcc/arm-none-eabi/10.3.1/include/stdarg.h"
 1937              		.file 64 "/Library/DaisyToolchain/0.2.0/arm/arm-none-eabi/include/stdio.h"
 1938              		.file 65 "/Library/DaisyToolchain/0.2.0/arm/arm-none-eabi/include/string.h"
 1939              		.file 66 "../../DaisySP//Source/Control/adenv.h"
 1940              		.file 67 "../../DaisySP//Source/Utility/dsp.h"
 1941              		.file 68 "../../DaisySP//Source/Utility/delayline.h"
 1942              		.file 69 "delayline_reverse.h"
 1943              		.file 70 "/Library/DaisyToolchain/0.2.0/arm/arm-none-eabi/include/wchar.h"
 1944              		.file 71 "/Library/DaisyToolchain/0.2.0/arm/arm-none-eabi/include/locale.h"
 1945              		.file 72 "Terrarium.h"
 1946              		.file 73 "Delay.h"
 1947              		.file 74 "../../libDaisy//src/dev/sr_595.h"
 1948              		.file 75 "<built-in>"
ARM GAS  /var/folders/fs/ht5wlc7s7b56r9p0ngl7ssgc0000gn/T//ccZCPiB8.s 			page 63

