ARM GAS  /var/folders/fs/ht5wlc7s7b56r9p0ngl7ssgc0000gn/T//ccz1LIsm.s 			page 1


   1              		.cpu cortex-m7
   2              		.arch armv7e-m
   3              		.fpu fpv5-d16
   4              		.eabi_attribute 28, 1
   5              		.eabi_attribute 20, 1
   6              		.eabi_attribute 21, 1
   7              		.eabi_attribute 23, 3
   8              		.eabi_attribute 24, 1
   9              		.eabi_attribute 25, 1
  10              		.eabi_attribute 26, 1
  11              		.eabi_attribute 30, 2
  12              		.eabi_attribute 34, 1
  13              		.eabi_attribute 18, 4
  14              		.file	"Pedal.cpp"
  15              		.text
  16              	.Ltext0:
  17              		.cfi_sections	.debug_frame
  18              		.section	.text._ZN5daisy9ParameterD2Ev,"axG",%progbits,_ZN5daisy9ParameterD5Ev,comdat
  19              		.align	1
  20              		.p2align 2,,3
  21              		.weak	_ZN5daisy9ParameterD2Ev
  22              		.syntax unified
  23              		.thumb
  24              		.thumb_func
  26              	_ZN5daisy9ParameterD2Ev:
  27              	.LVL0:
  28              	.LFB1655:
  29              		.file 1 "../../libDaisy//src/hid/parameter.h"
   1:../../libDaisy//src/hid/parameter.h **** #pragma once
   2:../../libDaisy//src/hid/parameter.h **** #include <stdint.h>
   3:../../libDaisy//src/hid/parameter.h **** #include "hid/ctrl.h"
   4:../../libDaisy//src/hid/parameter.h **** 
   5:../../libDaisy//src/hid/parameter.h **** namespace daisy
   6:../../libDaisy//src/hid/parameter.h **** {
   7:../../libDaisy//src/hid/parameter.h **** /** @addtogroup controls
   8:../../libDaisy//src/hid/parameter.h ****     @{
   9:../../libDaisy//src/hid/parameter.h **** */
  10:../../libDaisy//src/hid/parameter.h **** 
  11:../../libDaisy//src/hid/parameter.h **** /**      Simple parameter mapping tool that takes a 0-1 input from an hid_ctrl. */
  12:../../libDaisy//src/hid/parameter.h **** class Parameter
  13:../../libDaisy//src/hid/parameter.h **** {
  14:../../libDaisy//src/hid/parameter.h ****   public:
  15:../../libDaisy//src/hid/parameter.h ****     /** Curves are applied to the output signal */
  16:../../libDaisy//src/hid/parameter.h ****     enum Curve
  17:../../libDaisy//src/hid/parameter.h ****     {
  18:../../libDaisy//src/hid/parameter.h ****         LINEAR,      /**< Linear curve */
  19:../../libDaisy//src/hid/parameter.h ****         EXPONENTIAL, /**< Exponential curve */
  20:../../libDaisy//src/hid/parameter.h ****         LOGARITHMIC, /**<  Logarithmic curve */
  21:../../libDaisy//src/hid/parameter.h ****         CUBE,        /**< Cubic curve */
  22:../../libDaisy//src/hid/parameter.h ****         LAST,        /**< Final enum element. */
  23:../../libDaisy//src/hid/parameter.h ****     };
  24:../../libDaisy//src/hid/parameter.h ****     /** Constructor */
  25:../../libDaisy//src/hid/parameter.h ****     Parameter() {}
  26:../../libDaisy//src/hid/parameter.h ****     /** Destructor */
  27:../../libDaisy//src/hid/parameter.h ****     ~Parameter() {}
  30              		.loc 1 27 5 view -0
  31              		.cfi_startproc
ARM GAS  /var/folders/fs/ht5wlc7s7b56r9p0ngl7ssgc0000gn/T//ccz1LIsm.s 			page 2


  32              		@ args = 0, pretend = 0, frame = 0
  33              		@ frame_needed = 0, uses_anonymous_args = 0
  34              		@ link register save eliminated.
  35              	.LBB276:
  36              	.LBI276:
  37              		.file 2 "../../libDaisy//src/hid/ctrl.h"
   1:../../libDaisy//src/hid/ctrl.h **** #pragma once
   2:../../libDaisy//src/hid/ctrl.h **** #ifndef DSY_KNOB_H
   3:../../libDaisy//src/hid/ctrl.h **** #define DSY_KNOB_H /**< & */
   4:../../libDaisy//src/hid/ctrl.h **** #include <stdint.h>
   5:../../libDaisy//src/hid/ctrl.h **** 
   6:../../libDaisy//src/hid/ctrl.h **** #ifdef __cplusplus
   7:../../libDaisy//src/hid/ctrl.h **** namespace daisy
   8:../../libDaisy//src/hid/ctrl.h **** {
   9:../../libDaisy//src/hid/ctrl.h **** /**
  10:../../libDaisy//src/hid/ctrl.h ****     @brief Hardware Interface for control inputs \n 
  11:../../libDaisy//src/hid/ctrl.h ****     Primarily designed for ADC input controls such as \n 
  12:../../libDaisy//src/hid/ctrl.h ****     potentiometers, and control voltage. \n 
  13:../../libDaisy//src/hid/ctrl.h ****     @author Stephen Hensley
  14:../../libDaisy//src/hid/ctrl.h ****     @date November 2019
  15:../../libDaisy//src/hid/ctrl.h ****     @ingroup controls
  16:../../libDaisy//src/hid/ctrl.h **** */
  17:../../libDaisy//src/hid/ctrl.h **** class AnalogControl
  18:../../libDaisy//src/hid/ctrl.h **** {
  19:../../libDaisy//src/hid/ctrl.h ****   public:
  20:../../libDaisy//src/hid/ctrl.h ****     /** Constructor */
  21:../../libDaisy//src/hid/ctrl.h ****     AnalogControl() {}
  22:../../libDaisy//src/hid/ctrl.h ****     /** destructor */
  23:../../libDaisy//src/hid/ctrl.h ****     ~AnalogControl() {}
  38              		.loc 2 23 5 view .LVU1
  39              		.loc 2 23 5 is_stmt 0 view .LVU2
  40              	.LBE276:
  41              		.loc 1 27 19 view .LVU3
  42 0000 7047     		bx	lr
  43              		.cfi_endproc
  44              	.LFE1655:
  46              		.weak	_ZN5daisy9ParameterD1Ev
  47              		.thumb_set _ZN5daisy9ParameterD1Ev,_ZN5daisy9ParameterD2Ev
  48 0002 00BF     		.section	.text._ZN5daisy10DaisyPetalD2Ev,"axG",%progbits,_ZN5daisy10DaisyPetalD5Ev,comdat
  49              		.align	1
  50              		.p2align 2,,3
  51              		.weak	_ZN5daisy10DaisyPetalD2Ev
  52              		.syntax unified
  53              		.thumb
  54              		.thumb_func
  56              	_ZN5daisy10DaisyPetalD2Ev:
  57              	.LVL1:
  58              	.LFB2541:
  59              		.file 3 "../../libDaisy//src/daisy_petal.h"
   1:../../libDaisy//src/daisy_petal.h **** #pragma once
   2:../../libDaisy//src/daisy_petal.h **** #ifndef DSY_PETAL_H
   3:../../libDaisy//src/daisy_petal.h **** #define DSY_PETAL_H /**< & */
   4:../../libDaisy//src/daisy_petal.h **** 
   5:../../libDaisy//src/daisy_petal.h **** #include "daisy_seed.h"
   6:../../libDaisy//src/daisy_petal.h **** 
   7:../../libDaisy//src/daisy_petal.h **** namespace daisy
   8:../../libDaisy//src/daisy_petal.h **** {
ARM GAS  /var/folders/fs/ht5wlc7s7b56r9p0ngl7ssgc0000gn/T//ccz1LIsm.s 			page 3


   9:../../libDaisy//src/daisy_petal.h **** /**
  10:../../libDaisy//src/daisy_petal.h ****    @brief Helpers and hardware definitions for daisy petal.
  11:../../libDaisy//src/daisy_petal.h ****    @ingroup boards
  12:../../libDaisy//src/daisy_petal.h **** */
  13:../../libDaisy//src/daisy_petal.h **** class DaisyPetal
  14:../../libDaisy//src/daisy_petal.h **** {
  15:../../libDaisy//src/daisy_petal.h ****   public:
  16:../../libDaisy//src/daisy_petal.h ****     /** Switches */
  17:../../libDaisy//src/daisy_petal.h ****     enum Sw
  18:../../libDaisy//src/daisy_petal.h ****     {
  19:../../libDaisy//src/daisy_petal.h ****         SW_1,    /**< Footswitch */
  20:../../libDaisy//src/daisy_petal.h ****         SW_2,    /**< Footswitch */
  21:../../libDaisy//src/daisy_petal.h ****         SW_3,    /**< Footswitch */
  22:../../libDaisy//src/daisy_petal.h ****         SW_4,    /**< Footswitch */
  23:../../libDaisy//src/daisy_petal.h ****         SW_5,    /**< Toggle */
  24:../../libDaisy//src/daisy_petal.h ****         SW_6,    /**< Toggle */
  25:../../libDaisy//src/daisy_petal.h ****         SW_7,    /**< Toggle */
  26:../../libDaisy//src/daisy_petal.h ****         SW_LAST, /**< Last enum item */
  27:../../libDaisy//src/daisy_petal.h ****     };
  28:../../libDaisy//src/daisy_petal.h **** 
  29:../../libDaisy//src/daisy_petal.h ****     /** Knobs */
  30:../../libDaisy//src/daisy_petal.h ****     enum Knob
  31:../../libDaisy//src/daisy_petal.h ****     {
  32:../../libDaisy//src/daisy_petal.h ****         KNOB_1,    /**< & */
  33:../../libDaisy//src/daisy_petal.h ****         KNOB_2,    /**< & */
  34:../../libDaisy//src/daisy_petal.h ****         KNOB_3,    /**< & */
  35:../../libDaisy//src/daisy_petal.h ****         KNOB_4,    /**< & */
  36:../../libDaisy//src/daisy_petal.h ****         KNOB_5,    /**< & */
  37:../../libDaisy//src/daisy_petal.h ****         KNOB_6,    /**< & */
  38:../../libDaisy//src/daisy_petal.h ****         KNOB_LAST, /**< & */
  39:../../libDaisy//src/daisy_petal.h ****     };
  40:../../libDaisy//src/daisy_petal.h **** 
  41:../../libDaisy//src/daisy_petal.h ****     /** Leds in ringled */
  42:../../libDaisy//src/daisy_petal.h ****     enum RingLed
  43:../../libDaisy//src/daisy_petal.h ****     {
  44:../../libDaisy//src/daisy_petal.h ****         RING_LED_1,   /**< & */
  45:../../libDaisy//src/daisy_petal.h ****         RING_LED_2,   /**< & */
  46:../../libDaisy//src/daisy_petal.h ****         RING_LED_3,   /**< & */
  47:../../libDaisy//src/daisy_petal.h ****         RING_LED_4,   /**< & */
  48:../../libDaisy//src/daisy_petal.h ****         RING_LED_5,   /**< & */
  49:../../libDaisy//src/daisy_petal.h ****         RING_LED_6,   /**< & */
  50:../../libDaisy//src/daisy_petal.h ****         RING_LED_7,   /**< & */
  51:../../libDaisy//src/daisy_petal.h ****         RING_LED_8,   /**< & */
  52:../../libDaisy//src/daisy_petal.h ****         RING_LED_LAST /**< & */
  53:../../libDaisy//src/daisy_petal.h ****     };
  54:../../libDaisy//src/daisy_petal.h **** 
  55:../../libDaisy//src/daisy_petal.h ****     /** footswitch leds */
  56:../../libDaisy//src/daisy_petal.h ****     enum FootswitchLed
  57:../../libDaisy//src/daisy_petal.h ****     {
  58:../../libDaisy//src/daisy_petal.h ****         FOOTSWITCH_LED_1,    /**< & */
  59:../../libDaisy//src/daisy_petal.h ****         FOOTSWITCH_LED_2,    /**< & */
  60:../../libDaisy//src/daisy_petal.h ****         FOOTSWITCH_LED_3,    /**< & */
  61:../../libDaisy//src/daisy_petal.h ****         FOOTSWITCH_LED_4,    /**< & */
  62:../../libDaisy//src/daisy_petal.h ****         FOOTSWITCH_LED_LAST, /**< & */
  63:../../libDaisy//src/daisy_petal.h ****     };
  64:../../libDaisy//src/daisy_petal.h **** 
  65:../../libDaisy//src/daisy_petal.h ****     /** Constructor */
ARM GAS  /var/folders/fs/ht5wlc7s7b56r9p0ngl7ssgc0000gn/T//ccz1LIsm.s 			page 4


  66:../../libDaisy//src/daisy_petal.h ****     DaisyPetal() {}
  67:../../libDaisy//src/daisy_petal.h ****     /** Destructor */
  68:../../libDaisy//src/daisy_petal.h ****     ~DaisyPetal() {}
  60              		.loc 3 68 5 is_stmt 1 view -0
  61              		.cfi_startproc
  62              		@ args = 0, pretend = 0, frame = 0
  63              		@ frame_needed = 0, uses_anonymous_args = 0
  64              		@ link register save eliminated.
  65              	.LBB277:
  66              	.LBI277:
  67              		.loc 2 23 5 view .LVU5
  68              		.loc 2 23 5 is_stmt 0 view .LVU6
  69              	.LBE277:
  70              	.LBB278:
  71              	.LBI278:
  72              		.file 4 "../../libDaisy//src/hid/encoder.h"
   1:../../libDaisy//src/hid/encoder.h **** #pragma once
   2:../../libDaisy//src/hid/encoder.h **** #ifndef DSY_ENCODER_H
   3:../../libDaisy//src/hid/encoder.h **** #define DSY_ENCODER_H
   4:../../libDaisy//src/hid/encoder.h **** #include "daisy_core.h"
   5:../../libDaisy//src/hid/encoder.h **** #include "per/gpio.h"
   6:../../libDaisy//src/hid/encoder.h **** #include "hid/switch.h"
   7:../../libDaisy//src/hid/encoder.h **** 
   8:../../libDaisy//src/hid/encoder.h **** namespace daisy
   9:../../libDaisy//src/hid/encoder.h **** {
  10:../../libDaisy//src/hid/encoder.h **** /** 
  11:../../libDaisy//src/hid/encoder.h ****     @brief Generic Class for handling Quadrature Encoders \n 
  12:../../libDaisy//src/hid/encoder.h ****     Inspired/influenced by Mutable Instruments (pichenettes) Encoder classes
  13:../../libDaisy//src/hid/encoder.h ****     @author Stephen Hensley
  14:../../libDaisy//src/hid/encoder.h ****     @date December 2019
  15:../../libDaisy//src/hid/encoder.h ****     @ingroup controls
  16:../../libDaisy//src/hid/encoder.h **** */
  17:../../libDaisy//src/hid/encoder.h **** class Encoder
  18:../../libDaisy//src/hid/encoder.h **** {
  19:../../libDaisy//src/hid/encoder.h ****   public:
  20:../../libDaisy//src/hid/encoder.h ****     Encoder() {}
  21:../../libDaisy//src/hid/encoder.h ****     ~Encoder() {}
  73              		.loc 4 21 5 is_stmt 1 view .LVU7
  74              	.LBB279:
  75              	.LBI279:
  76              		.file 5 "../../libDaisy//src/hid/switch.h"
   1:../../libDaisy//src/hid/switch.h **** #pragma once
   2:../../libDaisy//src/hid/switch.h **** #ifndef DSY_SWITCH_H
   3:../../libDaisy//src/hid/switch.h **** #define DSY_SWITCH_H
   4:../../libDaisy//src/hid/switch.h **** #include "daisy_core.h"
   5:../../libDaisy//src/hid/switch.h **** #include "per/gpio.h"
   6:../../libDaisy//src/hid/switch.h **** #include "sys/system.h"
   7:../../libDaisy//src/hid/switch.h **** 
   8:../../libDaisy//src/hid/switch.h **** namespace daisy
   9:../../libDaisy//src/hid/switch.h **** {
  10:../../libDaisy//src/hid/switch.h **** /** 
  11:../../libDaisy//src/hid/switch.h ****     Generic Class for handling momentary/latching switches \n 
  12:../../libDaisy//src/hid/switch.h ****     Inspired/influenced by Mutable Instruments (pichenettes) Switch classes
  13:../../libDaisy//src/hid/switch.h ****     @author Stephen Hensley
  14:../../libDaisy//src/hid/switch.h ****     @date December 2019
  15:../../libDaisy//src/hid/switch.h ****     @ingroup controls
  16:../../libDaisy//src/hid/switch.h **** */
ARM GAS  /var/folders/fs/ht5wlc7s7b56r9p0ngl7ssgc0000gn/T//ccz1LIsm.s 			page 5


  17:../../libDaisy//src/hid/switch.h **** class Switch
  18:../../libDaisy//src/hid/switch.h **** {
  19:../../libDaisy//src/hid/switch.h ****   public:
  20:../../libDaisy//src/hid/switch.h ****     /** Specifies the expected behavior of the switch */
  21:../../libDaisy//src/hid/switch.h ****     enum Type
  22:../../libDaisy//src/hid/switch.h ****     {
  23:../../libDaisy//src/hid/switch.h ****         TYPE_TOGGLE,    /**< & */
  24:../../libDaisy//src/hid/switch.h ****         TYPE_MOMENTARY, /**< & */
  25:../../libDaisy//src/hid/switch.h ****     };
  26:../../libDaisy//src/hid/switch.h ****     /** Specifies whether the pressed is HIGH or LOW. */
  27:../../libDaisy//src/hid/switch.h ****     enum Polarity
  28:../../libDaisy//src/hid/switch.h ****     {
  29:../../libDaisy//src/hid/switch.h ****         POLARITY_NORMAL,   /**< & */
  30:../../libDaisy//src/hid/switch.h ****         POLARITY_INVERTED, /**< & */
  31:../../libDaisy//src/hid/switch.h ****     };
  32:../../libDaisy//src/hid/switch.h **** 
  33:../../libDaisy//src/hid/switch.h ****     /** Specifies whether to use built-in Pull Up/Down resistors to hold button at a given state wh
  34:../../libDaisy//src/hid/switch.h ****     enum Pull
  35:../../libDaisy//src/hid/switch.h ****     {
  36:../../libDaisy//src/hid/switch.h ****         PULL_UP,   /**< & */
  37:../../libDaisy//src/hid/switch.h ****         PULL_DOWN, /**< & */
  38:../../libDaisy//src/hid/switch.h ****         PULL_NONE, /**< & */
  39:../../libDaisy//src/hid/switch.h ****     };
  40:../../libDaisy//src/hid/switch.h **** 
  41:../../libDaisy//src/hid/switch.h ****     Switch() {}
  42:../../libDaisy//src/hid/switch.h ****     ~Switch() {}
  77              		.loc 5 42 5 view .LVU8
  78              		.loc 5 42 5 is_stmt 0 view .LVU9
  79              	.LBE279:
  80              	.LBE278:
  81              	.LBB280:
  82              	.LBI280:
  83              		.file 6 "../../libDaisy//src/daisy_seed.h"
   1:../../libDaisy//src/daisy_seed.h **** #pragma once
   2:../../libDaisy//src/daisy_seed.h **** #ifndef DSY_SEED_H
   3:../../libDaisy//src/daisy_seed.h **** #define DSY_SEED_H
   4:../../libDaisy//src/daisy_seed.h **** 
   5:../../libDaisy//src/daisy_seed.h **** #include "daisy.h"
   6:../../libDaisy//src/daisy_seed.h **** 
   7:../../libDaisy//src/daisy_seed.h **** //Uncomment this out if you're still using the rev2 hardware
   8:../../libDaisy//src/daisy_seed.h **** //#define SEED_REV2
   9:../../libDaisy//src/daisy_seed.h **** 
  10:../../libDaisy//src/daisy_seed.h **** namespace daisy
  11:../../libDaisy//src/daisy_seed.h **** {
  12:../../libDaisy//src/daisy_seed.h **** /**
  13:../../libDaisy//src/daisy_seed.h ****    @brief This is the higher-level interface for the Daisy board. \n 
  14:../../libDaisy//src/daisy_seed.h ****     All basic peripheral configuration/initialization is setup here. \n
  15:../../libDaisy//src/daisy_seed.h **** 
  16:../../libDaisy//src/daisy_seed.h ****    @ingroup boards
  17:../../libDaisy//src/daisy_seed.h **** */
  18:../../libDaisy//src/daisy_seed.h **** class DaisySeed
  19:../../libDaisy//src/daisy_seed.h **** {
  20:../../libDaisy//src/daisy_seed.h ****   public:
  21:../../libDaisy//src/daisy_seed.h ****     DaisySeed() {}
  22:../../libDaisy//src/daisy_seed.h ****     ~DaisySeed() {}
  84              		.loc 6 22 5 is_stmt 1 view .LVU10
  85              	.LBB281:
ARM GAS  /var/folders/fs/ht5wlc7s7b56r9p0ngl7ssgc0000gn/T//ccz1LIsm.s 			page 6


  86              	.LBI281:
  87              		.file 7 "../../libDaisy//src/sys/system.h"
   1:../../libDaisy//src/sys/system.h **** #ifndef DSY_SYSTEM_H
   2:../../libDaisy//src/sys/system.h **** #define DSY_SYSTEM_H
   3:../../libDaisy//src/sys/system.h **** 
   4:../../libDaisy//src/sys/system.h **** #ifndef UNIT_TEST // for unit tests, a dummy implementation is provided below
   5:../../libDaisy//src/sys/system.h **** 
   6:../../libDaisy//src/sys/system.h **** #include <cstdint>
   7:../../libDaisy//src/sys/system.h **** #include "per/tim.h"
   8:../../libDaisy//src/sys/system.h **** 
   9:../../libDaisy//src/sys/system.h **** namespace daisy
  10:../../libDaisy//src/sys/system.h **** {
  11:../../libDaisy//src/sys/system.h **** /** A handle for interacting with the Core System. 
  12:../../libDaisy//src/sys/system.h ****  ** This includes the Clock tree, MPU, global DMA initialization,
  13:../../libDaisy//src/sys/system.h ****  ** cache handling, and any other necessary global initiailzation
  14:../../libDaisy//src/sys/system.h ****  **
  15:../../libDaisy//src/sys/system.h ****  ** @author shensley
  16:../../libDaisy//src/sys/system.h ****  ** @ingroup system
  17:../../libDaisy//src/sys/system.h ****  */
  18:../../libDaisy//src/sys/system.h **** class System
  19:../../libDaisy//src/sys/system.h **** {
  20:../../libDaisy//src/sys/system.h ****   public:
  21:../../libDaisy//src/sys/system.h ****     /** Contains settings for initializing the System */
  22:../../libDaisy//src/sys/system.h ****     struct Config
  23:../../libDaisy//src/sys/system.h ****     {
  24:../../libDaisy//src/sys/system.h ****         /** Specifies the system clock frequency that feeds APB/AHB clocks, etc. */
  25:../../libDaisy//src/sys/system.h ****         enum class SysClkFreq
  26:../../libDaisy//src/sys/system.h ****         {
  27:../../libDaisy//src/sys/system.h ****             FREQ_400MHZ,
  28:../../libDaisy//src/sys/system.h ****             FREQ_480MHZ,
  29:../../libDaisy//src/sys/system.h ****         };
  30:../../libDaisy//src/sys/system.h **** 
  31:../../libDaisy//src/sys/system.h ****         /** Method to call on the struct to set to defaults
  32:../../libDaisy//src/sys/system.h ****          ** CPU Freq set to 400MHz
  33:../../libDaisy//src/sys/system.h ****          ** Cache Enabled 
  34:../../libDaisy//src/sys/system.h ****          ** */
  35:../../libDaisy//src/sys/system.h ****         void Defaults()
  36:../../libDaisy//src/sys/system.h ****         {
  37:../../libDaisy//src/sys/system.h ****             cpu_freq    = SysClkFreq::FREQ_400MHZ;
  38:../../libDaisy//src/sys/system.h ****             use_dcache  = true;
  39:../../libDaisy//src/sys/system.h ****             use_icache  = true;
  40:../../libDaisy//src/sys/system.h ****             skip_clocks = false;
  41:../../libDaisy//src/sys/system.h ****         }
  42:../../libDaisy//src/sys/system.h **** 
  43:../../libDaisy//src/sys/system.h ****         /** Method to call on the struct to set to boost mode:
  44:../../libDaisy//src/sys/system.h ****          ** CPU Freq set to 480MHz
  45:../../libDaisy//src/sys/system.h ****          ** Cache Enabled 
  46:../../libDaisy//src/sys/system.h ****          ** */
  47:../../libDaisy//src/sys/system.h ****         void Boost()
  48:../../libDaisy//src/sys/system.h ****         {
  49:../../libDaisy//src/sys/system.h ****             cpu_freq    = SysClkFreq::FREQ_480MHZ;
  50:../../libDaisy//src/sys/system.h ****             use_dcache  = true;
  51:../../libDaisy//src/sys/system.h ****             use_icache  = true;
  52:../../libDaisy//src/sys/system.h ****             skip_clocks = false;
  53:../../libDaisy//src/sys/system.h ****         }
  54:../../libDaisy//src/sys/system.h **** 
  55:../../libDaisy//src/sys/system.h ****         SysClkFreq cpu_freq;
ARM GAS  /var/folders/fs/ht5wlc7s7b56r9p0ngl7ssgc0000gn/T//ccz1LIsm.s 			page 7


  56:../../libDaisy//src/sys/system.h ****         bool       use_dcache;
  57:../../libDaisy//src/sys/system.h ****         bool       use_icache;
  58:../../libDaisy//src/sys/system.h ****         bool       skip_clocks;
  59:../../libDaisy//src/sys/system.h ****     };
  60:../../libDaisy//src/sys/system.h **** 
  61:../../libDaisy//src/sys/system.h ****     /** Describes the different regions of memory available to the Daisy
  62:../../libDaisy//src/sys/system.h ****      * 
  63:../../libDaisy//src/sys/system.h ****      */
  64:../../libDaisy//src/sys/system.h ****     enum MemoryRegion
  65:../../libDaisy//src/sys/system.h ****     {
  66:../../libDaisy//src/sys/system.h ****         INTERNAL_FLASH = 0,
  67:../../libDaisy//src/sys/system.h ****         ITCMRAM,
  68:../../libDaisy//src/sys/system.h ****         DTCMRAM,
  69:../../libDaisy//src/sys/system.h ****         SRAM_D1,
  70:../../libDaisy//src/sys/system.h ****         SRAM_D2,
  71:../../libDaisy//src/sys/system.h ****         SRAM_D3,
  72:../../libDaisy//src/sys/system.h ****         SDRAM,
  73:../../libDaisy//src/sys/system.h ****         QSPI,
  74:../../libDaisy//src/sys/system.h ****         INVALID_ADDRESS,
  75:../../libDaisy//src/sys/system.h ****     };
  76:../../libDaisy//src/sys/system.h **** 
  77:../../libDaisy//src/sys/system.h ****     System() {}
  78:../../libDaisy//src/sys/system.h ****     ~System() {}
  88              		.loc 7 78 5 view .LVU11
  89              		.loc 7 78 5 is_stmt 0 view .LVU12
  90              	.LBE281:
  91              	.LBB282:
  92              	.LBI282:
  93              		.file 8 "../../libDaisy//src/hid/usb.h"
   1:../../libDaisy//src/hid/usb.h **** #pragma once
   2:../../libDaisy//src/hid/usb.h **** #ifndef DSY_HID_USB_H
   3:../../libDaisy//src/hid/usb.h **** #define DSY_HID_USB_H
   4:../../libDaisy//src/hid/usb.h **** #include <stdint.h>
   5:../../libDaisy//src/hid/usb.h **** #include <stdlib.h>
   6:../../libDaisy//src/hid/usb.h **** 
   7:../../libDaisy//src/hid/usb.h **** namespace daisy
   8:../../libDaisy//src/hid/usb.h **** /** @addtogroup human_interface
   9:../../libDaisy//src/hid/usb.h ****     @{
  10:../../libDaisy//src/hid/usb.h **** */
  11:../../libDaisy//src/hid/usb.h **** 
  12:../../libDaisy//src/hid/usb.h **** {
  13:../../libDaisy//src/hid/usb.h **** /** 
  14:../../libDaisy//src/hid/usb.h ****     @brief Interface for initializing and using the USB Peripherals on the daisy
  15:../../libDaisy//src/hid/usb.h ****     @author Stephen Hensley
  16:../../libDaisy//src/hid/usb.h ****     @date December 2019
  17:../../libDaisy//src/hid/usb.h **** */
  18:../../libDaisy//src/hid/usb.h **** class UsbHandle
  19:../../libDaisy//src/hid/usb.h **** {
  20:../../libDaisy//src/hid/usb.h ****   public:
  21:../../libDaisy//src/hid/usb.h ****     /** Return values for USBHandle Functions */
  22:../../libDaisy//src/hid/usb.h ****     enum class Result
  23:../../libDaisy//src/hid/usb.h ****     {
  24:../../libDaisy//src/hid/usb.h ****         OK,
  25:../../libDaisy//src/hid/usb.h ****         ERR,
  26:../../libDaisy//src/hid/usb.h ****     };
  27:../../libDaisy//src/hid/usb.h **** 
  28:../../libDaisy//src/hid/usb.h ****     /** Specified which of the two USB Peripherals to initialize. */
ARM GAS  /var/folders/fs/ht5wlc7s7b56r9p0ngl7ssgc0000gn/T//ccz1LIsm.s 			page 8


  29:../../libDaisy//src/hid/usb.h ****     enum UsbPeriph
  30:../../libDaisy//src/hid/usb.h ****     {
  31:../../libDaisy//src/hid/usb.h ****         FS_INTERNAL, /**< Internal pin */
  32:../../libDaisy//src/hid/usb.h ****         FS_EXTERNAL, /**< FS External D+ pin is Pin 38 (GPIO32). FS External D- pin is Pin 37 (GPIO
  33:../../libDaisy//src/hid/usb.h ****         FS_BOTH,     /**< Both */
  34:../../libDaisy//src/hid/usb.h ****     };
  35:../../libDaisy//src/hid/usb.h **** 
  36:../../libDaisy//src/hid/usb.h **** 
  37:../../libDaisy//src/hid/usb.h ****     /** Function called upon reception of a buffer */
  38:../../libDaisy//src/hid/usb.h ****     typedef void (*ReceiveCallback)(uint8_t* buff, uint32_t* len);
  39:../../libDaisy//src/hid/usb.h **** 
  40:../../libDaisy//src/hid/usb.h ****     UsbHandle() {}
  41:../../libDaisy//src/hid/usb.h **** 
  42:../../libDaisy//src/hid/usb.h ****     ~UsbHandle() {}
  94              		.loc 8 42 5 is_stmt 1 view .LVU13
  95              		.loc 8 42 5 is_stmt 0 view .LVU14
  96              	.LBE282:
  97              	.LBB283:
  98              	.LBI283:
  99              		.file 9 "../../libDaisy//src/per/adc.h"
   1:../../libDaisy//src/per/adc.h **** #pragma once
   2:../../libDaisy//src/per/adc.h **** #ifndef DSY_ADC_H
   3:../../libDaisy//src/per/adc.h **** #define DSY_ADC_H /**< Macro */
   4:../../libDaisy//src/per/adc.h **** #include <stdint.h>
   5:../../libDaisy//src/per/adc.h **** #include <stdlib.h>
   6:../../libDaisy//src/per/adc.h **** #include "daisy_core.h"
   7:../../libDaisy//src/per/adc.h **** #include "per/gpio.h"
   8:../../libDaisy//src/per/adc.h **** 
   9:../../libDaisy//src/per/adc.h **** #define DSY_ADC_MAX_CHANNELS 16 /**< Maximum number of ADC channels */
  10:../../libDaisy//src/per/adc.h **** 
  11:../../libDaisy//src/per/adc.h **** namespace daisy
  12:../../libDaisy//src/per/adc.h **** {
  13:../../libDaisy//src/per/adc.h **** /** @addtogroup per_analog
  14:../../libDaisy//src/per/adc.h ****     @{
  15:../../libDaisy//src/per/adc.h **** */
  16:../../libDaisy//src/per/adc.h **** 
  17:../../libDaisy//src/per/adc.h **** /* While there may not be many configuration options here,
  18:../../libDaisy//src/per/adc.h **** using a struct like this allows us to add more configuration
  19:../../libDaisy//src/per/adc.h **** later without breaking existing functionality.
  20:../../libDaisy//src/per/adc.h **** */
  21:../../libDaisy//src/per/adc.h **** 
  22:../../libDaisy//src/per/adc.h **** /** @brief   Configuration Structure for an ADC Channel 
  23:../../libDaisy//src/per/adc.h ****  *  @details This can be used to configure a a single input, 
  24:../../libDaisy//src/per/adc.h ****  *           or a multiplexed input, allowing up to 8 inputs on 
  25:../../libDaisy//src/per/adc.h ****  *           one channel.
  26:../../libDaisy//src/per/adc.h ****  *  @note    Sharing data lines to multiple muxes _is_ possible, but
  27:../../libDaisy//src/per/adc.h ****  *           each channel sharing data lines must be set to the maximum
  28:../../libDaisy//src/per/adc.h ****  *           number of channels, even if some multiplexers have fewer
  29:../../libDaisy//src/per/adc.h ****  *           inputs connected.
  30:../../libDaisy//src/per/adc.h **** */
  31:../../libDaisy//src/per/adc.h **** struct AdcChannelConfig
  32:../../libDaisy//src/per/adc.h **** {
  33:../../libDaisy//src/per/adc.h ****     /** Which pin to use for multiplexing */
  34:../../libDaisy//src/per/adc.h ****     enum MuxPin
  35:../../libDaisy//src/per/adc.h ****     {
  36:../../libDaisy//src/per/adc.h ****         MUX_SEL_0,    /**< & */
  37:../../libDaisy//src/per/adc.h ****         MUX_SEL_1,    /**< & */
ARM GAS  /var/folders/fs/ht5wlc7s7b56r9p0ngl7ssgc0000gn/T//ccz1LIsm.s 			page 9


  38:../../libDaisy//src/per/adc.h ****         MUX_SEL_2,    /**< & */
  39:../../libDaisy//src/per/adc.h ****         MUX_SEL_LAST, /**< & */
  40:../../libDaisy//src/per/adc.h ****     };
  41:../../libDaisy//src/per/adc.h **** 
  42:../../libDaisy//src/per/adc.h ****     /** Initializes a single ADC pin as an ADC. 
  43:../../libDaisy//src/per/adc.h ****     \param pin Pin to init.
  44:../../libDaisy//src/per/adc.h ****      */
  45:../../libDaisy//src/per/adc.h ****     void InitSingle(dsy_gpio_pin pin);
  46:../../libDaisy//src/per/adc.h **** 
  47:../../libDaisy//src/per/adc.h ****     /** 
  48:../../libDaisy//src/per/adc.h ****     Initializes a single ADC pin as a Multiplexed ADC.
  49:../../libDaisy//src/per/adc.h ****     Requires a CD405X Multiplexer connected to the pin.
  50:../../libDaisy//src/per/adc.h ****     You only need to supply the mux pins that are required,
  51:../../libDaisy//src/per/adc.h ****     e.g. a 4052 mux would only require mux_0 and mux_1.
  52:../../libDaisy//src/per/adc.h ****     Internal Callbacks handle the pin addressing.
  53:../../libDaisy//src/per/adc.h ****     \param mux_channels must be 1-8
  54:../../libDaisy//src/per/adc.h ****     \param mux_0 First mux pin
  55:../../libDaisy//src/per/adc.h ****     \param mux_1 Second mux pin
  56:../../libDaisy//src/per/adc.h ****     \param mux_2 Third mux pin
  57:../../libDaisy//src/per/adc.h ****     \param adc_pin &
  58:../../libDaisy//src/per/adc.h ****     */
  59:../../libDaisy//src/per/adc.h ****     void InitMux(dsy_gpio_pin adc_pin,
  60:../../libDaisy//src/per/adc.h ****                  size_t       mux_channels,
  61:../../libDaisy//src/per/adc.h ****                  dsy_gpio_pin mux_0,
  62:../../libDaisy//src/per/adc.h ****                  dsy_gpio_pin mux_1 = {DSY_GPIOX, 0},
  63:../../libDaisy//src/per/adc.h ****                  dsy_gpio_pin mux_2 = {DSY_GPIOX, 0});
  64:../../libDaisy//src/per/adc.h **** 
  65:../../libDaisy//src/per/adc.h ****     dsy_gpio pin_;                   /**< & */
  66:../../libDaisy//src/per/adc.h ****     dsy_gpio mux_pin_[MUX_SEL_LAST]; /**< & */
  67:../../libDaisy//src/per/adc.h ****     uint8_t  mux_channels_;          /**< & */
  68:../../libDaisy//src/per/adc.h **** };
  69:../../libDaisy//src/per/adc.h **** 
  70:../../libDaisy//src/per/adc.h **** /**
  71:../../libDaisy//src/per/adc.h ****    @brief Handler for analog to digital conversion
  72:../../libDaisy//src/per/adc.h **** */
  73:../../libDaisy//src/per/adc.h **** class AdcHandle
  74:../../libDaisy//src/per/adc.h **** {
  75:../../libDaisy//src/per/adc.h ****   public:
  76:../../libDaisy//src/per/adc.h ****     /** Supported oversampling amounts */
  77:../../libDaisy//src/per/adc.h ****     enum OverSampling
  78:../../libDaisy//src/per/adc.h ****     {
  79:../../libDaisy//src/per/adc.h ****         OVS_NONE, /**< & */
  80:../../libDaisy//src/per/adc.h ****         OVS_4,    /**< & */
  81:../../libDaisy//src/per/adc.h ****         OVS_8,    /**< & */
  82:../../libDaisy//src/per/adc.h ****         OVS_16,   /**< & */
  83:../../libDaisy//src/per/adc.h ****         OVS_32,   /**< & */
  84:../../libDaisy//src/per/adc.h ****         OVS_64,   /**< & */
  85:../../libDaisy//src/per/adc.h ****         OVS_128,  /**< & */
  86:../../libDaisy//src/per/adc.h ****         OVS_256,  /**< & */
  87:../../libDaisy//src/per/adc.h ****         OVS_512,  /**< & */
  88:../../libDaisy//src/per/adc.h ****         OVS_1024, /**< & */
  89:../../libDaisy//src/per/adc.h ****         OVS_LAST, /**< & */
  90:../../libDaisy//src/per/adc.h ****     };
  91:../../libDaisy//src/per/adc.h **** 
  92:../../libDaisy//src/per/adc.h ****     AdcHandle() {}
  93:../../libDaisy//src/per/adc.h ****     ~AdcHandle() {}
 100              		.loc 9 93 5 is_stmt 1 view .LVU15
ARM GAS  /var/folders/fs/ht5wlc7s7b56r9p0ngl7ssgc0000gn/T//ccz1LIsm.s 			page 10


 101              		.loc 9 93 5 is_stmt 0 view .LVU16
 102              	.LBE283:
 103              	.LBB284:
 104              	.LBI284:
 105              		.file 10 "../../libDaisy//src/hid/audio.h"
   1:../../libDaisy//src/hid/audio.h **** #ifndef DSY_AUDIO_H
   2:../../libDaisy//src/hid/audio.h **** #define DSY_AUDIO_H /**< & */
   3:../../libDaisy//src/hid/audio.h **** 
   4:../../libDaisy//src/hid/audio.h **** #include "per/sai.h"
   5:../../libDaisy//src/hid/audio.h **** 
   6:../../libDaisy//src/hid/audio.h **** namespace daisy
   7:../../libDaisy//src/hid/audio.h **** {
   8:../../libDaisy//src/hid/audio.h **** /** @brief Audio Engine Handle
   9:../../libDaisy//src/hid/audio.h ****  *  @ingroup audio 
  10:../../libDaisy//src/hid/audio.h ****  *  @details This class allows for higher level access to an audio engine.
  11:../../libDaisy//src/hid/audio.h ****  *           If you're using a SOM like the DaisySeed or DaisyPatchSM (or any 
  12:../../libDaisy//src/hid/audio.h ****  *            board that includes one of those objects) then the intialization
  13:../../libDaisy//src/hid/audio.h ****  *            is already taken  care of.
  14:../../libDaisy//src/hid/audio.h ****  *           If you're setting up your own custom hardware, or need to make changes
  15:../../libDaisy//src/hid/audio.h ****  *           you will have to take the following steps:
  16:../../libDaisy//src/hid/audio.h ****  *             1. Create and Initialize an SaiHandle or two depending on your requirements
  17:../../libDaisy//src/hid/audio.h ****  *             2. Initialize the Audio Handle with the desired settings and the Initialized SaiHand
  18:../../libDaisy//src/hid/audio.h ****  *             3. If the connected codec requires special configuration or initialization, do so
  19:../../libDaisy//src/hid/audio.h ****  *             4. Write a callback method using either the AudioCallback or the InterleavingAudioCa
  20:../../libDaisy//src/hid/audio.h ****  *             5. Start the Audio using one of the StartAudio function
  21:../../libDaisy//src/hid/audio.h ****  */
  22:../../libDaisy//src/hid/audio.h **** class AudioHandle
  23:../../libDaisy//src/hid/audio.h **** {
  24:../../libDaisy//src/hid/audio.h ****   public:
  25:../../libDaisy//src/hid/audio.h ****     /** Manually configurable details about the Audio Engine */
  26:../../libDaisy//src/hid/audio.h ****     /** TODO: Figure out how to get samplerate in here. */
  27:../../libDaisy//src/hid/audio.h ****     struct Config
  28:../../libDaisy//src/hid/audio.h ****     {
  29:../../libDaisy//src/hid/audio.h ****         /** number of samples to process per callback */
  30:../../libDaisy//src/hid/audio.h ****         size_t blocksize;
  31:../../libDaisy//src/hid/audio.h **** 
  32:../../libDaisy//src/hid/audio.h ****         /**< Sample rate of audio */
  33:../../libDaisy//src/hid/audio.h ****         SaiHandle::Config::SampleRate samplerate;
  34:../../libDaisy//src/hid/audio.h **** 
  35:../../libDaisy//src/hid/audio.h ****         /** factor for adjustment before and after callback for hardware that may have extra headro
  36:../../libDaisy//src/hid/audio.h ****         float postgain;
  37:../../libDaisy//src/hid/audio.h **** 
  38:../../libDaisy//src/hid/audio.h ****         /** factor for additional one-sided compensation to audio path for hardware that may
  39:../../libDaisy//src/hid/audio.h ****          *  have unequal input/output ranges
  40:../../libDaisy//src/hid/audio.h ****          */
  41:../../libDaisy//src/hid/audio.h ****         float output_compensation;
  42:../../libDaisy//src/hid/audio.h **** 
  43:../../libDaisy//src/hid/audio.h ****         /** Sets default values for config struct */
  44:../../libDaisy//src/hid/audio.h ****         Config()
  45:../../libDaisy//src/hid/audio.h ****         : blocksize(48),
  46:../../libDaisy//src/hid/audio.h ****           samplerate(SaiHandle::Config::SampleRate::SAI_48KHZ),
  47:../../libDaisy//src/hid/audio.h ****           postgain(1.f),
  48:../../libDaisy//src/hid/audio.h ****           output_compensation(1.f)
  49:../../libDaisy//src/hid/audio.h ****         {
  50:../../libDaisy//src/hid/audio.h ****         }
  51:../../libDaisy//src/hid/audio.h ****     };
  52:../../libDaisy//src/hid/audio.h **** 
ARM GAS  /var/folders/fs/ht5wlc7s7b56r9p0ngl7ssgc0000gn/T//ccz1LIsm.s 			page 11


  53:../../libDaisy//src/hid/audio.h ****     enum class Result
  54:../../libDaisy//src/hid/audio.h ****     {
  55:../../libDaisy//src/hid/audio.h ****         OK,
  56:../../libDaisy//src/hid/audio.h ****         ERR,
  57:../../libDaisy//src/hid/audio.h ****     };
  58:../../libDaisy//src/hid/audio.h **** 
  59:../../libDaisy//src/hid/audio.h ****     /** Non-Interleaving input buffer
  60:../../libDaisy//src/hid/audio.h ****      * Buffer arranged by float[chn][sample] 
  61:../../libDaisy//src/hid/audio.h ****      * const so that the user can't modify the input
  62:../../libDaisy//src/hid/audio.h ****      */
  63:../../libDaisy//src/hid/audio.h ****     typedef const float* const* InputBuffer;
  64:../../libDaisy//src/hid/audio.h **** 
  65:../../libDaisy//src/hid/audio.h ****     /** Non-Interleaving output buffer
  66:../../libDaisy//src/hid/audio.h ****      * Arranged by float[chn][sample] 
  67:../../libDaisy//src/hid/audio.h ****      */
  68:../../libDaisy//src/hid/audio.h ****     typedef float** OutputBuffer;
  69:../../libDaisy//src/hid/audio.h **** 
  70:../../libDaisy//src/hid/audio.h ****     /** Type for a Non-Interleaving audio callback 
  71:../../libDaisy//src/hid/audio.h ****      * Non-Interleaving audio callbacks in daisy will be of this type
  72:../../libDaisy//src/hid/audio.h ****      */
  73:../../libDaisy//src/hid/audio.h ****     typedef void (*AudioCallback)(InputBuffer  in,
  74:../../libDaisy//src/hid/audio.h ****                                   OutputBuffer out,
  75:../../libDaisy//src/hid/audio.h ****                                   size_t       size);
  76:../../libDaisy//src/hid/audio.h **** 
  77:../../libDaisy//src/hid/audio.h ****     /** Interleaving Input buffer
  78:../../libDaisy//src/hid/audio.h ****      ** audio is prepared as { L0, R0, L1, R1, . . . LN, RN }]
  79:../../libDaisy//src/hid/audio.h ****      ** this is const, as the user shouldn't modify it
  80:../../libDaisy//src/hid/audio.h ****     */
  81:../../libDaisy//src/hid/audio.h ****     typedef const float* InterleavingInputBuffer;
  82:../../libDaisy//src/hid/audio.h **** 
  83:../../libDaisy//src/hid/audio.h ****     /** Interleaving Output buffer 
  84:../../libDaisy//src/hid/audio.h ****      ** audio is prepared as { L0, R0, L1, R1, . . . LN, RN }
  85:../../libDaisy//src/hid/audio.h ****     */
  86:../../libDaisy//src/hid/audio.h ****     typedef float* InterleavingOutputBuffer;
  87:../../libDaisy//src/hid/audio.h **** 
  88:../../libDaisy//src/hid/audio.h ****     /** Interleaving Audio Callback 
  89:../../libDaisy//src/hid/audio.h ****      * Interleaving audio callbacks in daisy must be of this type
  90:../../libDaisy//src/hid/audio.h ****      */
  91:../../libDaisy//src/hid/audio.h ****     typedef void (*InterleavingAudioCallback)(InterleavingInputBuffer  in,
  92:../../libDaisy//src/hid/audio.h ****                                               InterleavingOutputBuffer out,
  93:../../libDaisy//src/hid/audio.h ****                                               size_t                   size);
  94:../../libDaisy//src/hid/audio.h **** 
  95:../../libDaisy//src/hid/audio.h ****     AudioHandle() : pimpl_(nullptr) {}
  96:../../libDaisy//src/hid/audio.h ****     ~AudioHandle() {}
 106              		.loc 10 96 5 is_stmt 1 view .LVU17
 107              		.loc 10 96 5 is_stmt 0 view .LVU18
 108              	.LBE284:
 109              	.LBE280:
 110              		.loc 3 68 20 view .LVU19
 111 0000 7047     		bx	lr
 112              		.cfi_endproc
 113              	.LFE2541:
 115              		.weak	_ZN5daisy10DaisyPetalD1Ev
 116              		.thumb_set _ZN5daisy10DaisyPetalD1Ev,_ZN5daisy10DaisyPetalD2Ev
 117 0002 00BF     		.section	.text._ZN7daisysp10OscillatorD2Ev,"axG",%progbits,_ZN7daisysp10OscillatorD5Ev,comdat
 118              		.align	1
 119              		.p2align 2,,3
ARM GAS  /var/folders/fs/ht5wlc7s7b56r9p0ngl7ssgc0000gn/T//ccz1LIsm.s 			page 12


 120              		.weak	_ZN7daisysp10OscillatorD2Ev
 121              		.syntax unified
 122              		.thumb
 123              		.thumb_func
 125              	_ZN7daisysp10OscillatorD2Ev:
 126              	.LVL2:
 127              	.LFB4230:
 128              		.file 11 "../../DaisySP//Source/Synthesis/oscillator.h"
   1:../../DaisySP//Source/Synthesis/oscillator.h **** #pragma once
   2:../../DaisySP//Source/Synthesis/oscillator.h **** #ifndef DSY_OSCILLATOR_H
   3:../../DaisySP//Source/Synthesis/oscillator.h **** #define DSY_OSCILLATOR_H
   4:../../DaisySP//Source/Synthesis/oscillator.h **** #include <stdint.h>
   5:../../DaisySP//Source/Synthesis/oscillator.h **** #include "Utility/dsp.h"
   6:../../DaisySP//Source/Synthesis/oscillator.h **** #ifdef __cplusplus
   7:../../DaisySP//Source/Synthesis/oscillator.h **** 
   8:../../DaisySP//Source/Synthesis/oscillator.h **** namespace daisysp
   9:../../DaisySP//Source/Synthesis/oscillator.h **** {
  10:../../DaisySP//Source/Synthesis/oscillator.h **** /** Synthesis of several waveforms, including polyBLEP bandlimited waveforms.
  11:../../DaisySP//Source/Synthesis/oscillator.h **** */
  12:../../DaisySP//Source/Synthesis/oscillator.h **** class Oscillator
  13:../../DaisySP//Source/Synthesis/oscillator.h **** {
  14:../../DaisySP//Source/Synthesis/oscillator.h ****   public:
  15:../../DaisySP//Source/Synthesis/oscillator.h ****     Oscillator() {}
  16:../../DaisySP//Source/Synthesis/oscillator.h ****     ~Oscillator() {}
 129              		.loc 11 16 5 is_stmt 1 view -0
 130              		.cfi_startproc
 131              		@ args = 0, pretend = 0, frame = 0
 132              		@ frame_needed = 0, uses_anonymous_args = 0
 133              		@ link register save eliminated.
 134              		.loc 11 16 20 is_stmt 0 view .LVU21
 135 0000 7047     		bx	lr
 136              		.cfi_endproc
 137              	.LFE4230:
 139              		.weak	_ZN7daisysp10OscillatorD1Ev
 140              		.thumb_set _ZN7daisysp10OscillatorD1Ev,_ZN7daisysp10OscillatorD2Ev
 141 0002 00BF     		.section	.text._ZN7daisysp7BalanceD2Ev,"axG",%progbits,_ZN7daisysp7BalanceD5Ev,comdat
 142              		.align	1
 143              		.p2align 2,,3
 144              		.weak	_ZN7daisysp7BalanceD2Ev
 145              		.syntax unified
 146              		.thumb
 147              		.thumb_func
 149              	_ZN7daisysp7BalanceD2Ev:
 150              	.LVL3:
 151              	.LFB4320:
 152              		.file 12 "../../DaisySP//Source/Dynamics/balance.h"
   1:../../DaisySP//Source/Dynamics/balance.h **** 
   2:../../DaisySP//Source/Dynamics/balance.h **** #pragma once
   3:../../DaisySP//Source/Dynamics/balance.h **** #ifndef DSY_BALANCE_H
   4:../../DaisySP//Source/Dynamics/balance.h **** #define DSY_BALANCE_H
   5:../../DaisySP//Source/Dynamics/balance.h **** 
   6:../../DaisySP//Source/Dynamics/balance.h **** #include <stdint.h>
   7:../../DaisySP//Source/Dynamics/balance.h **** #ifdef __cplusplus
   8:../../DaisySP//Source/Dynamics/balance.h **** 
   9:../../DaisySP//Source/Dynamics/balance.h **** namespace daisysp
  10:../../DaisySP//Source/Dynamics/balance.h **** {
  11:../../DaisySP//Source/Dynamics/balance.h **** /** Balances two sound sources. Sig is boosted to the level of comp.
ARM GAS  /var/folders/fs/ht5wlc7s7b56r9p0ngl7ssgc0000gn/T//ccz1LIsm.s 			page 13


  12:../../DaisySP//Source/Dynamics/balance.h **** 
  13:../../DaisySP//Source/Dynamics/balance.h ****     *Original author(s) : Barry Vercoe, john ffitch, Gabriel Maldonado
  14:../../DaisySP//Source/Dynamics/balance.h **** 
  15:../../DaisySP//Source/Dynamics/balance.h ****     *Year: 1991
  16:../../DaisySP//Source/Dynamics/balance.h **** 
  17:../../DaisySP//Source/Dynamics/balance.h ****     *Ported from soundpipe by Ben Sergentanis, May 2020
  18:../../DaisySP//Source/Dynamics/balance.h **** */
  19:../../DaisySP//Source/Dynamics/balance.h **** class Balance
  20:../../DaisySP//Source/Dynamics/balance.h **** {
  21:../../DaisySP//Source/Dynamics/balance.h ****   public:
  22:../../DaisySP//Source/Dynamics/balance.h ****     Balance() {}
  23:../../DaisySP//Source/Dynamics/balance.h ****     ~Balance() {}
 153              		.loc 12 23 5 is_stmt 1 view -0
 154              		.cfi_startproc
 155              		@ args = 0, pretend = 0, frame = 0
 156              		@ frame_needed = 0, uses_anonymous_args = 0
 157              		@ link register save eliminated.
 158              		.loc 12 23 17 is_stmt 0 view .LVU23
 159 0000 7047     		bx	lr
 160              		.cfi_endproc
 161              	.LFE4320:
 163              		.weak	_ZN7daisysp7BalanceD1Ev
 164              		.thumb_set _ZN7daisysp7BalanceD1Ev,_ZN7daisysp7BalanceD2Ev
 165 0002 00BF     		.section	.text._ZN7daisysp9CrossFadeD2Ev,"axG",%progbits,_ZN7daisysp9CrossFadeD5Ev,comdat
 166              		.align	1
 167              		.p2align 2,,3
 168              		.weak	_ZN7daisysp9CrossFadeD2Ev
 169              		.syntax unified
 170              		.thumb
 171              		.thumb_func
 173              	_ZN7daisysp9CrossFadeD2Ev:
 174              	.LVL4:
 175              	.LFB4352:
 176              		.file 13 "../../DaisySP//Source/Dynamics/crossfade.h"
   1:../../DaisySP//Source/Dynamics/crossfade.h **** #pragma once
   2:../../DaisySP//Source/Dynamics/crossfade.h **** #ifndef DSY_CROSSFADE_H
   3:../../DaisySP//Source/Dynamics/crossfade.h **** #define DSY_CROSSFADE_H
   4:../../DaisySP//Source/Dynamics/crossfade.h **** #include <stdint.h>
   5:../../DaisySP//Source/Dynamics/crossfade.h **** #ifdef __cplusplus
   6:../../DaisySP//Source/Dynamics/crossfade.h **** 
   7:../../DaisySP//Source/Dynamics/crossfade.h **** namespace daisysp
   8:../../DaisySP//Source/Dynamics/crossfade.h **** {
   9:../../DaisySP//Source/Dynamics/crossfade.h **** /** Curve applied to the CrossFade
  10:../../DaisySP//Source/Dynamics/crossfade.h **** - LIN = linear
  11:../../DaisySP//Source/Dynamics/crossfade.h **** - CPOW = constant power
  12:../../DaisySP//Source/Dynamics/crossfade.h **** - LOG = logarithmic
  13:../../DaisySP//Source/Dynamics/crossfade.h **** - EXP  exponential
  14:../../DaisySP//Source/Dynamics/crossfade.h **** - LAST = end of enum (used for array indexing)
  15:../../DaisySP//Source/Dynamics/crossfade.h **** */
  16:../../DaisySP//Source/Dynamics/crossfade.h **** enum
  17:../../DaisySP//Source/Dynamics/crossfade.h **** {
  18:../../DaisySP//Source/Dynamics/crossfade.h ****     CROSSFADE_LIN,
  19:../../DaisySP//Source/Dynamics/crossfade.h ****     CROSSFADE_CPOW,
  20:../../DaisySP//Source/Dynamics/crossfade.h ****     CROSSFADE_LOG,
  21:../../DaisySP//Source/Dynamics/crossfade.h ****     CROSSFADE_EXP,
  22:../../DaisySP//Source/Dynamics/crossfade.h ****     CROSSFADE_LAST,
  23:../../DaisySP//Source/Dynamics/crossfade.h **** };
ARM GAS  /var/folders/fs/ht5wlc7s7b56r9p0ngl7ssgc0000gn/T//ccz1LIsm.s 			page 14


  24:../../DaisySP//Source/Dynamics/crossfade.h **** 
  25:../../DaisySP//Source/Dynamics/crossfade.h **** /** Performs a CrossFade between two signals
  26:../../DaisySP//Source/Dynamics/crossfade.h **** 
  27:../../DaisySP//Source/Dynamics/crossfade.h ****     Original author: Paul Batchelor
  28:../../DaisySP//Source/Dynamics/crossfade.h **** 
  29:../../DaisySP//Source/Dynamics/crossfade.h ****     Ported from Soundpipe by Andrew Ikenberry
  30:../../DaisySP//Source/Dynamics/crossfade.h **** 
  31:../../DaisySP//Source/Dynamics/crossfade.h ****     added curve option for constant power, etc.
  32:../../DaisySP//Source/Dynamics/crossfade.h **** */
  33:../../DaisySP//Source/Dynamics/crossfade.h **** class CrossFade
  34:../../DaisySP//Source/Dynamics/crossfade.h **** {
  35:../../DaisySP//Source/Dynamics/crossfade.h ****   public:
  36:../../DaisySP//Source/Dynamics/crossfade.h ****     CrossFade() {}
  37:../../DaisySP//Source/Dynamics/crossfade.h ****     ~CrossFade() {}
 177              		.loc 13 37 5 is_stmt 1 view -0
 178              		.cfi_startproc
 179              		@ args = 0, pretend = 0, frame = 0
 180              		@ frame_needed = 0, uses_anonymous_args = 0
 181              		@ link register save eliminated.
 182              		.loc 13 37 19 is_stmt 0 view .LVU25
 183 0000 7047     		bx	lr
 184              		.cfi_endproc
 185              	.LFE4352:
 187              		.weak	_ZN7daisysp9CrossFadeD1Ev
 188              		.thumb_set _ZN7daisysp9CrossFadeD1Ev,_ZN7daisysp9CrossFadeD2Ev
 189 0002 00BF     		.section	.text._ZN10ToneFilterD2Ev,"axG",%progbits,_ZN10ToneFilterD5Ev,comdat
 190              		.align	1
 191              		.p2align 2,,3
 192              		.weak	_ZN10ToneFilterD2Ev
 193              		.syntax unified
 194              		.thumb
 195              		.thumb_func
 197              	_ZN10ToneFilterD2Ev:
 198              	.LVL5:
 199              	.LFB5395:
 200              		.file 14 "ToneFilter.h"
   1:ToneFilter.h  **** #pragma once
   2:ToneFilter.h  **** #include "daisysp.h"
   3:ToneFilter.h  **** #include "daisy_seed.h"
   4:ToneFilter.h  **** 
   5:ToneFilter.h  **** using namespace daisysp;
   6:ToneFilter.h  **** using namespace daisy;
   7:ToneFilter.h  **** using namespace daisy::seed;
   8:ToneFilter.h  **** 
   9:ToneFilter.h  **** class ToneFilter
 201              		.loc 14 9 7 is_stmt 1 view -0
 202              		.cfi_startproc
 203              		@ args = 0, pretend = 0, frame = 0
 204              		@ frame_needed = 0, uses_anonymous_args = 0
 205              		@ link register save eliminated.
 206              	.LBB285:
 207              	.LBI285:
 208              		.file 15 "../../DaisySP//Source/Filters/atone.h"
   1:../../DaisySP//Source/Filters/atone.h **** #pragma once
   2:../../DaisySP//Source/Filters/atone.h **** #ifndef DSY_ATONE_H
   3:../../DaisySP//Source/Filters/atone.h **** #define DSY_ATONE_H
   4:../../DaisySP//Source/Filters/atone.h **** 
ARM GAS  /var/folders/fs/ht5wlc7s7b56r9p0ngl7ssgc0000gn/T//ccz1LIsm.s 			page 15


   5:../../DaisySP//Source/Filters/atone.h **** #include <stdint.h>
   6:../../DaisySP//Source/Filters/atone.h **** #ifdef __cplusplus
   7:../../DaisySP//Source/Filters/atone.h **** 
   8:../../DaisySP//Source/Filters/atone.h **** namespace daisysp
   9:../../DaisySP//Source/Filters/atone.h **** {
  10:../../DaisySP//Source/Filters/atone.h **** /** A first-order recursive high-pass filter with variable frequency response.
  11:../../DaisySP//Source/Filters/atone.h ****      Original Author(s): Barry Vercoe, John FFitch, Gabriel Maldonado
  12:../../DaisySP//Source/Filters/atone.h **** 
  13:../../DaisySP//Source/Filters/atone.h ****      Year: 1991
  14:../../DaisySP//Source/Filters/atone.h **** 
  15:../../DaisySP//Source/Filters/atone.h ****      Original Location: Csound -- OOps/ugens5.c
  16:../../DaisySP//Source/Filters/atone.h **** 
  17:../../DaisySP//Source/Filters/atone.h ****      Ported from soundpipe by Ben Sergentanis, May 2020
  18:../../DaisySP//Source/Filters/atone.h ****     */
  19:../../DaisySP//Source/Filters/atone.h **** class ATone
  20:../../DaisySP//Source/Filters/atone.h **** {
  21:../../DaisySP//Source/Filters/atone.h ****   public:
  22:../../DaisySP//Source/Filters/atone.h ****     ATone() {}
  23:../../DaisySP//Source/Filters/atone.h ****     ~ATone() {}
 209              		.loc 15 23 5 view .LVU27
 210              		.loc 15 23 5 is_stmt 0 view .LVU28
 211              	.LBE285:
 212              	.LBB286:
 213              	.LBI286:
 214              		.file 16 "../../DaisySP//Source/Filters/tone.h"
   1:../../DaisySP//Source/Filters/tone.h **** #pragma once
   2:../../DaisySP//Source/Filters/tone.h **** #ifndef DSY_TONE_H
   3:../../DaisySP//Source/Filters/tone.h **** #define DSY_TONE_H
   4:../../DaisySP//Source/Filters/tone.h **** 
   5:../../DaisySP//Source/Filters/tone.h **** #include <stdint.h>
   6:../../DaisySP//Source/Filters/tone.h **** #ifdef __cplusplus
   7:../../DaisySP//Source/Filters/tone.h **** 
   8:../../DaisySP//Source/Filters/tone.h **** namespace daisysp
   9:../../DaisySP//Source/Filters/tone.h **** {
  10:../../DaisySP//Source/Filters/tone.h **** /** A first-order recursive low-pass filter with variable frequency response.
  11:../../DaisySP//Source/Filters/tone.h **** */
  12:../../DaisySP//Source/Filters/tone.h **** class Tone
  13:../../DaisySP//Source/Filters/tone.h **** {
  14:../../DaisySP//Source/Filters/tone.h ****   public:
  15:../../DaisySP//Source/Filters/tone.h ****     Tone() {}
  16:../../DaisySP//Source/Filters/tone.h ****     ~Tone() {}
 215              		.loc 16 16 5 is_stmt 1 view .LVU29
 216              		.loc 16 16 5 is_stmt 0 view .LVU30
 217              	.LBE286:
 218              		.loc 14 9 7 view .LVU31
 219 0000 7047     		bx	lr
 220              		.cfi_endproc
 221              	.LFE5395:
 223              		.weak	_ZN10ToneFilterD1Ev
 224              		.thumb_set _ZN10ToneFilterD1Ev,_ZN10ToneFilterD2Ev
 225 0002 00BF     		.section	.text.__tcf_0,"ax",%progbits
 226              		.align	1
 227              		.p2align 2,,3
 228              		.syntax unified
 229              		.thumb
 230              		.thumb_func
 232              	__tcf_0:
ARM GAS  /var/folders/fs/ht5wlc7s7b56r9p0ngl7ssgc0000gn/T//ccz1LIsm.s 			page 16


 233              	.LFB5397:
 234              		.file 17 "Pedal.cpp"
   1:Pedal.cpp     **** #include "daisy_petal.h"
   2:Pedal.cpp     **** #include "daisysp.h"
   3:Pedal.cpp     **** #include "Terrarium.h"
   4:Pedal.cpp     **** #include "Delay.h"
   5:Pedal.cpp     **** #include "ToneFilter.h"
   6:Pedal.cpp     **** #include "TapTempo.h"
   7:Pedal.cpp     **** 
   8:Pedal.cpp     **** using namespace daisy;
   9:Pedal.cpp     **** using namespace daisysp;
  10:Pedal.cpp     **** using namespace terrarium;
  11:Pedal.cpp     **** 
  12:Pedal.cpp     **** 
  13:Pedal.cpp     **** 
  14:Pedal.cpp     **** 
  15:Pedal.cpp     **** DaisyPetal hw;
  16:Pedal.cpp     **** Delay delay;
  17:Pedal.cpp     **** Balance balance;
  18:Pedal.cpp     **** TapTempo tapTempo;
  19:Pedal.cpp     **** ToneFilter tone(48000.f);
  20:Pedal.cpp     **** static CrossFade crossFade;
  21:Pedal.cpp     **** DelayLine<float, MAX_DELAY> DSY_SDRAM_BSS delayMems[4];
 235              		.loc 17 21 43 is_stmt 1 view -0
 236              		.cfi_startproc
 237              		@ args = 0, pretend = 0, frame = 0
 238              		@ frame_needed = 0, uses_anonymous_args = 0
 239              		@ link register save eliminated.
 240              		.loc 17 21 43 is_stmt 0 view .LVU33
 241 0000 7047     		bx	lr
 242              		.cfi_endproc
 243              	.LFE5397:
 245 0002 00BF     		.section	.text._Z10initParamsv,"ax",%progbits
 246              		.align	1
 247              		.p2align 2,,3
 248              		.global	_Z10initParamsv
 249              		.syntax unified
 250              		.thumb
 251              		.thumb_func
 253              	_Z10initParamsv:
 254              	.LFB4824:
  22:Pedal.cpp     **** 
  23:Pedal.cpp     **** Oscillator osc;
  24:Pedal.cpp     **** 
  25:Pedal.cpp     **** //DelayLineReverse<float, MAX_DELAY> DSY_SDRAM_BSS delayMems[4];
  26:Pedal.cpp     **** 
  27:Pedal.cpp     **** Parameter toneParam;
  28:Pedal.cpp     **** Parameter bpmParam;
  29:Pedal.cpp     **** 
  30:Pedal.cpp     **** bool bypass = true;
  31:Pedal.cpp     **** float dryWet; 
  32:Pedal.cpp     **** float feedback;
  33:Pedal.cpp     **** float toneVal;
  34:Pedal.cpp     **** float bpm;
  35:Pedal.cpp     **** float color;
  36:Pedal.cpp     **** 
  37:Pedal.cpp     **** 
ARM GAS  /var/folders/fs/ht5wlc7s7b56r9p0ngl7ssgc0000gn/T//ccz1LIsm.s 			page 17


  38:Pedal.cpp     **** 
  39:Pedal.cpp     **** /**
  40:Pedal.cpp     ****  * @brief Initialize special parameters for the terrarium pedal knobs
  41:Pedal.cpp     ****  * (Mostly just setting min/max values)
  42:Pedal.cpp     ****  */
  43:Pedal.cpp     **** void initParams();
  44:Pedal.cpp     **** 
  45:Pedal.cpp     **** /**
  46:Pedal.cpp     ****  * @brief Processes all controls for the terrarium pedal
  47:Pedal.cpp     ****  * 
  48:Pedal.cpp     ****  */
  49:Pedal.cpp     **** void processControls();
  50:Pedal.cpp     **** 
  51:Pedal.cpp     **** void AudioCallback(AudioHandle::InputBuffer in, AudioHandle::OutputBuffer out, size_t size)
  52:Pedal.cpp     **** {
  53:Pedal.cpp     **** 	hw.ProcessAllControls();
  54:Pedal.cpp     **** 	processControls();
  55:Pedal.cpp     **** 	for (size_t i = 0; i < size; i++)
  56:Pedal.cpp     **** 	{
  57:Pedal.cpp     **** 		if(bypass)
  58:Pedal.cpp     **** 			out[0][i] = in[0][i];
  59:Pedal.cpp     **** 		else
  60:Pedal.cpp     **** 		{
  61:Pedal.cpp     **** 			// Needed for crossFade process
  62:Pedal.cpp     **** 			float nonConstInput = in[0][i];
  63:Pedal.cpp     **** 			float finalMix = 0;
  64:Pedal.cpp     **** 			float allDelaySignals = delay.process(in[0][i]);
  65:Pedal.cpp     **** 			float preFilterDelays = allDelaySignals;
  66:Pedal.cpp     **** 
  67:Pedal.cpp     **** 			allDelaySignals = tone.process(allDelaySignals);
  68:Pedal.cpp     **** 			
  69:Pedal.cpp     ****             //allDelaySignals = balance.Process(allDelaySignals,preFilterDelays*tone.getFactor());
  70:Pedal.cpp     **** 
  71:Pedal.cpp     **** 			finalMix = crossFade.Process(nonConstInput, allDelaySignals);
  72:Pedal.cpp     **** 
  73:Pedal.cpp     **** 
  74:Pedal.cpp     **** 			out[0][i] = finalMix;
  75:Pedal.cpp     **** 			
  76:Pedal.cpp     **** 		}
  77:Pedal.cpp     **** 			
  78:Pedal.cpp     **** 	}
  79:Pedal.cpp     **** }
  80:Pedal.cpp     **** 
  81:Pedal.cpp     **** int main(void)
  82:Pedal.cpp     **** {
  83:Pedal.cpp     **** 	hw.Init();
  84:Pedal.cpp     **** 	hw.SetAudioBlockSize(4); // number of samples handled per callback
  85:Pedal.cpp     **** 	hw.SetAudioSampleRate(SaiHandle::Config::SampleRate::SAI_48KHZ);
  86:Pedal.cpp     **** 	hw.StartAdc();
  87:Pedal.cpp     **** 
  88:Pedal.cpp     **** 	delay.initDelay(delayMems);
  89:Pedal.cpp     **** 	//delay.initDelayReverse(delayMems);
  90:Pedal.cpp     **** 	delay.setBPM(90);
  91:Pedal.cpp     **** 	crossFade.Init();
  92:Pedal.cpp     **** 	crossFade.SetCurve(CROSSFADE_CPOW);
  93:Pedal.cpp     **** 	balance.Init(hw.AudioSampleRate());
  94:Pedal.cpp     **** 	initParams();
ARM GAS  /var/folders/fs/ht5wlc7s7b56r9p0ngl7ssgc0000gn/T//ccz1LIsm.s 			page 18


  95:Pedal.cpp     **** 
  96:Pedal.cpp     **** osc.Init(hw.AudioSampleRate());
  97:Pedal.cpp     **** osc.SetWaveform(Oscillator::WAVE_SIN);
  98:Pedal.cpp     **** osc.SetAmp(1);
  99:Pedal.cpp     **** osc.SetFreq(20);
 100:Pedal.cpp     **** 
 101:Pedal.cpp     **** 	hw.StartAudio(AudioCallback);
 102:Pedal.cpp     **** 	while(1) {}
 103:Pedal.cpp     **** }
 104:Pedal.cpp     **** 
 105:Pedal.cpp     **** void initParams()
 106:Pedal.cpp     **** {
 255              		.loc 17 106 1 is_stmt 1 view -0
 256              		.cfi_startproc
 257              		@ args = 0, pretend = 0, frame = 32
 258              		@ frame_needed = 0, uses_anonymous_args = 0
 107:Pedal.cpp     **** 	toneParam.Init(hw.knob[Terrarium::KNOB_3], -1.0f, 1.0f, Parameter::LINEAR);
 259              		.loc 17 107 2 view .LVU35
 106:Pedal.cpp     **** 	toneParam.Init(hw.knob[Terrarium::KNOB_3], -1.0f, 1.0f, Parameter::LINEAR);
 260              		.loc 17 106 1 is_stmt 0 view .LVU36
 261 0000 10B5     		push	{r4, lr}
 262              		.cfi_def_cfa_offset 8
 263              		.cfi_offset 4, -8
 264              		.cfi_offset 14, -4
 265              		.loc 17 107 42 view .LVU37
 266 0002 154C     		ldr	r4, .L11
 106:Pedal.cpp     **** 	toneParam.Init(hw.knob[Terrarium::KNOB_3], -1.0f, 1.0f, Parameter::LINEAR);
 267              		.loc 17 106 1 view .LVU38
 268 0004 88B0     		sub	sp, sp, #32
 269              		.cfi_def_cfa_offset 40
 270              		.loc 17 107 16 view .LVU39
 271 0006 F7EE000A 		vmov.f32	s1, #1.0e+0
 272              		.loc 17 107 42 view .LVU40
 273 000a 04F1E40E 		add	lr, r4, #228
 274 000e EC46     		mov	ip, sp
 275              		.loc 17 107 16 view .LVU41
 276 0010 BFEE000A 		vmov.f32	s0, #-1.0e+0
 277              		.loc 17 107 42 view .LVU42
 278 0014 BEE80F00 		ldmia	lr!, {r0, r1, r2, r3}
 279 0018 ACE80F00 		stmia	ip!, {r0, r1, r2, r3}
 280 001c 9EE80F00 		ldm	lr, {r0, r1, r2, r3}
 281 0020 8CE80F00 		stm	ip, {r0, r1, r2, r3}
 282              		.loc 17 107 16 view .LVU43
 283 0024 6946     		mov	r1, sp
 284 0026 0022     		movs	r2, #0
 285 0028 0C48     		ldr	r0, .L11+4
 286 002a FFF7FEFF 		bl	_ZN5daisy9Parameter4InitENS_13AnalogControlEffNS0_5CurveE
 287              	.LVL6:
 288              	.LBB287:
 289              	.LBI287:
 290              		.loc 2 23 5 is_stmt 1 view .LVU44
 291              		.loc 2 23 5 is_stmt 0 view .LVU45
 292              	.LBE287:
 108:Pedal.cpp     **** 	bpmParam.Init(hw.knob[Terrarium::KNOB_4], 30.0f, 240.0f, Parameter::LINEAR);
 293              		.loc 17 108 2 is_stmt 1 view .LVU46
 294              		.loc 17 108 41 is_stmt 0 view .LVU47
 295 002e 04F1840C 		add	ip, r4, #132
ARM GAS  /var/folders/fs/ht5wlc7s7b56r9p0ngl7ssgc0000gn/T//ccz1LIsm.s 			page 19


 296 0032 6C46     		mov	r4, sp
 297              		.loc 17 108 15 view .LVU48
 298 0034 B3EE0E0A 		vmov.f32	s0, #3.0e+1
 299 0038 DFED090A 		vldr.32	s1, .L11+8
 300              		.loc 17 108 41 view .LVU49
 301 003c BCE80F00 		ldmia	ip!, {r0, r1, r2, r3}
 302 0040 0FC4     		stmia	r4!, {r0, r1, r2, r3}
 303 0042 9CE80F00 		ldm	ip, {r0, r1, r2, r3}
 304 0046 84E80F00 		stm	r4, {r0, r1, r2, r3}
 305              		.loc 17 108 15 view .LVU50
 306 004a 0022     		movs	r2, #0
 307 004c 6946     		mov	r1, sp
 308 004e 0548     		ldr	r0, .L11+12
 309 0050 FFF7FEFF 		bl	_ZN5daisy9Parameter4InitENS_13AnalogControlEffNS0_5CurveE
 310              	.LVL7:
 311              	.LBB288:
 312              	.LBI288:
 313              		.loc 2 23 5 is_stmt 1 view .LVU51
 314              		.loc 2 23 5 is_stmt 0 view .LVU52
 315              	.LBE288:
 109:Pedal.cpp     **** 
 110:Pedal.cpp     **** }
 316              		.loc 17 110 1 view .LVU53
 317 0054 08B0     		add	sp, sp, #32
 318              		.cfi_def_cfa_offset 8
 319              		@ sp needed
 320 0056 10BD     		pop	{r4, pc}
 321              	.L12:
 322              		.align	2
 323              	.L11:
 324 0058 00000000 		.word	.LANCHOR0
 325 005c 00000000 		.word	.LANCHOR1
 326 0060 00007043 		.word	1131413504
 327 0064 00000000 		.word	.LANCHOR2
 328              		.cfi_endproc
 329              	.LFE4824:
 331              		.section	.text.startup.main,"ax",%progbits
 332              		.align	1
 333              		.p2align 2,,3
 334              		.global	main
 335              		.syntax unified
 336              		.thumb
 337              		.thumb_func
 339              	main:
 340              	.LFB4823:
  82:Pedal.cpp     **** 	hw.Init();
 341              		.loc 17 82 1 is_stmt 1 view -0
 342              		.cfi_startproc
 343              		@ Volatile: function does not return.
 344              		@ args = 0, pretend = 0, frame = 0
 345              		@ frame_needed = 0, uses_anonymous_args = 0
  83:Pedal.cpp     **** 	hw.SetAudioBlockSize(4); // number of samples handled per callback
 346              		.loc 17 83 2 view .LVU55
  82:Pedal.cpp     **** 	hw.Init();
 347              		.loc 17 82 1 is_stmt 0 view .LVU56
 348 0000 08B5     		push	{r3, lr}
 349              		.cfi_def_cfa_offset 8
ARM GAS  /var/folders/fs/ht5wlc7s7b56r9p0ngl7ssgc0000gn/T//ccz1LIsm.s 			page 20


 350              		.cfi_offset 3, -8
 351              		.cfi_offset 14, -4
  83:Pedal.cpp     **** 	hw.SetAudioBlockSize(4); // number of samples handled per callback
 352              		.loc 17 83 9 view .LVU57
 353 0002 0021     		movs	r1, #0
 354 0004 2D48     		ldr	r0, .L16
 355 0006 FFF7FEFF 		bl	_ZN5daisy10DaisyPetal4InitEb
 356              	.LVL8:
  84:Pedal.cpp     **** 	hw.SetAudioSampleRate(SaiHandle::Config::SampleRate::SAI_48KHZ);
 357              		.loc 17 84 2 is_stmt 1 view .LVU58
  84:Pedal.cpp     **** 	hw.SetAudioSampleRate(SaiHandle::Config::SampleRate::SAI_48KHZ);
 358              		.loc 17 84 22 is_stmt 0 view .LVU59
 359 000a 0421     		movs	r1, #4
 360 000c 2B48     		ldr	r0, .L16
 361              	.LBB302:
 362              	.LBB303:
 363              	.LBB304:
  38:../../DaisySP//Source/Dynamics/crossfade.h ****     /** Initializes CrossFade module
  39:../../DaisySP//Source/Dynamics/crossfade.h ****         Defaults
  40:../../DaisySP//Source/Dynamics/crossfade.h ****         - current position = .5
  41:../../DaisySP//Source/Dynamics/crossfade.h ****         - curve = linear
  42:../../DaisySP//Source/Dynamics/crossfade.h ****     */
  43:../../DaisySP//Source/Dynamics/crossfade.h ****     inline void Init(int curve)
  44:../../DaisySP//Source/Dynamics/crossfade.h ****     {
  45:../../DaisySP//Source/Dynamics/crossfade.h ****         pos_   = 0.5f;
 364              		.loc 13 45 16 view .LVU60
 365 000e 4FF07C55 		mov	r5, #1056964608
 366              	.LBE304:
 367              	.LBE303:
 368              	.LBE302:
  84:Pedal.cpp     **** 	hw.SetAudioSampleRate(SaiHandle::Config::SampleRate::SAI_48KHZ);
 369              		.loc 17 84 22 view .LVU61
 370 0012 FFF7FEFF 		bl	_ZN5daisy10DaisyPetal17SetAudioBlockSizeEj
 371              	.LVL9:
  85:Pedal.cpp     **** 	hw.StartAdc();
 372              		.loc 17 85 2 is_stmt 1 view .LVU62
  85:Pedal.cpp     **** 	hw.StartAdc();
 373              		.loc 17 85 23 is_stmt 0 view .LVU63
 374 0016 0321     		movs	r1, #3
 375 0018 2848     		ldr	r0, .L16
 376              	.LBB309:
 377              	.LBB310:
  17:../../DaisySP//Source/Synthesis/oscillator.h ****     /** Choices for output waveforms, POLYBLEP are appropriately labeled. Others are naive forms.
  18:../../DaisySP//Source/Synthesis/oscillator.h ****     */
  19:../../DaisySP//Source/Synthesis/oscillator.h ****     enum
  20:../../DaisySP//Source/Synthesis/oscillator.h ****     {
  21:../../DaisySP//Source/Synthesis/oscillator.h ****         WAVE_SIN,
  22:../../DaisySP//Source/Synthesis/oscillator.h ****         WAVE_TRI,
  23:../../DaisySP//Source/Synthesis/oscillator.h ****         WAVE_SAW,
  24:../../DaisySP//Source/Synthesis/oscillator.h ****         WAVE_RAMP,
  25:../../DaisySP//Source/Synthesis/oscillator.h ****         WAVE_SQUARE,
  26:../../DaisySP//Source/Synthesis/oscillator.h ****         WAVE_POLYBLEP_TRI,
  27:../../DaisySP//Source/Synthesis/oscillator.h ****         WAVE_POLYBLEP_SAW,
  28:../../DaisySP//Source/Synthesis/oscillator.h ****         WAVE_POLYBLEP_SQUARE,
  29:../../DaisySP//Source/Synthesis/oscillator.h ****         WAVE_LAST,
  30:../../DaisySP//Source/Synthesis/oscillator.h ****     };
  31:../../DaisySP//Source/Synthesis/oscillator.h **** 
ARM GAS  /var/folders/fs/ht5wlc7s7b56r9p0ngl7ssgc0000gn/T//ccz1LIsm.s 			page 21


  32:../../DaisySP//Source/Synthesis/oscillator.h **** 
  33:../../DaisySP//Source/Synthesis/oscillator.h ****     /** Initializes the Oscillator
  34:../../DaisySP//Source/Synthesis/oscillator.h **** 
  35:../../DaisySP//Source/Synthesis/oscillator.h ****         \param sample_rate - sample rate of the audio engine being run, and the frequency that the 
  36:../../DaisySP//Source/Synthesis/oscillator.h **** 
  37:../../DaisySP//Source/Synthesis/oscillator.h ****         Defaults:
  38:../../DaisySP//Source/Synthesis/oscillator.h ****         - freq_ = 100 Hz
  39:../../DaisySP//Source/Synthesis/oscillator.h ****         - amp_ = 0.5
  40:../../DaisySP//Source/Synthesis/oscillator.h ****         - waveform_ = sine wave.
  41:../../DaisySP//Source/Synthesis/oscillator.h ****     */
  42:../../DaisySP//Source/Synthesis/oscillator.h ****     void Init(float sample_rate)
  43:../../DaisySP//Source/Synthesis/oscillator.h ****     {
  44:../../DaisySP//Source/Synthesis/oscillator.h ****         sr_        = sample_rate;
  45:../../DaisySP//Source/Synthesis/oscillator.h ****         sr_recip_  = 1.0f / sample_rate;
 378              		.loc 11 45 27 view .LVU64
 379 001a B7EE008A 		vmov.f32	s16, #1.0e+0
 380              	.LBE310:
 381              	.LBE309:
  85:Pedal.cpp     **** 	hw.StartAdc();
 382              		.loc 17 85 23 view .LVU65
 383 001e FFF7FEFF 		bl	_ZN5daisy10DaisyPetal18SetAudioSampleRateENS_9SaiHandle6Config10SampleRateE
 384              	.LVL10:
  86:Pedal.cpp     **** 
 385              		.loc 17 86 2 is_stmt 1 view .LVU66
  86:Pedal.cpp     **** 
 386              		.loc 17 86 13 is_stmt 0 view .LVU67
 387 0022 2648     		ldr	r0, .L16
 388 0024 FFF7FEFF 		bl	_ZN5daisy10DaisyPetal8StartAdcEv
 389              	.LVL11:
  88:Pedal.cpp     **** 	//delay.initDelayReverse(delayMems);
 390              		.loc 17 88 2 is_stmt 1 view .LVU68
  88:Pedal.cpp     **** 	//delay.initDelayReverse(delayMems);
 391              		.loc 17 88 17 is_stmt 0 view .LVU69
 392 0028 2549     		ldr	r1, .L16+4
 393 002a 2648     		ldr	r0, .L16+8
 394 002c FFF7FEFF 		bl	_ZN5Delay9initDelayEPN7daisysp9DelayLineIfLj96000EEE
 395              	.LVL12:
  90:Pedal.cpp     **** 	crossFade.Init();
 396              		.loc 17 90 2 is_stmt 1 view .LVU70
  90:Pedal.cpp     **** 	crossFade.Init();
 397              		.loc 17 90 14 is_stmt 0 view .LVU71
 398 0030 9FED250A 		vldr.32	s0, .L16+12
 399 0034 2348     		ldr	r0, .L16+8
 400 0036 FFF7FEFF 		bl	_ZN5Delay6setBPMEf
 401              	.LVL13:
  91:Pedal.cpp     **** 	crossFade.SetCurve(CROSSFADE_CPOW);
 402              		.loc 17 91 2 is_stmt 1 view .LVU72
 403              	.LBB316:
 404              	.LBI302:
  46:../../DaisySP//Source/Dynamics/crossfade.h ****         curve_ = curve < CROSSFADE_LAST ? curve : CROSSFADE_LIN;
  47:../../DaisySP//Source/Dynamics/crossfade.h ****     }
  48:../../DaisySP//Source/Dynamics/crossfade.h **** 
  49:../../DaisySP//Source/Dynamics/crossfade.h ****     /** Initialize with default linear curve 
  50:../../DaisySP//Source/Dynamics/crossfade.h ****     */
  51:../../DaisySP//Source/Dynamics/crossfade.h ****     inline void Init() { Init(CROSSFADE_LIN); }
 405              		.loc 13 51 17 view .LVU73
 406              	.LBE316:
ARM GAS  /var/folders/fs/ht5wlc7s7b56r9p0ngl7ssgc0000gn/T//ccz1LIsm.s 			page 22


 407              		.loc 13 51 26 view .LVU74
 408              	.LBB317:
 409              	.LBB307:
 410              	.LBI303:
  43:../../DaisySP//Source/Dynamics/crossfade.h ****     {
 411              		.loc 13 43 17 view .LVU75
 412              	.LBB305:
  45:../../DaisySP//Source/Dynamics/crossfade.h ****         curve_ = curve < CROSSFADE_LAST ? curve : CROSSFADE_LIN;
 413              		.loc 13 45 9 view .LVU76
  45:../../DaisySP//Source/Dynamics/crossfade.h ****         curve_ = curve < CROSSFADE_LAST ? curve : CROSSFADE_LIN;
 414              		.loc 13 45 16 is_stmt 0 view .LVU77
 415 003a 244B     		ldr	r3, .L16+16
 416              	.LBE305:
 417              	.LBE307:
 418              	.LBE317:
 419              	.LBB318:
 420              	.LBB319:
  52:../../DaisySP//Source/Dynamics/crossfade.h ****     /** processes CrossFade and returns single sample
  53:../../DaisySP//Source/Dynamics/crossfade.h ****     */
  54:../../DaisySP//Source/Dynamics/crossfade.h ****     float Process(float &in1, float &in2);
  55:../../DaisySP//Source/Dynamics/crossfade.h **** 
  56:../../DaisySP//Source/Dynamics/crossfade.h **** 
  57:../../DaisySP//Source/Dynamics/crossfade.h ****     /** Sets position of CrossFade between two input signals
  58:../../DaisySP//Source/Dynamics/crossfade.h ****         Input range: 0 to 1
  59:../../DaisySP//Source/Dynamics/crossfade.h ****     */
  60:../../DaisySP//Source/Dynamics/crossfade.h ****     inline void SetPos(float pos) { pos_ = pos; }
  61:../../DaisySP//Source/Dynamics/crossfade.h ****     /** Sets current curve applied to CrossFade 
  62:../../DaisySP//Source/Dynamics/crossfade.h ****     Expected input: See [Curve Options](##curve-options)
  63:../../DaisySP//Source/Dynamics/crossfade.h ****     */
  64:../../DaisySP//Source/Dynamics/crossfade.h ****     inline void SetCurve(uint8_t curve) { curve_ = curve; }
 421              		.loc 13 64 50 view .LVU78
 422 003c 0122     		movs	r2, #1
 423              	.LBE319:
 424              	.LBE318:
  93:Pedal.cpp     **** 	initParams();
 425              		.loc 17 93 14 view .LVU79
 426 003e 1F48     		ldr	r0, .L16
 427              	.LBB321:
 428              	.LBB308:
 429              	.LBB306:
  45:../../DaisySP//Source/Dynamics/crossfade.h ****         curve_ = curve < CROSSFADE_LAST ? curve : CROSSFADE_LIN;
 430              		.loc 13 45 16 view .LVU80
 431 0040 1D60     		str	r5, [r3]	@ float
  46:../../DaisySP//Source/Dynamics/crossfade.h ****     }
 432              		.loc 13 46 9 is_stmt 1 view .LVU81
 433              	.LVL14:
  46:../../DaisySP//Source/Dynamics/crossfade.h ****     }
 434              		.loc 13 46 9 is_stmt 0 view .LVU82
 435              	.LBE306:
 436              	.LBE308:
 437              	.LBE321:
  92:Pedal.cpp     **** 	balance.Init(hw.AudioSampleRate());
 438              		.loc 17 92 2 is_stmt 1 view .LVU83
 439              	.LBB322:
 440              	.LBI318:
 441              		.loc 13 64 17 view .LVU84
 442              	.LBB320:
ARM GAS  /var/folders/fs/ht5wlc7s7b56r9p0ngl7ssgc0000gn/T//ccz1LIsm.s 			page 23


 443              		.loc 13 64 43 view .LVU85
 444              		.loc 13 64 50 is_stmt 0 view .LVU86
 445 0042 1A71     		strb	r2, [r3, #4]
 446              	.LVL15:
 447              		.loc 13 64 50 view .LVU87
 448              	.LBE320:
 449              	.LBE322:
  93:Pedal.cpp     **** 	initParams();
 450              		.loc 17 93 2 is_stmt 1 view .LVU88
  93:Pedal.cpp     **** 	initParams();
 451              		.loc 17 93 14 is_stmt 0 view .LVU89
 452 0044 FFF7FEFF 		bl	_ZN5daisy10DaisyPetal15AudioSampleRateEv
 453              	.LVL16:
 454 0048 2148     		ldr	r0, .L16+20
 455 004a FFF7FEFF 		bl	_ZN7daisysp7Balance4InitEf
 456              	.LVL17:
  94:Pedal.cpp     **** 
 457              		.loc 17 94 2 is_stmt 1 view .LVU90
 458              	.LBB323:
 459              	.LBB311:
  44:../../DaisySP//Source/Synthesis/oscillator.h ****         sr_recip_  = 1.0f / sample_rate;
 460              		.loc 11 44 20 is_stmt 0 view .LVU91
 461 004e 214C     		ldr	r4, .L16+24
 462              	.LBE311:
 463              	.LBE323:
  94:Pedal.cpp     **** 
 464              		.loc 17 94 12 view .LVU92
 465 0050 FFF7FEFF 		bl	_Z10initParamsv
 466              	.LVL18:
  96:Pedal.cpp     **** osc.SetWaveform(Oscillator::WAVE_SIN);
 467              		.loc 17 96 1 is_stmt 1 view .LVU93
  96:Pedal.cpp     **** osc.SetWaveform(Oscillator::WAVE_SIN);
 468              		.loc 17 96 9 is_stmt 0 view .LVU94
 469 0054 1948     		ldr	r0, .L16
 470 0056 FFF7FEFF 		bl	_ZN5daisy10DaisyPetal15AudioSampleRateEv
 471              	.LVL19:
 472 005a F0EE407A 		vmov.f32	s15, s0
 473              	.LVL20:
 474              	.LBB324:
 475              	.LBI309:
  42:../../DaisySP//Source/Synthesis/oscillator.h ****     {
 476              		.loc 11 42 10 is_stmt 1 view .LVU95
 477              	.LBB312:
  44:../../DaisySP//Source/Synthesis/oscillator.h ****         sr_recip_  = 1.0f / sample_rate;
 478              		.loc 11 44 9 view .LVU96
  46:../../DaisySP//Source/Synthesis/oscillator.h ****         freq_      = 100.0f;
 479              		.loc 11 46 20 is_stmt 0 view .LVU97
 480 005e 9FED1E7A 		vldr.32	s14, .L16+28
  47:../../DaisySP//Source/Synthesis/oscillator.h ****         amp_       = 0.5f;
  48:../../DaisySP//Source/Synthesis/oscillator.h ****         pw_        = 0.5f;
  49:../../DaisySP//Source/Synthesis/oscillator.h ****         pw_rad_    = pw_ * TWOPI_F;
  50:../../DaisySP//Source/Synthesis/oscillator.h ****         phase_     = 0.0f;
 481              		.loc 11 50 20 view .LVU98
 482 0062 0023     		movs	r3, #0
  49:../../DaisySP//Source/Synthesis/oscillator.h ****         phase_     = 0.0f;
 483              		.loc 11 49 20 view .LVU99
 484 0064 1D4A     		ldr	r2, .L16+32
ARM GAS  /var/folders/fs/ht5wlc7s7b56r9p0ngl7ssgc0000gn/T//ccz1LIsm.s 			page 24


  51:../../DaisySP//Source/Synthesis/oscillator.h ****         phase_inc_ = CalcPhaseInc(freq_);
 485              		.loc 11 51 34 view .LVU100
 486 0066 2046     		mov	r0, r4
  45:../../DaisySP//Source/Synthesis/oscillator.h ****         freq_      = 100.0f;
 487              		.loc 11 45 27 view .LVU101
 488 0068 C8EE276A 		vdiv.f32	s13, s16, s15
  44:../../DaisySP//Source/Synthesis/oscillator.h ****         sr_recip_  = 1.0f / sample_rate;
 489              		.loc 11 44 20 view .LVU102
 490 006c C4ED057A 		vstr.32	s15, [r4, #20]
  45:../../DaisySP//Source/Synthesis/oscillator.h ****         freq_      = 100.0f;
 491              		.loc 11 45 9 is_stmt 1 view .LVU103
  46:../../DaisySP//Source/Synthesis/oscillator.h ****         amp_       = 0.5f;
 492              		.loc 11 46 20 is_stmt 0 view .LVU104
 493 0070 84ED027A 		vstr.32	s14, [r4, #8]
  49:../../DaisySP//Source/Synthesis/oscillator.h ****         phase_     = 0.0f;
 494              		.loc 11 49 20 view .LVU105
 495 0074 2261     		str	r2, [r4, #16]	@ float
  50:../../DaisySP//Source/Synthesis/oscillator.h ****         phase_inc_ = CalcPhaseInc(freq_);
 496              		.loc 11 50 20 view .LVU106
 497 0076 E361     		str	r3, [r4, #28]	@ float
  47:../../DaisySP//Source/Synthesis/oscillator.h ****         pw_        = 0.5f;
 498              		.loc 11 47 20 view .LVU107
 499 0078 6560     		str	r5, [r4, #4]	@ float
 500              		.loc 11 51 34 view .LVU108
 501 007a B0EE470A 		vmov.f32	s0, s14
 502              	.LVL21:
  48:../../DaisySP//Source/Synthesis/oscillator.h ****         pw_rad_    = pw_ * TWOPI_F;
 503              		.loc 11 48 20 view .LVU109
 504 007e E560     		str	r5, [r4, #12]	@ float
  45:../../DaisySP//Source/Synthesis/oscillator.h ****         freq_      = 100.0f;
 505              		.loc 11 45 20 view .LVU110
 506 0080 C4ED066A 		vstr.32	s13, [r4, #24]
  46:../../DaisySP//Source/Synthesis/oscillator.h ****         amp_       = 0.5f;
 507              		.loc 11 46 9 is_stmt 1 view .LVU111
  47:../../DaisySP//Source/Synthesis/oscillator.h ****         pw_        = 0.5f;
 508              		.loc 11 47 9 view .LVU112
  48:../../DaisySP//Source/Synthesis/oscillator.h ****         pw_rad_    = pw_ * TWOPI_F;
 509              		.loc 11 48 9 view .LVU113
  49:../../DaisySP//Source/Synthesis/oscillator.h ****         phase_     = 0.0f;
 510              		.loc 11 49 9 view .LVU114
  50:../../DaisySP//Source/Synthesis/oscillator.h ****         phase_inc_ = CalcPhaseInc(freq_);
 511              		.loc 11 50 9 view .LVU115
 512              		.loc 11 51 9 view .LVU116
 513              		.loc 11 51 34 is_stmt 0 view .LVU117
 514 0084 FFF7FEFF 		bl	_ZN7daisysp10Oscillator12CalcPhaseIncEf
 515              	.LVL22:
 516              		.loc 11 51 34 view .LVU118
 517              	.LBE312:
 518              	.LBE324:
 519              	.LBB325:
 520              	.LBB326:
  52:../../DaisySP//Source/Synthesis/oscillator.h ****         waveform_  = WAVE_SIN;
  53:../../DaisySP//Source/Synthesis/oscillator.h ****         eoc_       = true;
  54:../../DaisySP//Source/Synthesis/oscillator.h ****         eor_       = true;
  55:../../DaisySP//Source/Synthesis/oscillator.h ****     }
  56:../../DaisySP//Source/Synthesis/oscillator.h **** 
  57:../../DaisySP//Source/Synthesis/oscillator.h **** 
ARM GAS  /var/folders/fs/ht5wlc7s7b56r9p0ngl7ssgc0000gn/T//ccz1LIsm.s 			page 25


  58:../../DaisySP//Source/Synthesis/oscillator.h ****     /** Changes the frequency of the Oscillator, and recalculates phase increment.
  59:../../DaisySP//Source/Synthesis/oscillator.h ****     */
  60:../../DaisySP//Source/Synthesis/oscillator.h ****     inline void SetFreq(const float f)
  61:../../DaisySP//Source/Synthesis/oscillator.h ****     {
  62:../../DaisySP//Source/Synthesis/oscillator.h ****         freq_      = f;
 521              		.loc 11 62 20 view .LVU119
 522 0088 F3EE047A 		vmov.f32	s15, #2.0e+1
 523              	.LBE326:
 524              	.LBE325:
 525              	.LBB331:
 526              	.LBB313:
  52:../../DaisySP//Source/Synthesis/oscillator.h ****         waveform_  = WAVE_SIN;
 527              		.loc 11 52 20 view .LVU120
 528 008c 0022     		movs	r2, #0
  54:../../DaisySP//Source/Synthesis/oscillator.h ****     }
 529              		.loc 11 54 20 view .LVU121
 530 008e 40F20113 		movw	r3, #257
 531              	.LBE313:
 532              	.LBE331:
 533              	.LBB332:
 534              	.LBB327:
  63:../../DaisySP//Source/Synthesis/oscillator.h ****         phase_inc_ = CalcPhaseInc(f);
 535              		.loc 11 63 34 view .LVU122
 536 0092 2046     		mov	r0, r4
 537              	.LBE327:
 538              	.LBE332:
 539              	.LBB333:
 540              	.LBB314:
  51:../../DaisySP//Source/Synthesis/oscillator.h ****         waveform_  = WAVE_SIN;
 541              		.loc 11 51 20 view .LVU123
 542 0094 84ED080A 		vstr.32	s0, [r4, #32]
  52:../../DaisySP//Source/Synthesis/oscillator.h ****         eoc_       = true;
 543              		.loc 11 52 9 is_stmt 1 view .LVU124
 544              	.LBE314:
 545              	.LBE333:
 546              	.LBB334:
 547              	.LBB328:
 548              		.loc 11 63 34 is_stmt 0 view .LVU125
 549 0098 B0EE670A 		vmov.f32	s0, s15
 550              	.LBE328:
 551              	.LBE334:
 552              	.LBB335:
 553              	.LBB315:
  52:../../DaisySP//Source/Synthesis/oscillator.h ****         eoc_       = true;
 554              		.loc 11 52 20 view .LVU126
 555 009c 2270     		strb	r2, [r4]
  53:../../DaisySP//Source/Synthesis/oscillator.h ****         eor_       = true;
 556              		.loc 11 53 9 is_stmt 1 view .LVU127
  54:../../DaisySP//Source/Synthesis/oscillator.h ****     }
 557              		.loc 11 54 9 view .LVU128
  54:../../DaisySP//Source/Synthesis/oscillator.h ****     }
 558              		.loc 11 54 20 is_stmt 0 view .LVU129
 559 009e A385     		strh	r3, [r4, #44]	@ movhi
 560              	.LVL23:
  54:../../DaisySP//Source/Synthesis/oscillator.h ****     }
 561              		.loc 11 54 20 view .LVU130
 562              	.LBE315:
ARM GAS  /var/folders/fs/ht5wlc7s7b56r9p0ngl7ssgc0000gn/T//ccz1LIsm.s 			page 26


 563              	.LBE335:
  97:Pedal.cpp     **** osc.SetAmp(1);
 564              		.loc 17 97 1 is_stmt 1 view .LVU131
  64:../../DaisySP//Source/Synthesis/oscillator.h ****     }
  65:../../DaisySP//Source/Synthesis/oscillator.h **** 
  66:../../DaisySP//Source/Synthesis/oscillator.h **** 
  67:../../DaisySP//Source/Synthesis/oscillator.h ****     /** Sets the amplitude of the waveform.
  68:../../DaisySP//Source/Synthesis/oscillator.h ****     */
  69:../../DaisySP//Source/Synthesis/oscillator.h ****     inline void SetAmp(const float a) { amp_ = a; }
  70:../../DaisySP//Source/Synthesis/oscillator.h ****     /** Sets the waveform to be synthesized by the Process() function.
  71:../../DaisySP//Source/Synthesis/oscillator.h ****     */
  72:../../DaisySP//Source/Synthesis/oscillator.h ****     inline void SetWaveform(const uint8_t wf)
  73:../../DaisySP//Source/Synthesis/oscillator.h ****     {
  74:../../DaisySP//Source/Synthesis/oscillator.h ****         waveform_ = wf < WAVE_LAST ? wf : WAVE_SIN;
 565              		.loc 11 74 9 view .LVU132
  98:Pedal.cpp     **** osc.SetFreq(20);
 566              		.loc 17 98 1 view .LVU133
 567              	.LBB336:
 568              	.LBI336:
  69:../../DaisySP//Source/Synthesis/oscillator.h ****     /** Sets the waveform to be synthesized by the Process() function.
 569              		.loc 11 69 17 view .LVU134
 570              	.LBB337:
  69:../../DaisySP//Source/Synthesis/oscillator.h ****     /** Sets the waveform to be synthesized by the Process() function.
 571              		.loc 11 69 41 view .LVU135
  69:../../DaisySP//Source/Synthesis/oscillator.h ****     /** Sets the waveform to be synthesized by the Process() function.
 572              		.loc 11 69 46 is_stmt 0 view .LVU136
 573 00a0 84ED018A 		vstr.32	s16, [r4, #4]
 574              	.LVL24:
  69:../../DaisySP//Source/Synthesis/oscillator.h ****     /** Sets the waveform to be synthesized by the Process() function.
 575              		.loc 11 69 46 view .LVU137
 576              	.LBE337:
 577              	.LBE336:
  99:Pedal.cpp     **** 
 578              		.loc 17 99 1 is_stmt 1 view .LVU138
 579              	.LBB338:
 580              	.LBI325:
  60:../../DaisySP//Source/Synthesis/oscillator.h ****     {
 581              		.loc 11 60 17 view .LVU139
 582              	.LBB329:
  62:../../DaisySP//Source/Synthesis/oscillator.h ****         phase_inc_ = CalcPhaseInc(f);
 583              		.loc 11 62 9 view .LVU140
  62:../../DaisySP//Source/Synthesis/oscillator.h ****         phase_inc_ = CalcPhaseInc(f);
 584              		.loc 11 62 20 is_stmt 0 view .LVU141
 585 00a4 C4ED027A 		vstr.32	s15, [r4, #8]
  63:../../DaisySP//Source/Synthesis/oscillator.h ****     }
 586              		.loc 11 63 9 is_stmt 1 view .LVU142
  63:../../DaisySP//Source/Synthesis/oscillator.h ****     }
 587              		.loc 11 63 34 is_stmt 0 view .LVU143
 588 00a8 FFF7FEFF 		bl	_ZN7daisysp10Oscillator12CalcPhaseIncEf
 589              	.LVL25:
 590              	.LBE329:
 591              	.LBE338:
 101:Pedal.cpp     **** 	while(1) {}
 592              		.loc 17 101 15 view .LVU144
 593 00ac 0C49     		ldr	r1, .L16+36
 594 00ae 0348     		ldr	r0, .L16
 595              	.LBB339:
ARM GAS  /var/folders/fs/ht5wlc7s7b56r9p0ngl7ssgc0000gn/T//ccz1LIsm.s 			page 27


 596              	.LBB330:
  63:../../DaisySP//Source/Synthesis/oscillator.h ****     }
 597              		.loc 11 63 20 view .LVU145
 598 00b0 84ED080A 		vstr.32	s0, [r4, #32]
 599              	.LVL26:
  63:../../DaisySP//Source/Synthesis/oscillator.h ****     }
 600              		.loc 11 63 20 view .LVU146
 601              	.LBE330:
 602              	.LBE339:
 101:Pedal.cpp     **** 	while(1) {}
 603              		.loc 17 101 2 is_stmt 1 view .LVU147
 101:Pedal.cpp     **** 	while(1) {}
 604              		.loc 17 101 15 is_stmt 0 view .LVU148
 605 00b4 FFF7FEFF 		bl	_ZN5daisy10DaisyPetal10StartAudioEPFvPKPKfPPfjE
 606              	.LVL27:
 607              	.L14:
 102:Pedal.cpp     **** }
 608              		.loc 17 102 2 is_stmt 1 discriminator 1 view .LVU149
 102:Pedal.cpp     **** }
 609              		.loc 17 102 2 discriminator 1 view .LVU150
 102:Pedal.cpp     **** }
 610              		.loc 17 102 2 discriminator 1 view .LVU151
 102:Pedal.cpp     **** }
 611              		.loc 17 102 2 discriminator 1 view .LVU152
 612 00b8 FEE7     		b	.L14
 613              	.L17:
 614 00ba 00BF     		.align	2
 615              	.L16:
 616 00bc 00000000 		.word	.LANCHOR0
 617 00c0 00000000 		.word	delayMems
 618 00c4 00000000 		.word	.LANCHOR3
 619 00c8 0000B442 		.word	1119092736
 620 00cc 00000000 		.word	.LANCHOR4
 621 00d0 00000000 		.word	.LANCHOR5
 622 00d4 00000000 		.word	.LANCHOR6
 623 00d8 0000C842 		.word	1120403456
 624 00dc DB0F4940 		.word	1078530011
 625 00e0 00000000 		.word	_Z13AudioCallbackPKPKfPPfj
 626              		.cfi_endproc
 627              	.LFE4823:
 629              		.section	.text._Z15processControlsv,"ax",%progbits
 630              		.align	1
 631              		.p2align 2,,3
 632              		.global	_Z15processControlsv
 633              		.syntax unified
 634              		.thumb
 635              		.thumb_func
 637              	_Z15processControlsv:
 638              	.LFB4825:
 111:Pedal.cpp     **** 
 112:Pedal.cpp     **** void processControls()
 113:Pedal.cpp     **** {
 639              		.loc 17 113 1 view -0
 640              		.cfi_startproc
 641              		@ args = 0, pretend = 0, frame = 8
 642              		@ frame_needed = 0, uses_anonymous_args = 0
 114:Pedal.cpp     **** 	bool tapping = false;
ARM GAS  /var/folders/fs/ht5wlc7s7b56r9p0ngl7ssgc0000gn/T//ccz1LIsm.s 			page 28


 643              		.loc 17 114 2 view .LVU154
 644              	.LVL28:
 115:Pedal.cpp     **** 
 116:Pedal.cpp     **** 	/***************PROCESS FOOTSWITCHES*****************/
 117:Pedal.cpp     **** 	if(hw.switches[Terrarium::FOOTSWITCH_2].RisingEdge())
 645              		.loc 17 117 2 view .LVU155
 646              	.LBB340:
 647              	.LBI340:
  43:../../libDaisy//src/hid/switch.h **** 
  44:../../libDaisy//src/hid/switch.h ****     /** 
  45:../../libDaisy//src/hid/switch.h ****     Initializes the switch object with a given port/pin combo.
  46:../../libDaisy//src/hid/switch.h ****     \param pin port/pin object to tell the switch which hardware pin to use.
  47:../../libDaisy//src/hid/switch.h ****     \param update_rate Does nothing. Backwards compatibility until next breaking update.
  48:../../libDaisy//src/hid/switch.h ****     \param t switch type -- Default: TYPE_MOMENTARY
  49:../../libDaisy//src/hid/switch.h ****     \param pol switch polarity -- Default: POLARITY_INVERTED
  50:../../libDaisy//src/hid/switch.h ****     \param pu switch pull up/down -- Default: PULL_UP
  51:../../libDaisy//src/hid/switch.h ****     */
  52:../../libDaisy//src/hid/switch.h ****     void
  53:../../libDaisy//src/hid/switch.h ****     Init(dsy_gpio_pin pin, float update_rate, Type t, Polarity pol, Pull pu);
  54:../../libDaisy//src/hid/switch.h **** 
  55:../../libDaisy//src/hid/switch.h ****     /**
  56:../../libDaisy//src/hid/switch.h ****        Simplified Init.
  57:../../libDaisy//src/hid/switch.h ****        \param pin port/pin object to tell the switch which hardware pin to use.
  58:../../libDaisy//src/hid/switch.h ****        \param update_rate Left for backwards compatibility until next breaking change.
  59:../../libDaisy//src/hid/switch.h ****     */
  60:../../libDaisy//src/hid/switch.h ****     void Init(dsy_gpio_pin pin, float update_rate = 0.f);
  61:../../libDaisy//src/hid/switch.h **** 
  62:../../libDaisy//src/hid/switch.h ****     /** 
  63:../../libDaisy//src/hid/switch.h ****     Called at update_rate to debounce and handle timing for the switch.
  64:../../libDaisy//src/hid/switch.h ****     In order for events not to be missed, its important that the Edge/Pressed checks
  65:../../libDaisy//src/hid/switch.h ****     be made at the same rate as the debounce function is being called.
  66:../../libDaisy//src/hid/switch.h ****     */
  67:../../libDaisy//src/hid/switch.h ****     void Debounce();
  68:../../libDaisy//src/hid/switch.h **** 
  69:../../libDaisy//src/hid/switch.h ****     /** \return true if a button was just pressed. */
  70:../../libDaisy//src/hid/switch.h ****     inline bool RisingEdge() const { return updated_ ? state_ == 0x7f : false; }
 648              		.loc 5 70 17 view .LVU156
 649              	.LBB341:
 650              		.loc 5 70 38 view .LVU157
 651              	.LBE341:
 652              	.LBE340:
 113:Pedal.cpp     **** 	bool tapping = false;
 653              		.loc 17 113 1 is_stmt 0 view .LVU158
 654 0000 70B5     		push	{r4, r5, r6, lr}
 655              		.cfi_def_cfa_offset 16
 656              		.cfi_offset 4, -16
 657              		.cfi_offset 5, -12
 658              		.cfi_offset 6, -8
 659              		.cfi_offset 14, -4
 660              	.LBB344:
 661              	.LBB342:
 662              		.loc 5 70 45 view .LVU159
 663 0002 644C     		ldr	r4, .L48
 664              		.loc 5 70 54 view .LVU160
 665 0004 94F89831 		ldrb	r3, [r4, #408]	@ zero_extendqisi2
 666              	.LBE342:
 667              	.LBE344:
ARM GAS  /var/folders/fs/ht5wlc7s7b56r9p0ngl7ssgc0000gn/T//ccz1LIsm.s 			page 29


 113:Pedal.cpp     **** 	bool tapping = false;
 668              		.loc 17 113 1 view .LVU161
 669 0008 2DED028B 		vpush.64	{d8}
 670              		.cfi_def_cfa_offset 24
 671              		.cfi_offset 80, -24
 672              		.cfi_offset 81, -20
 673 000c 82B0     		sub	sp, sp, #8
 674              		.cfi_def_cfa_offset 32
 675              	.LBB345:
 676              	.LBB343:
 677              		.loc 5 70 54 view .LVU162
 678 000e 23B1     		cbz	r3, .L20
 679              	.LVL29:
 680              		.loc 5 70 54 view .LVU163
 681              	.LBE343:
 682              	.LBE345:
 683              		.loc 17 117 2 view .LVU164
 684 0010 94F89E31 		ldrb	r3, [r4, #414]	@ zero_extendqisi2
 685 0014 7F2B     		cmp	r3, #127
 686 0016 00F08E80 		beq	.L43
 687              	.L20:
 118:Pedal.cpp     **** 	{
 119:Pedal.cpp     **** 		bypass = !bypass;
 120:Pedal.cpp     **** 
 121:Pedal.cpp     **** 		if(bypass)
 122:Pedal.cpp     **** 			delay.clear();
 123:Pedal.cpp     **** 	}
 124:Pedal.cpp     **** 	if(hw.switches[Terrarium::FOOTSWITCH_1].RisingEdge())
 688              		.loc 17 124 2 is_stmt 1 view .LVU165
 689              	.LVL30:
 690              	.LBB346:
 691              	.LBI346:
 692              		.loc 5 70 17 view .LVU166
 693              	.LBB347:
 694              		.loc 5 70 38 view .LVU167
 695              		.loc 5 70 45 is_stmt 0 view .LVU168
 696 001a 94F88811 		ldrb	r1, [r4, #392]	@ zero_extendqisi2
 697              		.loc 5 70 54 view .LVU169
 698 001e 31B1     		cbz	r1, .L22
 699              	.LVL31:
 700              		.loc 5 70 54 view .LVU170
 701              	.LBE347:
 702              	.LBE346:
 703              		.loc 17 124 2 view .LVU171
 704 0020 94F88E11 		ldrb	r1, [r4, #398]	@ zero_extendqisi2
 705 0024 A1F17F01 		sub	r1, #127
 706 0028 B1FA81F1 		clz	r1, r1
 707 002c 4909     		lsrs	r1, r1, #5
 708              	.L22:
 709              	.LVL32:
 125:Pedal.cpp     **** 		tapping = !tapping;
 126:Pedal.cpp     **** 
 127:Pedal.cpp     **** 	tapTempo.update(tapping);
 710              		.loc 17 127 2 is_stmt 1 view .LVU172
 711              		.loc 17 127 17 is_stmt 0 view .LVU173
 712 002e 5A48     		ldr	r0, .L48+4
 128:Pedal.cpp     **** 	delay.setBPM(tapTempo.getBPM());
ARM GAS  /var/folders/fs/ht5wlc7s7b56r9p0ngl7ssgc0000gn/T//ccz1LIsm.s 			page 30


 129:Pedal.cpp     **** 
 130:Pedal.cpp     **** 	/***************************************************/
 131:Pedal.cpp     **** 
 132:Pedal.cpp     **** 	/***************PROCESS SWITCHES*****************/
 133:Pedal.cpp     **** 	if(hw.switches[Terrarium::SWITCH_1].Pressed())
 134:Pedal.cpp     **** 		delay.enableHead(0);
 713              		.loc 17 134 19 view .LVU174
 714 0030 01AD     		add	r5, sp, #4
 127:Pedal.cpp     **** 	delay.setBPM(tapTempo.getBPM());
 715              		.loc 17 127 17 view .LVU175
 716 0032 FFF7FEFF 		bl	_ZN8TapTempo6updateEb
 717              	.LVL33:
 128:Pedal.cpp     **** 	delay.setBPM(tapTempo.getBPM());
 718              		.loc 17 128 2 is_stmt 1 view .LVU176
 128:Pedal.cpp     **** 	delay.setBPM(tapTempo.getBPM());
 719              		.loc 17 128 14 is_stmt 0 view .LVU177
 720 0036 5848     		ldr	r0, .L48+4
 721 0038 FFF7FEFF 		bl	_ZN8TapTempo6getBPMEv
 722              	.LVL34:
 723 003c 5748     		ldr	r0, .L48+8
 724 003e FFF7FEFF 		bl	_ZN5Delay6setBPMEf
 725              	.LVL35:
 133:Pedal.cpp     **** 		delay.enableHead(0);
 726              		.loc 17 133 2 is_stmt 1 view .LVU178
 727              	.LBB348:
 728              	.LBI348:
  71:../../libDaisy//src/hid/switch.h **** 
  72:../../libDaisy//src/hid/switch.h ****     /** \return true if the button was just released */
  73:../../libDaisy//src/hid/switch.h ****     inline bool FallingEdge() const
  74:../../libDaisy//src/hid/switch.h ****     {
  75:../../libDaisy//src/hid/switch.h ****         return updated_ ? state_ == 0x80 : false;
  76:../../libDaisy//src/hid/switch.h ****     }
  77:../../libDaisy//src/hid/switch.h **** 
  78:../../libDaisy//src/hid/switch.h ****     /** \return true if the button is held down (or if the toggle is on) */
  79:../../libDaisy//src/hid/switch.h ****     inline bool Pressed() const { return state_ == 0xff; }
 729              		.loc 5 79 17 view .LVU179
 730              	.LBB349:
 731              		.loc 5 79 35 view .LVU180
 732              		.loc 5 79 35 is_stmt 0 view .LVU181
 733              	.LBE349:
 734              	.LBE348:
 133:Pedal.cpp     **** 		delay.enableHead(0);
 735              		.loc 17 133 2 view .LVU182
 736 0042 94F86E31 		ldrb	r3, [r4, #366]	@ zero_extendqisi2
 737              		.loc 17 134 19 view .LVU183
 738 0046 5548     		ldr	r0, .L48+8
 739 0048 2946     		mov	r1, r5
 133:Pedal.cpp     **** 		delay.enableHead(0);
 740              		.loc 17 133 2 view .LVU184
 741 004a FF2B     		cmp	r3, #255
 742              		.loc 17 134 20 view .LVU185
 743 004c 4FF00003 		mov	r3, #0
 744 0050 0193     		str	r3, [sp, #4]
 133:Pedal.cpp     **** 		delay.enableHead(0);
 745              		.loc 17 133 2 view .LVU186
 746 0052 00F08580 		beq	.L44
 135:Pedal.cpp     **** 	else
ARM GAS  /var/folders/fs/ht5wlc7s7b56r9p0ngl7ssgc0000gn/T//ccz1LIsm.s 			page 31


 136:Pedal.cpp     **** 		delay.disableHead(0);
 747              		.loc 17 136 3 is_stmt 1 view .LVU187
 748              		.loc 17 136 20 is_stmt 0 view .LVU188
 749 0056 FFF7FEFF 		bl	_ZN5Delay11disableHeadERKi
 750              	.LVL36:
 751              	.L24:
 137:Pedal.cpp     **** 
 138:Pedal.cpp     **** 	if(hw.switches[Terrarium::SWITCH_2].Pressed())
 752              		.loc 17 138 2 is_stmt 1 view .LVU189
 753              	.LBB350:
 754              	.LBI350:
 755              		.loc 5 79 17 view .LVU190
 756              	.LBB351:
 757              		.loc 5 79 35 view .LVU191
 758              		.loc 5 79 35 is_stmt 0 view .LVU192
 759              	.LBE351:
 760              	.LBE350:
 761              		.loc 17 138 2 view .LVU193
 762 005a 94F85E31 		ldrb	r3, [r4, #350]	@ zero_extendqisi2
 139:Pedal.cpp     **** 		delay.enableHead(1);
 763              		.loc 17 139 19 view .LVU194
 764 005e 2946     		mov	r1, r5
 765 0060 4E48     		ldr	r0, .L48+8
 138:Pedal.cpp     **** 		delay.enableHead(1);
 766              		.loc 17 138 2 view .LVU195
 767 0062 FF2B     		cmp	r3, #255
 768              		.loc 17 139 20 view .LVU196
 769 0064 4FF00103 		mov	r3, #1
 770 0068 0193     		str	r3, [sp, #4]
 138:Pedal.cpp     **** 		delay.enableHead(1);
 771              		.loc 17 138 2 view .LVU197
 772 006a 76D0     		beq	.L45
 140:Pedal.cpp     **** 	else
 141:Pedal.cpp     **** 		delay.disableHead(1);
 773              		.loc 17 141 3 is_stmt 1 view .LVU198
 774              		.loc 17 141 20 is_stmt 0 view .LVU199
 775 006c FFF7FEFF 		bl	_ZN5Delay11disableHeadERKi
 776              	.LVL37:
 777              	.L26:
 142:Pedal.cpp     **** 
 143:Pedal.cpp     **** 	if(hw.switches[Terrarium::SWITCH_3].Pressed())
 778              		.loc 17 143 2 is_stmt 1 view .LVU200
 779              	.LBB352:
 780              	.LBI352:
 781              		.loc 5 79 17 view .LVU201
 782              	.LBB353:
 783              		.loc 5 79 35 view .LVU202
 784              		.loc 5 79 35 is_stmt 0 view .LVU203
 785              	.LBE353:
 786              	.LBE352:
 787              		.loc 17 143 2 view .LVU204
 788 0070 94F84E31 		ldrb	r3, [r4, #334]	@ zero_extendqisi2
 144:Pedal.cpp     **** 		delay.enableHead(2);
 789              		.loc 17 144 19 view .LVU205
 790 0074 2946     		mov	r1, r5
 791 0076 4948     		ldr	r0, .L48+8
 143:Pedal.cpp     **** 		delay.enableHead(2);
ARM GAS  /var/folders/fs/ht5wlc7s7b56r9p0ngl7ssgc0000gn/T//ccz1LIsm.s 			page 32


 792              		.loc 17 143 2 view .LVU206
 793 0078 FF2B     		cmp	r3, #255
 794              		.loc 17 144 20 view .LVU207
 795 007a 4FF00203 		mov	r3, #2
 796 007e 0193     		str	r3, [sp, #4]
 143:Pedal.cpp     **** 		delay.enableHead(2);
 797              		.loc 17 143 2 view .LVU208
 798 0080 68D0     		beq	.L46
 145:Pedal.cpp     **** 	else
 146:Pedal.cpp     **** 		delay.disableHead(2);	
 799              		.loc 17 146 3 is_stmt 1 view .LVU209
 800              		.loc 17 146 20 is_stmt 0 view .LVU210
 801 0082 FFF7FEFF 		bl	_ZN5Delay11disableHeadERKi
 802              	.LVL38:
 803              	.L28:
 147:Pedal.cpp     **** 
 148:Pedal.cpp     **** 	if(hw.switches[Terrarium::SWITCH_4].Pressed())
 804              		.loc 17 148 2 is_stmt 1 view .LVU211
 805              	.LBB354:
 806              	.LBI354:
 807              		.loc 5 79 17 view .LVU212
 808              	.LBB355:
 809              		.loc 5 79 35 view .LVU213
 810              		.loc 5 79 35 is_stmt 0 view .LVU214
 811              	.LBE355:
 812              	.LBE354:
 813              		.loc 17 148 2 view .LVU215
 814 0086 94F8AE31 		ldrb	r3, [r4, #430]	@ zero_extendqisi2
 149:Pedal.cpp     **** 		delay.enableHead(3);
 815              		.loc 17 149 19 view .LVU216
 816 008a 2946     		mov	r1, r5
 817 008c 4348     		ldr	r0, .L48+8
 148:Pedal.cpp     **** 		delay.enableHead(3);
 818              		.loc 17 148 2 view .LVU217
 819 008e FF2B     		cmp	r3, #255
 820              		.loc 17 149 20 view .LVU218
 821 0090 4FF00303 		mov	r3, #3
 822 0094 0193     		str	r3, [sp, #4]
 148:Pedal.cpp     **** 		delay.enableHead(3);
 823              		.loc 17 148 2 view .LVU219
 824 0096 5AD0     		beq	.L47
 150:Pedal.cpp     **** 	else
 151:Pedal.cpp     **** 		delay.disableHead(3);
 825              		.loc 17 151 3 is_stmt 1 view .LVU220
 826              		.loc 17 151 20 is_stmt 0 view .LVU221
 827 0098 FFF7FEFF 		bl	_ZN5Delay11disableHeadERKi
 828              	.LVL39:
 829              	.L30:
 152:Pedal.cpp     **** 	/************************************************/
 153:Pedal.cpp     **** 
 154:Pedal.cpp     **** 	/***************PROCESS KNOBS*****************/
 155:Pedal.cpp     **** 	dryWet = hw.knob[Terrarium::KNOB_1].Process();
 830              		.loc 17 155 2 is_stmt 1 view .LVU222
 831              		.loc 17 155 45 is_stmt 0 view .LVU223
 832 009c 4048     		ldr	r0, .L48+12
 156:Pedal.cpp     **** 	crossFade.SetPos(dryWet);
 157:Pedal.cpp     **** 
ARM GAS  /var/folders/fs/ht5wlc7s7b56r9p0ngl7ssgc0000gn/T//ccz1LIsm.s 			page 33


 158:Pedal.cpp     **** 	feedback = hw.knob[Terrarium::KNOB_2].Process();
 159:Pedal.cpp     **** 	delay.setFeedback(feedback);
 160:Pedal.cpp     **** 
 161:Pedal.cpp     **** 	toneVal = toneParam.Process();
 162:Pedal.cpp     **** 	tone.setFreq(toneVal);
 163:Pedal.cpp     **** 
 164:Pedal.cpp     **** 	float bpmFromKnob = bpmParam.Process();
 165:Pedal.cpp     **** 
 166:Pedal.cpp     **** 	// Only update the delay time from the knob if it falls within + or - the current bpm to prevent e
 167:Pedal.cpp     ****     if( bpmFromKnob > tapTempo.getBPM() - 1 &&  bpmFromKnob < tapTempo.getBPM() + 1 )
 833              		.loc 17 167 41 view .LVU224
 834 009e F7EE008A 		vmov.f32	s17, #1.0e+0
 155:Pedal.cpp     **** 	crossFade.SetPos(dryWet);
 835              		.loc 17 155 45 view .LVU225
 836 00a2 FFF7FEFF 		bl	_ZN5daisy13AnalogControl7ProcessEv
 837              	.LVL40:
 155:Pedal.cpp     **** 	crossFade.SetPos(dryWet);
 838              		.loc 17 155 9 view .LVU226
 839 00a6 3F4A     		ldr	r2, .L48+16
 840              	.LBB356:
 841              	.LBB357:
  60:../../DaisySP//Source/Dynamics/crossfade.h ****     /** Sets current curve applied to CrossFade 
 842              		.loc 13 60 42 view .LVU227
 843 00a8 3F4B     		ldr	r3, .L48+20
 844              	.LBE357:
 845              	.LBE356:
 158:Pedal.cpp     **** 	delay.setFeedback(feedback);
 846              		.loc 17 158 47 view .LVU228
 847 00aa 4048     		ldr	r0, .L48+24
 155:Pedal.cpp     **** 	crossFade.SetPos(dryWet);
 848              		.loc 17 155 9 view .LVU229
 849 00ac 82ED000A 		vstr.32	s0, [r2]
 156:Pedal.cpp     **** 
 850              		.loc 17 156 2 is_stmt 1 view .LVU230
 851              	.LVL41:
 852              	.LBB359:
 853              	.LBI356:
  60:../../DaisySP//Source/Dynamics/crossfade.h ****     /** Sets current curve applied to CrossFade 
 854              		.loc 13 60 17 view .LVU231
 855              	.LBB358:
  60:../../DaisySP//Source/Dynamics/crossfade.h ****     /** Sets current curve applied to CrossFade 
 856              		.loc 13 60 37 view .LVU232
  60:../../DaisySP//Source/Dynamics/crossfade.h ****     /** Sets current curve applied to CrossFade 
 857              		.loc 13 60 42 is_stmt 0 view .LVU233
 858 00b0 83ED000A 		vstr.32	s0, [r3]
 859              	.LVL42:
  60:../../DaisySP//Source/Dynamics/crossfade.h ****     /** Sets current curve applied to CrossFade 
 860              		.loc 13 60 42 view .LVU234
 861              	.LBE358:
 862              	.LBE359:
 158:Pedal.cpp     **** 	delay.setFeedback(feedback);
 863              		.loc 17 158 2 is_stmt 1 view .LVU235
 158:Pedal.cpp     **** 	delay.setFeedback(feedback);
 864              		.loc 17 158 47 is_stmt 0 view .LVU236
 865 00b4 FFF7FEFF 		bl	_ZN5daisy13AnalogControl7ProcessEv
 866              	.LVL43:
 158:Pedal.cpp     **** 	delay.setFeedback(feedback);
ARM GAS  /var/folders/fs/ht5wlc7s7b56r9p0ngl7ssgc0000gn/T//ccz1LIsm.s 			page 34


 867              		.loc 17 158 11 view .LVU237
 868 00b8 3D49     		ldr	r1, .L48+28
 159:Pedal.cpp     **** 
 869              		.loc 17 159 19 view .LVU238
 870 00ba 3848     		ldr	r0, .L48+8
 158:Pedal.cpp     **** 	delay.setFeedback(feedback);
 871              		.loc 17 158 11 view .LVU239
 872 00bc 81ED000A 		vstr.32	s0, [r1]
 159:Pedal.cpp     **** 
 873              		.loc 17 159 2 is_stmt 1 view .LVU240
 159:Pedal.cpp     **** 
 874              		.loc 17 159 19 is_stmt 0 view .LVU241
 875 00c0 FFF7FEFF 		bl	_ZN5Delay11setFeedbackERKf
 876              	.LVL44:
 161:Pedal.cpp     **** 	tone.setFreq(toneVal);
 877              		.loc 17 161 2 is_stmt 1 view .LVU242
 161:Pedal.cpp     **** 	tone.setFreq(toneVal);
 878              		.loc 17 161 29 is_stmt 0 view .LVU243
 879 00c4 3B48     		ldr	r0, .L48+32
 880 00c6 FFF7FEFF 		bl	_ZN5daisy9Parameter7ProcessEv
 881              	.LVL45:
 161:Pedal.cpp     **** 	tone.setFreq(toneVal);
 882              		.loc 17 161 10 view .LVU244
 883 00ca 3B4B     		ldr	r3, .L48+36
 162:Pedal.cpp     **** 
 884              		.loc 17 162 14 view .LVU245
 885 00cc 3B48     		ldr	r0, .L48+40
 161:Pedal.cpp     **** 	tone.setFreq(toneVal);
 886              		.loc 17 161 10 view .LVU246
 887 00ce 83ED000A 		vstr.32	s0, [r3]
 162:Pedal.cpp     **** 
 888              		.loc 17 162 2 is_stmt 1 view .LVU247
 162:Pedal.cpp     **** 
 889              		.loc 17 162 14 is_stmt 0 view .LVU248
 890 00d2 FFF7FEFF 		bl	_ZN10ToneFilter7setFreqEf
 891              	.LVL46:
 164:Pedal.cpp     **** 
 892              		.loc 17 164 2 is_stmt 1 view .LVU249
 164:Pedal.cpp     **** 
 893              		.loc 17 164 38 is_stmt 0 view .LVU250
 894 00d6 3A48     		ldr	r0, .L48+44
 895 00d8 FFF7FEFF 		bl	_ZN5daisy9Parameter7ProcessEv
 896              	.LVL47:
 897              		.loc 17 167 38 view .LVU251
 898 00dc 2E48     		ldr	r0, .L48+4
 164:Pedal.cpp     **** 
 899              		.loc 17 164 38 view .LVU252
 900 00de B0EE408A 		vmov.f32	s16, s0
 901              	.LVL48:
 902              		.loc 17 167 5 is_stmt 1 view .LVU253
 903              		.loc 17 167 38 is_stmt 0 view .LVU254
 904 00e2 FFF7FEFF 		bl	_ZN8TapTempo6getBPMEv
 905              	.LVL49:
 906              		.loc 17 167 41 view .LVU255
 907 00e6 30EE680A 		vsub.f32	s0, s0, s17
 908              		.loc 17 167 45 view .LVU256
 909 00ea B4EEC80A 		vcmpe.f32	s0, s16
ARM GAS  /var/folders/fs/ht5wlc7s7b56r9p0ngl7ssgc0000gn/T//ccz1LIsm.s 			page 35


 910 00ee F1EE10FA 		vmrs	APSR_nzcv, FPSCR
 911 00f2 38D4     		bmi	.L31
 912 00f4 334E     		ldr	r6, .L48+48
 913              	.L32:
 168:Pedal.cpp     ****     {    
 169:Pedal.cpp     **** 		tapTempo.setBPM(bpmFromKnob);
 170:Pedal.cpp     **** 		delay.setBPM(bpm);
 171:Pedal.cpp     **** 	}
 172:Pedal.cpp     **** 
 173:Pedal.cpp     **** 	color = hw.knob[Terrarium::KNOB_5].Process();
 914              		.loc 17 173 2 is_stmt 1 view .LVU257
 915              		.loc 17 173 8 is_stmt 0 view .LVU258
 916 00f6 344C     		ldr	r4, .L48+52
 917              		.loc 17 173 44 view .LVU259
 918 00f8 3448     		ldr	r0, .L48+56
 919 00fa FFF7FEFF 		bl	_ZN5daisy13AnalogControl7ProcessEv
 920              	.LVL50:
 174:Pedal.cpp     **** 	
 175:Pedal.cpp     **** 	/*********************************************/
 176:Pedal.cpp     **** 
 177:Pedal.cpp     **** 	bpm = tapTempo.getBPM();
 921              		.loc 17 177 23 view .LVU260
 922 00fe 2648     		ldr	r0, .L48+4
 173:Pedal.cpp     **** 	
 923              		.loc 17 173 8 view .LVU261
 924 0100 84ED000A 		vstr.32	s0, [r4]
 925              		.loc 17 177 2 is_stmt 1 view .LVU262
 926              		.loc 17 177 23 is_stmt 0 view .LVU263
 927 0104 FFF7FEFF 		bl	_ZN8TapTempo6getBPMEv
 928              	.LVL51:
 178:Pedal.cpp     **** 	delay.setModulation((16*color)*osc.Process());
 929              		.loc 17 178 25 view .LVU264
 930 0108 F3EE007A 		vmov.f32	s15, #1.6e+1
 931 010c 94ED008A 		vldr.32	s16, [r4]
 932              	.LVL52:
 933              		.loc 17 178 44 view .LVU265
 934 0110 2F48     		ldr	r0, .L48+60
 177:Pedal.cpp     **** 	delay.setModulation((16*color)*osc.Process());
 935              		.loc 17 177 6 view .LVU266
 936 0112 86ED000A 		vstr.32	s0, [r6]
 937              		.loc 17 178 2 is_stmt 1 view .LVU267
 938              		.loc 17 178 25 is_stmt 0 view .LVU268
 939 0116 28EE278A 		vmul.f32	s16, s16, s15
 940              		.loc 17 178 44 view .LVU269
 941 011a FFF7FEFF 		bl	_ZN7daisysp10Oscillator7ProcessEv
 942              	.LVL53:
 943              		.loc 17 178 21 view .LVU270
 944 011e 2946     		mov	r1, r5
 945 0120 1E48     		ldr	r0, .L48+8
 946              		.loc 17 178 32 view .LVU271
 947 0122 28EE000A 		vmul.f32	s0, s16, s0
 948 0126 8DED010A 		vstr.32	s0, [sp, #4]
 949              		.loc 17 178 21 view .LVU272
 950 012a FFF7FEFF 		bl	_ZN5Delay13setModulationERKf
 951              	.LVL54:
 179:Pedal.cpp     **** }...
 952              		.loc 17 179 1 view .LVU273
ARM GAS  /var/folders/fs/ht5wlc7s7b56r9p0ngl7ssgc0000gn/T//ccz1LIsm.s 			page 36


 953 012e 02B0     		add	sp, sp, #8
 954              		.cfi_remember_state
 955              		.cfi_def_cfa_offset 24
 956              		@ sp needed
 957 0130 BDEC028B 		vldm	sp!, {d8}
 958              		.cfi_restore 80
 959              		.cfi_restore 81
 960              		.cfi_def_cfa_offset 16
 961 0134 70BD     		pop	{r4, r5, r6, pc}
 962              	.LVL55:
 963              	.L43:
 964              		.cfi_restore_state
 119:Pedal.cpp     **** 		bypass = !bypass;
 965              		.loc 17 119 3 is_stmt 1 view .LVU274
 119:Pedal.cpp     **** 		bypass = !bypass;
 966              		.loc 17 119 12 is_stmt 0 view .LVU275
 967 0136 274A     		ldr	r2, .L48+64
 968 0138 1378     		ldrb	r3, [r2]	@ zero_extendqisi2
 969 013a 83F00103 		eor	r3, r3, #1
 119:Pedal.cpp     **** 		bypass = !bypass;
 970              		.loc 17 119 10 view .LVU276
 971 013e 1370     		strb	r3, [r2]
 121:Pedal.cpp     **** 		if(bypass)
 972              		.loc 17 121 3 is_stmt 1 view .LVU277
 973 0140 002B     		cmp	r3, #0
 974 0142 3FF46AAF 		beq	.L20
 122:Pedal.cpp     **** 			delay.clear();
 975              		.loc 17 122 4 view .LVU278
 122:Pedal.cpp     **** 			delay.clear();
 976              		.loc 17 122 15 is_stmt 0 view .LVU279
 977 0146 1548     		ldr	r0, .L48+8
 978 0148 FFF7FEFF 		bl	_ZN5Delay5clearEv
 979              	.LVL56:
 980 014c 65E7     		b	.L20
 981              	.LVL57:
 982              	.L47:
 149:Pedal.cpp     **** 		delay.enableHead(3);
 983              		.loc 17 149 3 is_stmt 1 view .LVU280
 149:Pedal.cpp     **** 		delay.enableHead(3);
 984              		.loc 17 149 19 is_stmt 0 view .LVU281
 985 014e FFF7FEFF 		bl	_ZN5Delay10enableHeadERKi
 986              	.LVL58:
 987 0152 A3E7     		b	.L30
 988              	.L46:
 144:Pedal.cpp     **** 		delay.enableHead(2);
 989              		.loc 17 144 3 is_stmt 1 view .LVU282
 144:Pedal.cpp     **** 		delay.enableHead(2);
 990              		.loc 17 144 19 is_stmt 0 view .LVU283
 991 0154 FFF7FEFF 		bl	_ZN5Delay10enableHeadERKi
 992              	.LVL59:
 993 0158 95E7     		b	.L28
 994              	.L45:
 139:Pedal.cpp     **** 		delay.enableHead(1);
 995              		.loc 17 139 3 is_stmt 1 view .LVU284
 139:Pedal.cpp     **** 		delay.enableHead(1);
 996              		.loc 17 139 19 is_stmt 0 view .LVU285
 997 015a FFF7FEFF 		bl	_ZN5Delay10enableHeadERKi
ARM GAS  /var/folders/fs/ht5wlc7s7b56r9p0ngl7ssgc0000gn/T//ccz1LIsm.s 			page 37


 998              	.LVL60:
 999 015e 87E7     		b	.L26
 1000              	.L44:
 134:Pedal.cpp     **** 		delay.enableHead(0);
 1001              		.loc 17 134 3 is_stmt 1 view .LVU286
 134:Pedal.cpp     **** 		delay.enableHead(0);
 1002              		.loc 17 134 19 is_stmt 0 view .LVU287
 1003 0160 FFF7FEFF 		bl	_ZN5Delay10enableHeadERKi
 1004              	.LVL61:
 1005 0164 79E7     		b	.L24
 1006              	.LVL62:
 1007              	.L31:
 167:Pedal.cpp     ****     if( bpmFromKnob > tapTempo.getBPM() - 1 &&  bpmFromKnob < tapTempo.getBPM() + 1 )
 1008              		.loc 17 167 78 discriminator 1 view .LVU288
 1009 0166 0C48     		ldr	r0, .L48+4
 1010 0168 FFF7FEFF 		bl	_ZN8TapTempo6getBPMEv
 1011              	.LVL63:
 167:Pedal.cpp     ****     if( bpmFromKnob > tapTempo.getBPM() - 1 &&  bpmFromKnob < tapTempo.getBPM() + 1 )
 1012              		.loc 17 167 81 discriminator 1 view .LVU289
 1013 016c 30EE280A 		vadd.f32	s0, s0, s17
 170:Pedal.cpp     **** 		delay.setBPM(bpm);
 1014              		.loc 17 170 15 discriminator 1 view .LVU290
 1015 0170 144E     		ldr	r6, .L48+48
 167:Pedal.cpp     ****     if( bpmFromKnob > tapTempo.getBPM() - 1 &&  bpmFromKnob < tapTempo.getBPM() + 1 )
 1016              		.loc 17 167 45 discriminator 1 view .LVU291
 1017 0172 B4EEC80A 		vcmpe.f32	s0, s16
 1018 0176 F1EE10FA 		vmrs	APSR_nzcv, FPSCR
 1019 017a BCDD     		ble	.L32
 169:Pedal.cpp     **** 		tapTempo.setBPM(bpmFromKnob);
 1020              		.loc 17 169 3 is_stmt 1 view .LVU292
 169:Pedal.cpp     **** 		tapTempo.setBPM(bpmFromKnob);
 1021              		.loc 17 169 18 is_stmt 0 view .LVU293
 1022 017c B0EE480A 		vmov.f32	s0, s16
 1023 0180 0548     		ldr	r0, .L48+4
 1024 0182 FFF7FEFF 		bl	_ZN8TapTempo6setBPMEf
 1025              	.LVL64:
 170:Pedal.cpp     **** 		delay.setBPM(bpm);
 1026              		.loc 17 170 3 is_stmt 1 view .LVU294
 170:Pedal.cpp     **** 		delay.setBPM(bpm);
 1027              		.loc 17 170 15 is_stmt 0 view .LVU295
 1028 0186 96ED000A 		vldr.32	s0, [r6]
 1029 018a 0448     		ldr	r0, .L48+8
 1030 018c FFF7FEFF 		bl	_ZN5Delay6setBPMEf
 1031              	.LVL65:
 1032 0190 B1E7     		b	.L32
 1033              	.L49:
 1034 0192 00BF     		.align	2
 1035              	.L48:
 1036 0194 00000000 		.word	.LANCHOR0
 1037 0198 00000000 		.word	.LANCHOR8
 1038 019c 00000000 		.word	.LANCHOR3
 1039 01a0 64000000 		.word	.LANCHOR0+100
 1040 01a4 00000000 		.word	.LANCHOR9
 1041 01a8 00000000 		.word	.LANCHOR4
 1042 01ac A4000000 		.word	.LANCHOR0+164
 1043 01b0 00000000 		.word	.LANCHOR10
 1044 01b4 00000000 		.word	.LANCHOR1
ARM GAS  /var/folders/fs/ht5wlc7s7b56r9p0ngl7ssgc0000gn/T//ccz1LIsm.s 			page 38


 1045 01b8 00000000 		.word	.LANCHOR11
 1046 01bc 00000000 		.word	.LANCHOR12
 1047 01c0 00000000 		.word	.LANCHOR2
 1048 01c4 00000000 		.word	.LANCHOR13
 1049 01c8 00000000 		.word	.LANCHOR14
 1050 01cc C4000000 		.word	.LANCHOR0+196
 1051 01d0 00000000 		.word	.LANCHOR6
 1052 01d4 00000000 		.word	.LANCHOR7
 1053              		.cfi_endproc
 1054              	.LFE4825:
 1056              		.section	.text._Z13AudioCallbackPKPKfPPfj,"ax",%progbits
 1057              		.align	1
 1058              		.p2align 2,,3
 1059              		.global	_Z13AudioCallbackPKPKfPPfj
 1060              		.syntax unified
 1061              		.thumb
 1062              		.thumb_func
 1064              	_Z13AudioCallbackPKPKfPPfj:
 1065              	.LVL66:
 1066              	.LFB4822:
  52:Pedal.cpp     **** {
 1067              		.loc 17 52 1 is_stmt 1 view -0
 1068              		.cfi_startproc
 1069              		@ args = 0, pretend = 0, frame = 8
 1070              		@ frame_needed = 0, uses_anonymous_args = 0
  53:Pedal.cpp     **** 	hw.ProcessAllControls();
 1071              		.loc 17 53 2 view .LVU297
 1072              	.LBB360:
 1073              	.LBI360:
  69:../../libDaisy//src/daisy_petal.h **** 
  70:../../libDaisy//src/daisy_petal.h ****     /** Initialize daisy petal */
  71:../../libDaisy//src/daisy_petal.h ****     void Init(bool boost = false);
  72:../../libDaisy//src/daisy_petal.h **** 
  73:../../libDaisy//src/daisy_petal.h ****     /**
  74:../../libDaisy//src/daisy_petal.h ****        Wait before moving on.
  75:../../libDaisy//src/daisy_petal.h ****        \param del Delay time in ms.
  76:../../libDaisy//src/daisy_petal.h ****      */
  77:../../libDaisy//src/daisy_petal.h ****     void DelayMs(size_t del);
  78:../../libDaisy//src/daisy_petal.h **** 
  79:../../libDaisy//src/daisy_petal.h **** 
  80:../../libDaisy//src/daisy_petal.h ****     /** Starts the callback
  81:../../libDaisy//src/daisy_petal.h ****     \param cb Interleaved callback function
  82:../../libDaisy//src/daisy_petal.h ****     */
  83:../../libDaisy//src/daisy_petal.h ****     void StartAudio(AudioHandle::InterleavingAudioCallback cb);
  84:../../libDaisy//src/daisy_petal.h **** 
  85:../../libDaisy//src/daisy_petal.h ****     /** Starts the callback
  86:../../libDaisy//src/daisy_petal.h ****     \param cb multichannel callback function
  87:../../libDaisy//src/daisy_petal.h ****     */
  88:../../libDaisy//src/daisy_petal.h ****     void StartAudio(AudioHandle::AudioCallback cb);
  89:../../libDaisy//src/daisy_petal.h **** 
  90:../../libDaisy//src/daisy_petal.h ****     /**
  91:../../libDaisy//src/daisy_petal.h ****        Switch callback functions
  92:../../libDaisy//src/daisy_petal.h ****        \param cb New interleaved callback function.
  93:../../libDaisy//src/daisy_petal.h ****     */
  94:../../libDaisy//src/daisy_petal.h ****     void ChangeAudioCallback(AudioHandle::InterleavingAudioCallback cb);
  95:../../libDaisy//src/daisy_petal.h **** 
  96:../../libDaisy//src/daisy_petal.h ****     /**
ARM GAS  /var/folders/fs/ht5wlc7s7b56r9p0ngl7ssgc0000gn/T//ccz1LIsm.s 			page 39


  97:../../libDaisy//src/daisy_petal.h ****        Switch callback functions
  98:../../libDaisy//src/daisy_petal.h ****        \param cb New multichannel callback function.
  99:../../libDaisy//src/daisy_petal.h ****     */
 100:../../libDaisy//src/daisy_petal.h ****     void ChangeAudioCallback(AudioHandle::AudioCallback cb);
 101:../../libDaisy//src/daisy_petal.h **** 
 102:../../libDaisy//src/daisy_petal.h ****     /** Stops the audio if it is running. */
 103:../../libDaisy//src/daisy_petal.h ****     void StopAudio();
 104:../../libDaisy//src/daisy_petal.h **** 
 105:../../libDaisy//src/daisy_petal.h ****     /** Updates the Audio Sample Rate, and reinitializes.
 106:../../libDaisy//src/daisy_petal.h ****      ** Audio must be stopped for this to work.
 107:../../libDaisy//src/daisy_petal.h ****      */
 108:../../libDaisy//src/daisy_petal.h ****     void SetAudioSampleRate(SaiHandle::Config::SampleRate samplerate);
 109:../../libDaisy//src/daisy_petal.h **** 
 110:../../libDaisy//src/daisy_petal.h ****     /** Returns the audio sample rate in Hz as a floating point number.
 111:../../libDaisy//src/daisy_petal.h ****      */
 112:../../libDaisy//src/daisy_petal.h ****     float AudioSampleRate();
 113:../../libDaisy//src/daisy_petal.h **** 
 114:../../libDaisy//src/daisy_petal.h ****     /** Sets the number of samples processed per channel by the audio callback.
 115:../../libDaisy//src/daisy_petal.h ****        \param size Audio block size
 116:../../libDaisy//src/daisy_petal.h ****      */
 117:../../libDaisy//src/daisy_petal.h ****     void SetAudioBlockSize(size_t size);
 118:../../libDaisy//src/daisy_petal.h **** 
 119:../../libDaisy//src/daisy_petal.h ****     /** Returns the number of samples per channel in a block of audio. */
 120:../../libDaisy//src/daisy_petal.h ****     size_t AudioBlockSize();
 121:../../libDaisy//src/daisy_petal.h **** 
 122:../../libDaisy//src/daisy_petal.h ****     /** Returns the rate in Hz that the Audio callback is called */
 123:../../libDaisy//src/daisy_petal.h ****     float AudioCallbackRate();
 124:../../libDaisy//src/daisy_petal.h **** 
 125:../../libDaisy//src/daisy_petal.h ****     /** Start analog to digital conversion. */
 126:../../libDaisy//src/daisy_petal.h ****     void StartAdc();
 127:../../libDaisy//src/daisy_petal.h **** 
 128:../../libDaisy//src/daisy_petal.h ****     /** Stops Transfering data from the ADC */
 129:../../libDaisy//src/daisy_petal.h ****     void StopAdc();
 130:../../libDaisy//src/daisy_petal.h **** 
 131:../../libDaisy//src/daisy_petal.h ****     /** Call at the same frequency as controls are read for stable readings.*/
 132:../../libDaisy//src/daisy_petal.h ****     void ProcessAnalogControls();
 133:../../libDaisy//src/daisy_petal.h **** 
 134:../../libDaisy//src/daisy_petal.h ****     /** Process Analog and Digital Controls */
 135:../../libDaisy//src/daisy_petal.h ****     inline void ProcessAllControls()
 1074              		.loc 3 135 17 view .LVU298
 1075              	.LBB361:
 136:../../libDaisy//src/daisy_petal.h ****     {
 137:../../libDaisy//src/daisy_petal.h ****         ProcessAnalogControls();
 1076              		.loc 3 137 9 view .LVU299
 1077              	.LBE361:
 1078              	.LBE360:
  52:Pedal.cpp     **** {
 1079              		.loc 17 52 1 is_stmt 0 view .LVU300
 1080 0000 2DE9F043 		push	{r4, r5, r6, r7, r8, r9, lr}
 1081              		.cfi_def_cfa_offset 28
 1082              		.cfi_offset 4, -28
 1083              		.cfi_offset 5, -24
 1084              		.cfi_offset 6, -20
 1085              		.cfi_offset 7, -16
 1086              		.cfi_offset 8, -12
 1087              		.cfi_offset 9, -8
 1088              		.cfi_offset 14, -4
ARM GAS  /var/folders/fs/ht5wlc7s7b56r9p0ngl7ssgc0000gn/T//ccz1LIsm.s 			page 40


 1089 0004 1546     		mov	r5, r2
 1090 0006 83B0     		sub	sp, sp, #12
 1091              		.cfi_def_cfa_offset 40
  52:Pedal.cpp     **** {
 1092              		.loc 17 52 1 view .LVU301
 1093 0008 0646     		mov	r6, r0
 1094              	.LBB364:
 1095              	.LBB362:
 1096              		.loc 3 137 30 view .LVU302
 1097 000a 2048     		ldr	r0, .L61
 1098              	.LVL67:
 1099              		.loc 3 137 30 view .LVU303
 1100              	.LBE362:
 1101              	.LBE364:
  52:Pedal.cpp     **** {
 1102              		.loc 17 52 1 view .LVU304
 1103 000c 0F46     		mov	r7, r1
 1104              	.LBB365:
 1105              	.LBB363:
 1106              		.loc 3 137 30 view .LVU305
 1107 000e FFF7FEFF 		bl	_ZN5daisy10DaisyPetal21ProcessAnalogControlsEv
 1108              	.LVL68:
 138:../../libDaisy//src/daisy_petal.h ****         ProcessDigitalControls();
 1109              		.loc 3 138 9 is_stmt 1 view .LVU306
 1110              		.loc 3 138 31 is_stmt 0 view .LVU307
 1111 0012 1E48     		ldr	r0, .L61
 1112 0014 FFF7FEFF 		bl	_ZN5daisy10DaisyPetal22ProcessDigitalControlsEv
 1113              	.LVL69:
 1114              		.loc 3 138 31 view .LVU308
 1115              	.LBE363:
 1116              	.LBE365:
  54:Pedal.cpp     **** 	processControls();
 1117              		.loc 17 54 2 is_stmt 1 view .LVU309
  54:Pedal.cpp     **** 	processControls();
 1118              		.loc 17 54 17 is_stmt 0 view .LVU310
 1119 0018 FFF7FEFF 		bl	_Z15processControlsv
 1120              	.LVL70:
  55:Pedal.cpp     **** 	for (size_t i = 0; i < size; i++)
 1121              		.loc 17 55 2 is_stmt 1 view .LVU311
 1122              	.LBB366:
  55:Pedal.cpp     **** 	for (size_t i = 0; i < size; i++)
 1123              		.loc 17 55 23 view .LVU312
 1124 001c 95B3     		cbz	r5, .L50
  55:Pedal.cpp     **** 	for (size_t i = 0; i < size; i++)
 1125              		.loc 17 55 14 is_stmt 0 view .LVU313
 1126 001e 0024     		movs	r4, #0
 1127 0020 DFF87880 		ldr	r8, .L61+16
 1128 0024 0BE0     		b	.L54
 1129              	.LVL71:
 1130              	.L60:
 1131              	.LBB367:
  58:Pedal.cpp     **** 			out[0][i] = in[0][i];
 1132              		.loc 17 58 23 view .LVU314
 1133 0026 3268     		ldr	r2, [r6]
  58:Pedal.cpp     **** 			out[0][i] = in[0][i];
 1134              		.loc 17 58 14 view .LVU315
 1135 0028 3B68     		ldr	r3, [r7]
ARM GAS  /var/folders/fs/ht5wlc7s7b56r9p0ngl7ssgc0000gn/T//ccz1LIsm.s 			page 41


  58:Pedal.cpp     **** 			out[0][i] = in[0][i];
 1136              		.loc 17 58 23 view .LVU316
 1137 002a 02EB840C 		add	ip, r2, r4, lsl #2
  58:Pedal.cpp     **** 			out[0][i] = in[0][i];
 1138              		.loc 17 58 14 view .LVU317
 1139 002e 03EB8403 		add	r3, r3, r4, lsl #2
 1140              	.LBE367:
  55:Pedal.cpp     **** 	for (size_t i = 0; i < size; i++)
 1141              		.loc 17 55 2 view .LVU318
 1142 0032 0134     		adds	r4, r4, #1
 1143              	.LVL72:
 1144              	.LBB371:
  58:Pedal.cpp     **** 			out[0][i] = in[0][i];
 1145              		.loc 17 58 23 view .LVU319
 1146 0034 DCF80020 		ldr	r2, [ip]	@ float
 1147              	.LBE371:
  55:Pedal.cpp     **** 	for (size_t i = 0; i < size; i++)
 1148              		.loc 17 55 23 view .LVU320
 1149 0038 A542     		cmp	r5, r4
 1150              	.LBB372:
  58:Pedal.cpp     **** 			out[0][i] = in[0][i];
 1151              		.loc 17 58 14 view .LVU321
 1152 003a 1A60     		str	r2, [r3]	@ float
 1153              	.LBE372:
  55:Pedal.cpp     **** 	for (size_t i = 0; i < size; i++)
 1154              		.loc 17 55 2 is_stmt 1 view .LVU322
 1155              	.LVL73:
  55:Pedal.cpp     **** 	for (size_t i = 0; i < size; i++)
 1156              		.loc 17 55 23 view .LVU323
 1157 003c 22D0     		beq	.L50
 1158              	.LVL74:
 1159              	.L54:
  55:Pedal.cpp     **** 	for (size_t i = 0; i < size; i++)
 1160              		.loc 17 55 23 is_stmt 0 view .LVU324
 1161              	.LBE366:
  57:Pedal.cpp     **** 		if(bypass)
 1162              		.loc 17 57 3 is_stmt 1 view .LVU325
 1163              	.LBB376:
 1164              	.LBB373:
  58:Pedal.cpp     **** 			out[0][i] = in[0][i];
 1165              		.loc 17 58 4 view .LVU326
  57:Pedal.cpp     **** 		if(bypass)
 1166              		.loc 17 57 3 is_stmt 0 view .LVU327
 1167 003e 98F80030 		ldrb	r3, [r8]	@ zero_extendqisi2
 1168 0042 002B     		cmp	r3, #0
 1169 0044 EFD1     		bne	.L60
 1170              	.LBB368:
  62:Pedal.cpp     **** 			float nonConstInput = in[0][i];
 1171              		.loc 17 62 4 is_stmt 1 view .LVU328
  62:Pedal.cpp     **** 			float nonConstInput = in[0][i];
 1172              		.loc 17 62 33 is_stmt 0 view .LVU329
 1173 0046 3368     		ldr	r3, [r6]
 1174 0048 4FEA8409 		lsl	r9, r4, #2
  64:Pedal.cpp     **** 			float allDelaySignals = delay.process(in[0][i]);
 1175              		.loc 17 64 41 view .LVU330
 1176 004c 1048     		ldr	r0, .L61+4
  62:Pedal.cpp     **** 			float nonConstInput = in[0][i];
ARM GAS  /var/folders/fs/ht5wlc7s7b56r9p0ngl7ssgc0000gn/T//ccz1LIsm.s 			page 42


 1177              		.loc 17 62 33 view .LVU331
 1178 004e 03EB8403 		add	r3, r3, r4, lsl #2
 1179              	.LBE368:
 1180              	.LBE373:
  55:Pedal.cpp     **** 	for (size_t i = 0; i < size; i++)
 1181              		.loc 17 55 2 view .LVU332
 1182 0052 0134     		adds	r4, r4, #1
 1183              	.LVL75:
 1184              	.LBB374:
 1185              	.LBB369:
  62:Pedal.cpp     **** 			float nonConstInput = in[0][i];
 1186              		.loc 17 62 33 view .LVU333
 1187 0054 93ED000A 		vldr.32	s0, [r3]
  62:Pedal.cpp     **** 			float nonConstInput = in[0][i];
 1188              		.loc 17 62 10 view .LVU334
 1189 0058 8DED000A 		vstr.32	s0, [sp]
  63:Pedal.cpp     **** 			float finalMix = 0;
 1190              		.loc 17 63 4 is_stmt 1 view .LVU335
 1191              	.LVL76:
  64:Pedal.cpp     **** 			float allDelaySignals = delay.process(in[0][i]);
 1192              		.loc 17 64 4 view .LVU336
  64:Pedal.cpp     **** 			float allDelaySignals = delay.process(in[0][i]);
 1193              		.loc 17 64 41 is_stmt 0 view .LVU337
 1194 005c FFF7FEFF 		bl	_ZN5Delay7processEf
 1195              	.LVL77:
  67:Pedal.cpp     **** 			allDelaySignals = tone.process(allDelaySignals);
 1196              		.loc 17 67 34 view .LVU338
 1197 0060 0C48     		ldr	r0, .L61+8
  64:Pedal.cpp     **** 			float allDelaySignals = delay.process(in[0][i]);
 1198              		.loc 17 64 50 view .LVU339
 1199 0062 8DED010A 		vstr.32	s0, [sp, #4]
  65:Pedal.cpp     **** 			float preFilterDelays = allDelaySignals;
 1200              		.loc 17 65 4 is_stmt 1 view .LVU340
 1201              	.LVL78:
  67:Pedal.cpp     **** 			allDelaySignals = tone.process(allDelaySignals);
 1202              		.loc 17 67 4 view .LVU341
  67:Pedal.cpp     **** 			allDelaySignals = tone.process(allDelaySignals);
 1203              		.loc 17 67 34 is_stmt 0 view .LVU342
 1204 0066 FFF7FEFF 		bl	_ZN10ToneFilter7processEf
 1205              	.LVL79:
  71:Pedal.cpp     **** 			finalMix = crossFade.Process(nonConstInput, allDelaySignals);
 1206              		.loc 17 71 32 view .LVU343
 1207 006a 01AA     		add	r2, sp, #4
 1208 006c 6946     		mov	r1, sp
 1209 006e 0A48     		ldr	r0, .L61+12
  67:Pedal.cpp     **** 			allDelaySignals = tone.process(allDelaySignals);
 1210              		.loc 17 67 20 view .LVU344
 1211 0070 8DED010A 		vstr.32	s0, [sp, #4]
  71:Pedal.cpp     **** 			finalMix = crossFade.Process(nonConstInput, allDelaySignals);
 1212              		.loc 17 71 4 is_stmt 1 view .LVU345
  71:Pedal.cpp     **** 			finalMix = crossFade.Process(nonConstInput, allDelaySignals);
 1213              		.loc 17 71 32 is_stmt 0 view .LVU346
 1214 0074 FFF7FEFF 		bl	_ZN7daisysp9CrossFade7ProcessERfS1_
 1215              	.LVL80:
  74:Pedal.cpp     **** 			out[0][i] = finalMix;
 1216              		.loc 17 74 4 is_stmt 1 view .LVU347
  74:Pedal.cpp     **** 			out[0][i] = finalMix;
ARM GAS  /var/folders/fs/ht5wlc7s7b56r9p0ngl7ssgc0000gn/T//ccz1LIsm.s 			page 43


 1217              		.loc 17 74 14 is_stmt 0 view .LVU348
 1218 0078 3B68     		ldr	r3, [r7]
 1219              	.LBE369:
 1220              	.LBE374:
  55:Pedal.cpp     **** 	for (size_t i = 0; i < size; i++)
 1221              		.loc 17 55 23 view .LVU349
 1222 007a A542     		cmp	r5, r4
 1223              	.LBB375:
 1224              	.LBB370:
  74:Pedal.cpp     **** 			out[0][i] = finalMix;
 1225              		.loc 17 74 14 view .LVU350
 1226 007c 4B44     		add	r3, r3, r9
 1227 007e 83ED000A 		vstr.32	s0, [r3]
 1228              	.LBE370:
 1229              	.LBE375:
  55:Pedal.cpp     **** 	for (size_t i = 0; i < size; i++)
 1230              		.loc 17 55 2 is_stmt 1 view .LVU351
 1231              	.LVL81:
  55:Pedal.cpp     **** 	for (size_t i = 0; i < size; i++)
 1232              		.loc 17 55 23 view .LVU352
 1233 0082 DCD1     		bne	.L54
 1234              	.LVL82:
 1235              	.L50:
  55:Pedal.cpp     **** 	for (size_t i = 0; i < size; i++)
 1236              		.loc 17 55 23 is_stmt 0 view .LVU353
 1237              	.LBE376:
  79:Pedal.cpp     **** }
 1238              		.loc 17 79 1 view .LVU354
 1239 0084 03B0     		add	sp, sp, #12
 1240              		.cfi_def_cfa_offset 28
 1241              		@ sp needed
 1242 0086 BDE8F083 		pop	{r4, r5, r6, r7, r8, r9, pc}
 1243              	.LVL83:
 1244              	.L62:
  79:Pedal.cpp     **** }
 1245              		.loc 17 79 1 view .LVU355
 1246 008a 00BF     		.align	2
 1247              	.L61:
 1248 008c 00000000 		.word	.LANCHOR0
 1249 0090 00000000 		.word	.LANCHOR3
 1250 0094 00000000 		.word	.LANCHOR12
 1251 0098 00000000 		.word	.LANCHOR4
 1252 009c 00000000 		.word	.LANCHOR7
 1253              		.cfi_endproc
 1254              	.LFE4822:
 1256              		.section	.text.startup._GLOBAL__sub_I_hw,"ax",%progbits
 1257              		.align	1
 1258              		.p2align 2,,3
 1259              		.syntax unified
 1260              		.thumb
 1261              		.thumb_func
 1263              	_GLOBAL__sub_I_hw:
 1264              	.LFB5401:
 1265              		.loc 17 179 1 is_stmt 1 view -0
 1266              		.cfi_startproc
 1267              		@ args = 0, pretend = 0, frame = 0
 1268              		@ frame_needed = 0, uses_anonymous_args = 0
ARM GAS  /var/folders/fs/ht5wlc7s7b56r9p0ngl7ssgc0000gn/T//ccz1LIsm.s 			page 44


 1269              	.LBB435:
 1270              	.LBI435:
 1271              		.loc 17 179 1 view .LVU357
 1272              	.LVL84:
 1273              	.LBB436:
 1274              	.LBB437:
 1275              	.LBI437:
  66:../../libDaisy//src/daisy_petal.h ****     /** Destructor */
 1276              		.loc 3 66 5 view .LVU358
 1277              	.LBB438:
 1278              	.LBB439:
 1279              	.LBI439:
  21:../../libDaisy//src/daisy_seed.h ****     ~DaisySeed() {}
 1280              		.loc 6 21 5 view .LVU359
 1281              	.LBB440:
 1282              	.LBB441:
 1283              	.LBI441:
 1284              		.file 18 "../../libDaisy//src/per/qspi.h"
   1:../../libDaisy//src/per/qspi.h **** #ifndef DSY_QSPI
   2:../../libDaisy//src/per/qspi.h **** #define DSY_QSPI /**< Macro */
   3:../../libDaisy//src/per/qspi.h **** 
   4:../../libDaisy//src/per/qspi.h **** #ifndef UNIT_TEST // for unit tests, a dummy implementation
   5:../../libDaisy//src/per/qspi.h **** 
   6:../../libDaisy//src/per/qspi.h **** #include <cstdint>
   7:../../libDaisy//src/per/qspi.h **** #include "daisy_core.h" // Added for dsy_gpio_pin typedef
   8:../../libDaisy//src/per/qspi.h **** 
   9:../../libDaisy//src/per/qspi.h **** #define DSY_QSPI_TEXT       \
  10:../../libDaisy//src/per/qspi.h ****     __attribute__((section( \
  11:../../libDaisy//src/per/qspi.h ****         ".qspiflash_text"))) /**< used for reading memory in memory_mapped mode. */
  12:../../libDaisy//src/per/qspi.h **** #define DSY_QSPI_DATA       \
  13:../../libDaisy//src/per/qspi.h ****     __attribute__((section( \
  14:../../libDaisy//src/per/qspi.h ****         ".qspiflash_data"))) /**< used for reading memory in memory_mapped mode. */
  15:../../libDaisy//src/per/qspi.h **** #define DSY_QSPI_BSS        \
  16:../../libDaisy//src/per/qspi.h ****     __attribute__((section( \
  17:../../libDaisy//src/per/qspi.h ****         ".qspiflash_bss"))) /**< used for reading memory in memory_mapped mode. */
  18:../../libDaisy//src/per/qspi.h **** 
  19:../../libDaisy//src/per/qspi.h **** namespace daisy
  20:../../libDaisy//src/per/qspi.h **** {
  21:../../libDaisy//src/per/qspi.h **** /** @addtogroup serial
  22:../../libDaisy//src/per/qspi.h **** @{
  23:../../libDaisy//src/per/qspi.h **** */
  24:../../libDaisy//src/per/qspi.h **** 
  25:../../libDaisy//src/per/qspi.h **** /** 
  26:../../libDaisy//src/per/qspi.h ****  Driver for QSPI peripheral to interface with external flash memory. \n 
  27:../../libDaisy//src/per/qspi.h ****     Currently supported QSPI Devices: \n 
  28:../../libDaisy//src/per/qspi.h ****     * IS25LP080D
  29:../../libDaisy//src/per/qspi.h **** */
  30:../../libDaisy//src/per/qspi.h **** class QSPIHandle
  31:../../libDaisy//src/per/qspi.h **** {
  32:../../libDaisy//src/per/qspi.h ****   public:
  33:../../libDaisy//src/per/qspi.h ****     enum Result
  34:../../libDaisy//src/per/qspi.h ****     {
  35:../../libDaisy//src/per/qspi.h ****         OK = 0,
  36:../../libDaisy//src/per/qspi.h ****         ERR
  37:../../libDaisy//src/per/qspi.h ****     };
  38:../../libDaisy//src/per/qspi.h **** 
  39:../../libDaisy//src/per/qspi.h ****     /** Indicates the current status of the module. 
ARM GAS  /var/folders/fs/ht5wlc7s7b56r9p0ngl7ssgc0000gn/T//ccz1LIsm.s 			page 45


  40:../../libDaisy//src/per/qspi.h ****          *  Warnings are indicated by a leading W.
  41:../../libDaisy//src/per/qspi.h ****          *  Errors are indicated by a leading E and cause an immediate exit.
  42:../../libDaisy//src/per/qspi.h ****          * 
  43:../../libDaisy//src/per/qspi.h ****          *  \param GOOD - No errors have been reported.
  44:../../libDaisy//src/per/qspi.h ****          *  \param E_HAL_ERROR - HAL code did not return HAL_OK.
  45:../../libDaisy//src/per/qspi.h ****          *  \param E_SWITCHING_MODES - An error was encountered while switching QSPI peripheral mod
  46:../../libDaisy//src/per/qspi.h ****          *  \param E_INVALID_MODE - QSPI should not be written to while the program is executing fr
  47:../../libDaisy//src/per/qspi.h ****          */
  48:../../libDaisy//src/per/qspi.h ****     enum Status
  49:../../libDaisy//src/per/qspi.h ****     {
  50:../../libDaisy//src/per/qspi.h ****         GOOD = 0,
  51:../../libDaisy//src/per/qspi.h ****         E_HAL_ERROR,
  52:../../libDaisy//src/per/qspi.h ****         E_SWITCHING_MODES,
  53:../../libDaisy//src/per/qspi.h ****         E_INVALID_MODE,
  54:../../libDaisy//src/per/qspi.h ****     };
  55:../../libDaisy//src/per/qspi.h **** 
  56:../../libDaisy//src/per/qspi.h ****     /** Configuration structure for interfacing with QSPI Driver */
  57:../../libDaisy//src/per/qspi.h ****     struct Config
  58:../../libDaisy//src/per/qspi.h ****     {
  59:../../libDaisy//src/per/qspi.h ****         /** Flash Devices supported. (Both of these are more-or-less the same, just different sizes
  60:../../libDaisy//src/per/qspi.h ****         enum Device
  61:../../libDaisy//src/per/qspi.h ****         {
  62:../../libDaisy//src/per/qspi.h ****             IS25LP080D,  /**< & */
  63:../../libDaisy//src/per/qspi.h ****             IS25LP064A,  /**< & */
  64:../../libDaisy//src/per/qspi.h ****             DEVICE_LAST, /**< & */
  65:../../libDaisy//src/per/qspi.h ****         };
  66:../../libDaisy//src/per/qspi.h **** 
  67:../../libDaisy//src/per/qspi.h ****         /** 
  68:../../libDaisy//src/per/qspi.h ****         Modes of operation.
  69:../../libDaisy//src/per/qspi.h ****         Memory Mapped mode: QSPI configured so that the QSPI can be
  70:../../libDaisy//src/per/qspi.h ****         read from starting address 0x90000000. Writing is not
  71:../../libDaisy//src/per/qspi.h ****         possible in this mode. \n 
  72:../../libDaisy//src/per/qspi.h ****         Indirect Polling mode: Device driver enabled. 
  73:../../libDaisy//src/per/qspi.h ****         */
  74:../../libDaisy//src/per/qspi.h ****         enum Mode
  75:../../libDaisy//src/per/qspi.h ****         {
  76:../../libDaisy//src/per/qspi.h ****             MEMORY_MAPPED,    /**< & */
  77:../../libDaisy//src/per/qspi.h ****             INDIRECT_POLLING, /**< & */
  78:../../libDaisy//src/per/qspi.h ****             MODE_LAST,
  79:../../libDaisy//src/per/qspi.h ****         };
  80:../../libDaisy//src/per/qspi.h **** 
  81:../../libDaisy//src/per/qspi.h ****         //SCK,  CE# (active low)
  82:../../libDaisy//src/per/qspi.h ****         struct
  83:../../libDaisy//src/per/qspi.h ****         {
  84:../../libDaisy//src/per/qspi.h ****             dsy_gpio_pin io0; /**< & */
  85:../../libDaisy//src/per/qspi.h ****             dsy_gpio_pin io1; /**< & */
  86:../../libDaisy//src/per/qspi.h ****             dsy_gpio_pin io2; /**< & */
  87:../../libDaisy//src/per/qspi.h ****             dsy_gpio_pin io3; /**< & */
  88:../../libDaisy//src/per/qspi.h ****             dsy_gpio_pin clk; /**< & */
  89:../../libDaisy//src/per/qspi.h ****             dsy_gpio_pin ncs; /**< & */
  90:../../libDaisy//src/per/qspi.h ****         } pin_config;
  91:../../libDaisy//src/per/qspi.h **** 
  92:../../libDaisy//src/per/qspi.h ****         Device device;
  93:../../libDaisy//src/per/qspi.h ****         Mode   mode;
  94:../../libDaisy//src/per/qspi.h ****     };
  95:../../libDaisy//src/per/qspi.h **** 
  96:../../libDaisy//src/per/qspi.h ****     /** 
ARM GAS  /var/folders/fs/ht5wlc7s7b56r9p0ngl7ssgc0000gn/T//ccz1LIsm.s 			page 46


  97:../../libDaisy//src/per/qspi.h ****         Initializes QSPI peripheral, and Resets, and prepares memory for access.
  98:../../libDaisy//src/per/qspi.h ****         \param config should be populated with the mode, device and pin_config before calling this 
  99:../../libDaisy//src/per/qspi.h ****         \return Result::OK or Result::ERR
 100:../../libDaisy//src/per/qspi.h ****         */
 101:../../libDaisy//src/per/qspi.h ****     Result Init(const Config& config);
 102:../../libDaisy//src/per/qspi.h **** 
 103:../../libDaisy//src/per/qspi.h ****     /** Returns the current config. */
 104:../../libDaisy//src/per/qspi.h ****     const Config& GetConfig() const;
 105:../../libDaisy//src/per/qspi.h **** 
 106:../../libDaisy//src/per/qspi.h ****     // Couldn't this just be called before anything else in init? That
 107:../../libDaisy//src/per/qspi.h ****     // would make manually calling it unnecessary.
 108:../../libDaisy//src/per/qspi.h ****     /** 
 109:../../libDaisy//src/per/qspi.h ****         Deinitializes the peripheral
 110:../../libDaisy//src/per/qspi.h ****         This should be called before reinitializing QSPI in a different mode.
 111:../../libDaisy//src/per/qspi.h ****         \return Result::OK or Result::ERR
 112:../../libDaisy//src/per/qspi.h ****         */
 113:../../libDaisy//src/per/qspi.h ****     Result DeInit();
 114:../../libDaisy//src/per/qspi.h **** 
 115:../../libDaisy//src/per/qspi.h ****     /** 
 116:../../libDaisy//src/per/qspi.h ****         Writes a single page to to the specified address on the QSPI chip.
 117:../../libDaisy//src/per/qspi.h ****         For IS25LP*, page size is 256 bytes.
 118:../../libDaisy//src/per/qspi.h ****         \param address Address to write to
 119:../../libDaisy//src/per/qspi.h ****         \param size Buffer size
 120:../../libDaisy//src/per/qspi.h ****         \param buffer Buffer to write
 121:../../libDaisy//src/per/qspi.h ****         \return Result::OK or Result::ERR
 122:../../libDaisy//src/per/qspi.h ****         */
 123:../../libDaisy//src/per/qspi.h ****     Result WritePage(uint32_t address, uint32_t size, uint8_t* buffer);
 124:../../libDaisy//src/per/qspi.h **** 
 125:../../libDaisy//src/per/qspi.h ****     /** 
 126:../../libDaisy//src/per/qspi.h ****         Writes data in buffer to to the QSPI. Starting at address to address+size 
 127:../../libDaisy//src/per/qspi.h ****         \param address Address to write to
 128:../../libDaisy//src/per/qspi.h ****         \param size Buffer size
 129:../../libDaisy//src/per/qspi.h ****         \param buffer Buffer to write
 130:../../libDaisy//src/per/qspi.h ****         \return Result::OK or Result::ERR
 131:../../libDaisy//src/per/qspi.h ****         */
 132:../../libDaisy//src/per/qspi.h ****     Result Write(uint32_t address, uint32_t size, uint8_t* buffer);
 133:../../libDaisy//src/per/qspi.h **** 
 134:../../libDaisy//src/per/qspi.h ****     /** 
 135:../../libDaisy//src/per/qspi.h ****         Erases the area specified on the chip.
 136:../../libDaisy//src/per/qspi.h ****         Erasures will happen by 4K, 32K or 64K increments.
 137:../../libDaisy//src/per/qspi.h ****         Smallest erase possible is 4kB at a time. (on IS25LP*)
 138:../../libDaisy//src/per/qspi.h ****         \param start_addr Address to begin erasing from
 139:../../libDaisy//src/per/qspi.h ****         \param end_addr  Address to stop erasing at
 140:../../libDaisy//src/per/qspi.h ****         \return Result::OK or Result::ERR
 141:../../libDaisy//src/per/qspi.h ****         */
 142:../../libDaisy//src/per/qspi.h ****     Result Erase(uint32_t start_addr, uint32_t end_addr);
 143:../../libDaisy//src/per/qspi.h **** 
 144:../../libDaisy//src/per/qspi.h ****     /**  
 145:../../libDaisy//src/per/qspi.h ****          Erases a single sector of the chip.  
 146:../../libDaisy//src/per/qspi.h ****         TODO: Document the size of this function. 
 147:../../libDaisy//src/per/qspi.h ****         \param address Address of sector to erase
 148:../../libDaisy//src/per/qspi.h ****         \return Result::OK or Result::ERR
 149:../../libDaisy//src/per/qspi.h ****         */
 150:../../libDaisy//src/per/qspi.h ****     Result EraseSector(uint32_t address);
 151:../../libDaisy//src/per/qspi.h **** 
 152:../../libDaisy//src/per/qspi.h ****     /** Returns the current class status. Useful for debugging.
 153:../../libDaisy//src/per/qspi.h ****      *  \returns Status
ARM GAS  /var/folders/fs/ht5wlc7s7b56r9p0ngl7ssgc0000gn/T//ccz1LIsm.s 			page 47


 154:../../libDaisy//src/per/qspi.h ****      */
 155:../../libDaisy//src/per/qspi.h ****     Status GetStatus();
 156:../../libDaisy//src/per/qspi.h **** 
 157:../../libDaisy//src/per/qspi.h ****     /** Returns a pointer to the actual memory used 
 158:../../libDaisy//src/per/qspi.h ****      *  The memory at this address is read-only
 159:../../libDaisy//src/per/qspi.h ****      *  to write to it use the Write function.
 160:../../libDaisy//src/per/qspi.h ****      * 
 161:../../libDaisy//src/per/qspi.h ****      *  \param offset returns the pointer starting this 
 162:../../libDaisy//src/per/qspi.h ****      *                many bytes into the memory
 163:../../libDaisy//src/per/qspi.h ****     */
 164:../../libDaisy//src/per/qspi.h ****     void* GetData(uint32_t offset = 0);
 165:../../libDaisy//src/per/qspi.h **** 
 166:../../libDaisy//src/per/qspi.h ****     QSPIHandle() : pimpl_(nullptr) {}
 1285              		.loc 18 166 5 view .LVU360
 1286              	.LBE441:
 1287              	.LBE440:
 1288              	.LBE439:
 1289              	.LBE438:
 1290              	.LBE437:
 1291              	.LBE436:
 1292              	.LBE435:
 1293              		.loc 17 179 1 is_stmt 0 view .LVU361
 1294 0000 F8B5     		push	{r3, r4, r5, r6, r7, lr}
 1295              		.cfi_def_cfa_offset 24
 1296              		.cfi_offset 3, -24
 1297              		.cfi_offset 4, -20
 1298              		.cfi_offset 5, -16
 1299              		.cfi_offset 6, -12
 1300              		.cfi_offset 7, -8
 1301              		.cfi_offset 14, -4
 1302              	.LBB508:
 1303              	.LBB504:
 1304              	.LBB481:
 1305              	.LBB477:
 1306              	.LBB461:
 1307              	.LBB458:
 1308              	.LBB446:
 1309              	.LBB442:
 1310              	.LBB443:
 1311              		.loc 18 166 34 view .LVU362
 1312 0002 0025     		movs	r5, #0
 1313 0004 2F4C     		ldr	r4, .L65
 1314              	.LBE443:
 1315              	.LBE442:
 1316              	.LBE446:
 1317              	.LBE458:
 1318              	.LBE461:
 1319              	.LBE477:
 1320              	.LBE481:
  15:Pedal.cpp     **** DaisyPetal hw;
 1321              		.loc 17 15 12 view .LVU363
 1322 0006 304E     		ldr	r6, .L65+4
 1323              	.LBB482:
 1324              	.LBB478:
 1325              	.LBB462:
 1326              	.LBB463:
 1327              		.file 19 "../../libDaisy//src/dev/leddriver.h"
ARM GAS  /var/folders/fs/ht5wlc7s7b56r9p0ngl7ssgc0000gn/T//ccz1LIsm.s 			page 48


   1:../../libDaisy//src/dev/leddriver.h **** #pragma once
   2:../../libDaisy//src/dev/leddriver.h **** #ifndef SA_LED_DRIVER_H
   3:../../libDaisy//src/dev/leddriver.h **** #define SA_LED_DRIVER_H /**< & */
   4:../../libDaisy//src/dev/leddriver.h **** 
   5:../../libDaisy//src/dev/leddriver.h **** #ifdef __cplusplus
   6:../../libDaisy//src/dev/leddriver.h **** 
   7:../../libDaisy//src/dev/leddriver.h **** #include <stdint.h>
   8:../../libDaisy//src/dev/leddriver.h **** #include "per/i2c.h"
   9:../../libDaisy//src/dev/leddriver.h **** #include "per/gpio.h"
  10:../../libDaisy//src/dev/leddriver.h **** 
  11:../../libDaisy//src/dev/leddriver.h **** namespace daisy
  12:../../libDaisy//src/dev/leddriver.h **** {
  13:../../libDaisy//src/dev/leddriver.h **** /** LED driver for one or multiple PCA9685 12bit PWM chips connected to
  14:../../libDaisy//src/dev/leddriver.h ****  * a single I2C peripheral.
  15:../../libDaisy//src/dev/leddriver.h ****  * It includes gamma correction from 8bit brightness values but it 
  16:../../libDaisy//src/dev/leddriver.h ****  * can also be supplied with raw 12bit values.
  17:../../libDaisy//src/dev/leddriver.h ****  * This driver uses two buffers - one for drawing, one for transmitting.
  18:../../libDaisy//src/dev/leddriver.h ****  * Multiple LedDriverPca9685 instances can be used at the same time.
  19:../../libDaisy//src/dev/leddriver.h ****  * \param numDrivers    The number of PCA9685 driver attached to the I2C
  20:../../libDaisy//src/dev/leddriver.h ****  *                      peripheral.
  21:../../libDaisy//src/dev/leddriver.h ****  * \param persistentBufferContents If set to true, the current draw buffer 
  22:../../libDaisy//src/dev/leddriver.h ****  *                      contents will be copied to the next draw buffer 
  23:../../libDaisy//src/dev/leddriver.h ****  *                      during SwapBuffersAndTransmit(). Use this, if you plan
  24:../../libDaisy//src/dev/leddriver.h ****  *                      to write single leds at a time. 
  25:../../libDaisy//src/dev/leddriver.h ****  *                      If you will alway update all leds before calling 
  26:../../libDaisy//src/dev/leddriver.h ****  *                      SwapBuffersAndTransmit(), you can set this to false
  27:../../libDaisy//src/dev/leddriver.h ****  *                      and safe some cycles.
  28:../../libDaisy//src/dev/leddriver.h ****  * 
  29:../../libDaisy//src/dev/leddriver.h ****  *  @ingroup device
  30:../../libDaisy//src/dev/leddriver.h ****  */
  31:../../libDaisy//src/dev/leddriver.h **** template <int numDrivers, bool persistentBufferContents = true>
  32:../../libDaisy//src/dev/leddriver.h **** class LedDriverPca9685
 1328              		.loc 19 32 7 view .LVU364
 1329 0008 4FF40072 		mov	r2, #512
 1330              	.LBE463:
 1331              	.LBE462:
 1332              	.LBB469:
 1333              	.LBB459:
 1334              	.LBB447:
 1335              	.LBB445:
 1336              	.LBB444:
 1337              		.loc 18 166 34 view .LVU365
 1338 000c 2560     		str	r5, [r4]
 1339              	.LVL85:
 1340              		.loc 18 166 34 view .LVU366
 1341              	.LBE444:
 1342              	.LBE445:
 1343              	.LBE447:
 1344              	.LBB448:
 1345              	.LBI448:
  95:../../libDaisy//src/hid/audio.h ****     ~AudioHandle() {}
 1346              		.loc 10 95 5 is_stmt 1 view .LVU367
 1347              	.LBE448:
 1348              	.LBE459:
 1349              	.LBE469:
 1350              	.LBB470:
 1351              	.LBB467:
ARM GAS  /var/folders/fs/ht5wlc7s7b56r9p0ngl7ssgc0000gn/T//ccz1LIsm.s 			page 49


 1352              		.loc 19 32 7 is_stmt 0 view .LVU368
 1353 000e 04F2DA40 		addw	r0, r4, #1242
 1354              	.LBE467:
 1355              	.LBE470:
 1356              	.LBB471:
 1357              	.LBB460:
 1358              	.LBB451:
 1359              	.LBB449:
 1360              	.LBB450:
  95:../../libDaisy//src/hid/audio.h ****     ~AudioHandle() {}
 1361              		.loc 10 95 35 view .LVU369
 1362 0012 6561     		str	r5, [r4, #20]
 1363              	.LVL86:
  95:../../libDaisy//src/hid/audio.h ****     ~AudioHandle() {}
 1364              		.loc 10 95 35 view .LVU370
 1365              	.LBE450:
 1366              	.LBE449:
 1367              	.LBE451:
 1368              	.LBB452:
 1369              	.LBI452:
  92:../../libDaisy//src/per/adc.h ****     ~AdcHandle() {}
 1370              		.loc 9 92 5 is_stmt 1 view .LVU371
  92:../../libDaisy//src/per/adc.h ****     ~AdcHandle() {}
 1371              		.loc 9 92 5 is_stmt 0 view .LVU372
 1372              	.LBE452:
 1373              	.LBB453:
 1374              	.LBI453:
 1375              		.file 20 "../../libDaisy//src/per/dac.h"
   1:../../libDaisy//src/per/dac.h **** #pragma once
   2:../../libDaisy//src/per/dac.h **** #ifndef DSY_DAC_H
   3:../../libDaisy//src/per/dac.h **** #define DSY_DAC_H
   4:../../libDaisy//src/per/dac.h **** 
   5:../../libDaisy//src/per/dac.h **** #include "daisy_core.h"
   6:../../libDaisy//src/per/dac.h **** 
   7:../../libDaisy//src/per/dac.h **** namespace daisy
   8:../../libDaisy//src/per/dac.h **** {
   9:../../libDaisy//src/per/dac.h **** /** @brief DAC handle for Built-in DAC Peripheral 
  10:../../libDaisy//src/per/dac.h ****  *  @ingroup per_analog
  11:../../libDaisy//src/per/dac.h ****  ** 
  12:../../libDaisy//src/per/dac.h ****  ** For now only Normal Mode is supported,
  13:../../libDaisy//src/per/dac.h ****  ** Sample and hold mode provides reduced power consumption, but requires a bit more setup.
  14:../../libDaisy//src/per/dac.h ****  **
  15:../../libDaisy//src/per/dac.h ****  ** For now connecting the DAC through other internal peripherals is also not supported.
  16:../../libDaisy//src/per/dac.h ****  **
  17:../../libDaisy//src/per/dac.h ****  ** Since the DAC channels have dedicated pins we don't need to pass in a pin config like with
  18:../../libDaisy//src/per/dac.h ****  ** other modules. However, it is still important to not try to use the DAC pins for anything else.
  19:../../libDaisy//src/per/dac.h ****  ** DAC Channel 1 is on PA4, and DAC Channel 2 is on PA5
  20:../../libDaisy//src/per/dac.h ****  ***/
  21:../../libDaisy//src/per/dac.h **** class DacHandle
  22:../../libDaisy//src/per/dac.h **** {
  23:../../libDaisy//src/per/dac.h ****   public:
  24:../../libDaisy//src/per/dac.h ****     /** Return Values for the DacHandle class */
  25:../../libDaisy//src/per/dac.h ****     enum class Result
  26:../../libDaisy//src/per/dac.h ****     {
  27:../../libDaisy//src/per/dac.h ****         OK,
  28:../../libDaisy//src/per/dac.h ****         ERR,
  29:../../libDaisy//src/per/dac.h ****     };
ARM GAS  /var/folders/fs/ht5wlc7s7b56r9p0ngl7ssgc0000gn/T//ccz1LIsm.s 			page 50


  30:../../libDaisy//src/per/dac.h **** 
  31:../../libDaisy//src/per/dac.h ****     /** Selects which channel(s) will be configured for use. */
  32:../../libDaisy//src/per/dac.h ****     enum class Channel
  33:../../libDaisy//src/per/dac.h ****     {
  34:../../libDaisy//src/per/dac.h ****         ONE,
  35:../../libDaisy//src/per/dac.h ****         TWO,
  36:../../libDaisy//src/per/dac.h ****         BOTH,
  37:../../libDaisy//src/per/dac.h ****     };
  38:../../libDaisy//src/per/dac.h **** 
  39:../../libDaisy//src/per/dac.h ****     /** Sets the Mode for the DAC channels.
  40:../../libDaisy//src/per/dac.h ****      **
  41:../../libDaisy//src/per/dac.h ****      ** Polling mode uses the blocking mode to transmit a single value at a time.
  42:../../libDaisy//src/per/dac.h ****      **
  43:../../libDaisy//src/per/dac.h ****      ** DMA mode uses a buffer, and periodically transmits it triggering a 
  44:../../libDaisy//src/per/dac.h ****      ** callback to fill the buffer when it is ready for more samples.
  45:../../libDaisy//src/per/dac.h ****      ***/
  46:../../libDaisy//src/per/dac.h ****     enum class Mode
  47:../../libDaisy//src/per/dac.h ****     {
  48:../../libDaisy//src/per/dac.h ****         POLLING,
  49:../../libDaisy//src/per/dac.h ****         DMA,
  50:../../libDaisy//src/per/dac.h ****     };
  51:../../libDaisy//src/per/dac.h **** 
  52:../../libDaisy//src/per/dac.h ****     /** Sets the number of bits per sample transmitted out of the DAC.
  53:../../libDaisy//src/per/dac.h ****      ** The output range will be: 0V - VDDA
  54:../../libDaisy//src/per/dac.h ****      ** The resolution will be roughly: bitdepth / (VDDA - 0V) 
  55:../../libDaisy//src/per/dac.h ****      ***/
  56:../../libDaisy//src/per/dac.h ****     enum class BitDepth
  57:../../libDaisy//src/per/dac.h ****     {
  58:../../libDaisy//src/per/dac.h ****         BITS_8,
  59:../../libDaisy//src/per/dac.h ****         BITS_12
  60:../../libDaisy//src/per/dac.h ****     };
  61:../../libDaisy//src/per/dac.h **** 
  62:../../libDaisy//src/per/dac.h ****     /** Sets whether the DAC output is buffered for higher drive ability. */
  63:../../libDaisy//src/per/dac.h ****     enum class BufferState
  64:../../libDaisy//src/per/dac.h ****     {
  65:../../libDaisy//src/per/dac.h ****         ENABLED,
  66:../../libDaisy//src/per/dac.h ****         DISABLED,
  67:../../libDaisy//src/per/dac.h ****     };
  68:../../libDaisy//src/per/dac.h **** 
  69:../../libDaisy//src/per/dac.h ****     /** Configuration structure for initializing the DAC structure. */
  70:../../libDaisy//src/per/dac.h ****     struct Config
  71:../../libDaisy//src/per/dac.h ****     {
  72:../../libDaisy//src/per/dac.h ****         /** Target Samplerate in Hz used to configure the internal 
  73:../../libDaisy//src/per/dac.h ****          ** timebase for DMA mode. Does nothing in POLLING mode.
  74:../../libDaisy//src/per/dac.h ****          ** If the value is 0 at Init time this will default to 48000Hz 
  75:../../libDaisy//src/per/dac.h ****          ** otherwise the driver will attempt meet the target.*/
  76:../../libDaisy//src/per/dac.h ****         uint32_t target_samplerate;
  77:../../libDaisy//src/per/dac.h **** 
  78:../../libDaisy//src/per/dac.h ****         Channel     chn;
  79:../../libDaisy//src/per/dac.h ****         Mode        mode;
  80:../../libDaisy//src/per/dac.h ****         BitDepth    bitdepth;
  81:../../libDaisy//src/per/dac.h ****         BufferState buff_state;
  82:../../libDaisy//src/per/dac.h ****     };
  83:../../libDaisy//src/per/dac.h **** 
  84:../../libDaisy//src/per/dac.h ****     DacHandle() : pimpl_(nullptr) {}
 1376              		.loc 20 84 5 is_stmt 1 view .LVU373
 1377              	.LBB454:
ARM GAS  /var/folders/fs/ht5wlc7s7b56r9p0ngl7ssgc0000gn/T//ccz1LIsm.s 			page 51


 1378              	.LBB455:
 1379              		.loc 20 84 33 is_stmt 0 view .LVU374
 1380 0014 2562     		str	r5, [r4, #32]
 1381              	.LVL87:
 1382              		.loc 20 84 33 view .LVU375
 1383              	.LBE455:
 1384              	.LBE454:
 1385              	.LBE453:
 1386              	.LBB456:
 1387              	.LBI456:
  40:../../libDaisy//src/hid/usb.h **** 
 1388              		.loc 8 40 5 is_stmt 1 view .LVU376
  40:../../libDaisy//src/hid/usb.h **** 
 1389              		.loc 8 40 5 is_stmt 0 view .LVU377
 1390              	.LBE456:
 1391              	.LBB457:
 1392              	.LBI457:
  77:../../libDaisy//src/sys/system.h ****     ~System() {}
 1393              		.loc 7 77 5 is_stmt 1 view .LVU378
  77:../../libDaisy//src/sys/system.h ****     ~System() {}
 1394              		.loc 7 77 5 is_stmt 0 view .LVU379
 1395              	.LBE457:
 1396              	.LBE460:
 1397              	.LBE471:
 1398              	.LBB472:
 1399              	.LBI472:
  20:../../libDaisy//src/hid/encoder.h ****     ~Encoder() {}
 1400              		.loc 4 20 5 is_stmt 1 view .LVU380
 1401              	.LBB473:
 1402              	.LBB474:
 1403              	.LBI474:
  41:../../libDaisy//src/hid/switch.h ****     ~Switch() {}
 1404              		.loc 5 41 5 view .LVU381
  41:../../libDaisy//src/hid/switch.h ****     ~Switch() {}
 1405              		.loc 5 41 5 is_stmt 0 view .LVU382
 1406              	.LBE474:
 1407              	.LBE473:
 1408              	.LBE472:
 1409              	.LBE478:
 1410              	.LBE482:
 1411              	.LBE504:
 1412              	.LBE508:
  66:../../libDaisy//src/daisy_petal.h ****     /** Destructor */
 1413              		.loc 3 66 18 is_stmt 1 view .LVU383
 1414              	.LBB509:
 1415              	.LBB505:
 1416              	.LBB483:
 1417              	.LBB479:
 1418              	.LBB475:
 1419              	.LBI475:
  21:../../libDaisy//src/hid/ctrl.h ****     /** destructor */
 1420              		.loc 2 21 5 view .LVU384
  21:../../libDaisy//src/hid/ctrl.h ****     /** destructor */
 1421              		.loc 2 21 5 is_stmt 0 view .LVU385
 1422              	.LBE475:
 1423              	.LBE479:
 1424              	.LBE483:
ARM GAS  /var/folders/fs/ht5wlc7s7b56r9p0ngl7ssgc0000gn/T//ccz1LIsm.s 			page 52


 1425              	.LBE505:
 1426              	.LBE509:
  66:../../libDaisy//src/daisy_petal.h ****     /** Destructor */
 1427              		.loc 3 66 18 is_stmt 1 view .LVU386
  66:../../libDaisy//src/daisy_petal.h ****     /** Destructor */
 1428              		.loc 3 66 18 view .LVU387
  66:../../libDaisy//src/daisy_petal.h ****     /** Destructor */
 1429              		.loc 3 66 18 view .LVU388
 1430              	.LBB510:
 1431              	.LBB506:
 1432              	.LBB484:
 1433              	.LBB480:
 1434              	.LBB476:
 1435              	.LBI462:
 1436              		.loc 19 32 7 view .LVU389
 1437              	.LBB468:
 1438              	.LBB464:
 1439              	.LBI464:
 1440              		.file 21 "../../libDaisy//src/per/i2c.h"
   1:../../libDaisy//src/per/i2c.h **** #pragma once
   2:../../libDaisy//src/per/i2c.h **** #include "daisy_core.h"
   3:../../libDaisy//src/per/i2c.h **** 
   4:../../libDaisy//src/per/i2c.h **** namespace daisy
   5:../../libDaisy//src/per/i2c.h **** {
   6:../../libDaisy//src/per/i2c.h **** /** A handle for interacting with an I2C peripheral. This is a dumb
   7:../../libDaisy//src/per/i2c.h ****  *  gateway that internally points to one of the four I2C peripherals
   8:../../libDaisy//src/per/i2c.h ****  *  after it was initialised. It can then be copied and passed around.
   9:../../libDaisy//src/per/i2c.h ****  *  Use an I2CHandle like this:
  10:../../libDaisy//src/per/i2c.h ****  *  
  11:../../libDaisy//src/per/i2c.h ****  *      // setup the configuration
  12:../../libDaisy//src/per/i2c.h ****  *      I2CHandle::Config i2c_conf;
  13:../../libDaisy//src/per/i2c.h ****  *      i2c_conf.periph = I2CHandle::Config::Peripheral::I2C_1;
  14:../../libDaisy//src/per/i2c.h ****  *      i2c_conf.speed  = I2CHandle::Config::Speed::I2C_400KHZ;
  15:../../libDaisy//src/per/i2c.h ****  *      i2c_conf.mode   = I2CHandle::Config::Mode::Master;
  16:../../libDaisy//src/per/i2c.h ****  *      i2c_conf.pin_config.scl  = {DSY_GPIOB, 8};
  17:../../libDaisy//src/per/i2c.h ****  *      i2c_conf.pin_config.sda  = {DSY_GPIOB, 9};
  18:../../libDaisy//src/per/i2c.h ****  *      // initialise the peripheral
  19:../../libDaisy//src/per/i2c.h ****  *      I2CHandle i2c;
  20:../../libDaisy//src/per/i2c.h ****  *      i2c.Init(i2c_conf);
  21:../../libDaisy//src/per/i2c.h ****  *      // now i2c points to the corresponding peripheral and can be used.
  22:../../libDaisy//src/per/i2c.h ****  *      i2c.TransmitBlocking( ... );
  23:../../libDaisy//src/per/i2c.h ****  */
  24:../../libDaisy//src/per/i2c.h **** class I2CHandle
  25:../../libDaisy//src/per/i2c.h **** {
  26:../../libDaisy//src/per/i2c.h ****   public:
  27:../../libDaisy//src/per/i2c.h ****     /** Contains settings for initialising an I2C interface. */
  28:../../libDaisy//src/per/i2c.h ****     struct Config
  29:../../libDaisy//src/per/i2c.h ****     {
  30:../../libDaisy//src/per/i2c.h ****         /** Specifies whether the interface will operate in master or slave mode. */
  31:../../libDaisy//src/per/i2c.h ****         enum class Mode
  32:../../libDaisy//src/per/i2c.h ****         {
  33:../../libDaisy//src/per/i2c.h ****             I2C_MASTER,
  34:../../libDaisy//src/per/i2c.h ****             I2C_SLAVE,
  35:../../libDaisy//src/per/i2c.h ****         };
  36:../../libDaisy//src/per/i2c.h **** 
  37:../../libDaisy//src/per/i2c.h ****         /** Specifices the internal peripheral to use (these are mapped to different pins on the ha
  38:../../libDaisy//src/per/i2c.h ****         enum class Peripheral
ARM GAS  /var/folders/fs/ht5wlc7s7b56r9p0ngl7ssgc0000gn/T//ccz1LIsm.s 			page 53


  39:../../libDaisy//src/per/i2c.h ****         {
  40:../../libDaisy//src/per/i2c.h ****             I2C_1 = 0, /**< & */
  41:../../libDaisy//src/per/i2c.h ****             I2C_2,     /**< & */
  42:../../libDaisy//src/per/i2c.h ****             I2C_3,     /**< & */
  43:../../libDaisy//src/per/i2c.h ****             I2C_4,     /**< & */
  44:../../libDaisy//src/per/i2c.h ****         };
  45:../../libDaisy//src/per/i2c.h **** 
  46:../../libDaisy//src/per/i2c.h ****         /** Rate at which the clock/data will be sent/received. The device being used will have max
  47:../../libDaisy//src/per/i2c.h ****          *  1MHZ Mode is currently 886kHz
  48:../../libDaisy//src/per/i2c.h ****          */
  49:../../libDaisy//src/per/i2c.h ****         enum class Speed
  50:../../libDaisy//src/per/i2c.h ****         {
  51:../../libDaisy//src/per/i2c.h ****             I2C_100KHZ, /**< & */
  52:../../libDaisy//src/per/i2c.h ****             I2C_400KHZ, /**< & */
  53:../../libDaisy//src/per/i2c.h ****             I2C_1MHZ,   /**< & */
  54:../../libDaisy//src/per/i2c.h ****         };
  55:../../libDaisy//src/per/i2c.h **** 
  56:../../libDaisy//src/per/i2c.h ****         Peripheral periph; /**< & */
  57:../../libDaisy//src/per/i2c.h ****         struct
  58:../../libDaisy//src/per/i2c.h ****         {
  59:../../libDaisy//src/per/i2c.h ****             dsy_gpio_pin scl; /**< & */
  60:../../libDaisy//src/per/i2c.h ****             dsy_gpio_pin sda; /**< & */
  61:../../libDaisy//src/per/i2c.h ****         } pin_config;         /**< & */
  62:../../libDaisy//src/per/i2c.h **** 
  63:../../libDaisy//src/per/i2c.h ****         Speed speed; /**< & */
  64:../../libDaisy//src/per/i2c.h ****         Mode  mode;  /**< & */
  65:../../libDaisy//src/per/i2c.h ****         // 0x10 is chosen as a default to avoid conflicts with reserved addresses
  66:../../libDaisy//src/per/i2c.h ****         uint8_t address = 0x10; /**< & */
  67:../../libDaisy//src/per/i2c.h ****     };
  68:../../libDaisy//src/per/i2c.h **** 
  69:../../libDaisy//src/per/i2c.h ****     /** Return values for I2C functions. */
  70:../../libDaisy//src/per/i2c.h ****     enum class Result
  71:../../libDaisy//src/per/i2c.h ****     {
  72:../../libDaisy//src/per/i2c.h ****         OK, /**< & */
  73:../../libDaisy//src/per/i2c.h ****         ERR /**< & */
  74:../../libDaisy//src/per/i2c.h ****     };
  75:../../libDaisy//src/per/i2c.h **** 
  76:../../libDaisy//src/per/i2c.h ****     enum class Direction
  77:../../libDaisy//src/per/i2c.h ****     {
  78:../../libDaisy//src/per/i2c.h ****         TRANSMIT, /**< & */
  79:../../libDaisy//src/per/i2c.h ****         RECEIVE,  /**< & */
  80:../../libDaisy//src/per/i2c.h ****     };
  81:../../libDaisy//src/per/i2c.h **** 
  82:../../libDaisy//src/per/i2c.h ****     I2CHandle() : pimpl_(nullptr) {}
 1441              		.loc 21 82 5 view .LVU390
 1442              	.LBB465:
 1443              	.LBB466:
 1444              		.loc 21 82 33 is_stmt 0 view .LVU391
 1445 0016 C4F8C454 		str	r5, [r4, #1220]
 1446              	.LVL88:
 1447              		.loc 21 82 33 view .LVU392
 1448              	.LBE466:
 1449              	.LBE465:
 1450              	.LBE464:
 1451              		.loc 19 32 7 view .LVU393
 1452 001a 2C49     		ldr	r1, .L65+8
 1453 001c FFF7FEFF 		bl	memcpy
ARM GAS  /var/folders/fs/ht5wlc7s7b56r9p0ngl7ssgc0000gn/T//ccz1LIsm.s 			page 54


 1454              	.LVL89:
 1455              		.loc 19 32 7 view .LVU394
 1456              	.LBE468:
 1457              	.LBE476:
 1458              	.LBE480:
 1459              	.LBE484:
  15:Pedal.cpp     **** DaisyPetal hw;
 1460              		.loc 17 15 12 view .LVU395
 1461 0020 3246     		mov	r2, r6
 1462 0022 2B49     		ldr	r1, .L65+12
 1463 0024 2046     		mov	r0, r4
 1464 0026 FFF7FEFF 		bl	__aeabi_atexit
 1465              	.LVL90:
  16:Pedal.cpp     **** Delay delay;
 1466              		.loc 17 16 7 view .LVU396
 1467 002a 2A48     		ldr	r0, .L65+16
 1468 002c FFF7FEFF 		bl	_ZN5DelayC1Ev
 1469              	.LVL91:
 1470              	.LBB485:
 1471              	.LBI485:
  22:../../DaisySP//Source/Dynamics/balance.h ****     ~Balance() {}
 1472              		.loc 12 22 5 is_stmt 1 view .LVU397
  22:../../DaisySP//Source/Dynamics/balance.h ****     ~Balance() {}
 1473              		.loc 12 22 5 is_stmt 0 view .LVU398
 1474              	.LBE485:
  17:Pedal.cpp     **** Balance balance;
 1475              		.loc 17 17 9 view .LVU399
 1476 0030 3246     		mov	r2, r6
 1477 0032 2949     		ldr	r1, .L65+20
 1478 0034 2948     		ldr	r0, .L65+24
 1479              	.LBB486:
 1480              	.LBB487:
 1481              		.file 22 "TapTempo.h"
   1:TapTempo.h    **** /*
   2:TapTempo.h    ****  * Ported from https://github.com/dxinteractive/ArduinoTapTempo/tree/master 
   3:TapTempo.h    ****  * Info from original file below
   4:TapTempo.h    ****  * 
   5:TapTempo.h    ****  * An Arduino library that times consecutive button presses to calculate Beats Per Minute. Corrects
   6:TapTempo.h    ****  * Copyright (c) 2016 Damien Clarke
   7:TapTempo.h    ****  * 
   8:TapTempo.h    ****  * Permission is hereby granted, free of charge, to any person obtaining a copy
   9:TapTempo.h    ****  * of this software and associated documentation files (the "Software"), to deal
  10:TapTempo.h    ****  * in the Software without restriction, including without limitation the rights
  11:TapTempo.h    ****  * to use, copy, modify, merge, publish, distribute, sublicense, and/or sell
  12:TapTempo.h    ****  * copies of the Software, and to permit persons to whom the Software is
  13:TapTempo.h    ****  * furnished to do so, subject to the following conditions:
  14:TapTempo.h    ****  * 
  15:TapTempo.h    ****  * The above copyright notice and this permission notice shall be included in all
  16:TapTempo.h    ****  * copies or substantial portions of the Software.
  17:TapTempo.h    ****  * 
  18:TapTempo.h    ****  * THE SOFTWARE IS PROVIDED "AS IS", WITHOUT WARRANTY OF ANY KIND, EXPRESS OR
  19:TapTempo.h    ****  * IMPLIED, INCLUDING BUT NOT LIMITED TO THE WARRANTIES OF MERCHANTABILITY,
  20:TapTempo.h    ****  * FITNESS FOR A PARTICULAR PURPOSE AND NONINFRINGEMENT. IN NO EVENT SHALL THE
  21:TapTempo.h    ****  * AUTHORS OR COPYRIGHT HOLDERS BE LIABLE FOR ANY CLAIM, DAMAGES OR OTHER
  22:TapTempo.h    ****  * LIABILITY, WHETHER IN AN ACTION OF CONTRACT, TORT OR OTHERWISE, ARISING FROM,
  23:TapTempo.h    ****  * OUT OF OR IN CONNECTION WITH THE SOFTWARE OR THE USE OR OTHER DEALINGS IN THE
  24:TapTempo.h    ****  * SOFTWARE.  
ARM GAS  /var/folders/fs/ht5wlc7s7b56r9p0ngl7ssgc0000gn/T//ccz1LIsm.s 			page 55


  25:TapTempo.h    ****  */
  26:TapTempo.h    ****  
  27:TapTempo.h    **** #ifndef TAP_TEMPO_H
  28:TapTempo.h    **** #define TAP_TEMPO_H
  29:TapTempo.h    **** #include <math.h>
  30:TapTempo.h    **** #include "daisy_seed.h"
  31:TapTempo.h    **** 
  32:TapTempo.h    **** class TapTempo
 1482              		.loc 22 32 7 view .LVU400
 1483 0036 2A4C     		ldr	r4, .L65+28
 1484              	.LBE487:
 1485              	.LBE486:
  17:Pedal.cpp     **** Balance balance;
 1486              		.loc 17 17 9 view .LVU401
 1487 0038 FFF7FEFF 		bl	__aeabi_atexit
 1488              	.LVL92:
 1489              	.LBB492:
 1490              	.LBI486:
 1491              		.loc 22 32 7 is_stmt 1 view .LVU402
 1492              	.LBB488:
 1493 003c 294B     		ldr	r3, .L65+32
 1494 003e 0321     		movs	r1, #3
 1495 0040 294A     		ldr	r2, .L65+36
 1496 0042 2361     		str	r3, [r4, #16]	@ float
 1497 0044 4FF4FA73 		mov	r3, #500
 1498 0048 6261     		str	r2, [r4, #20]	@ float
 1499 004a 4FF4FA62 		mov	r2, #2000
 1500 004e 6362     		str	r3, [r4, #36]
 1501 0050 FA23     		movs	r3, #250
 1502 0052 2576     		strb	r5, [r4, #24]
 1503              	.LBE488:
 1504              	.LBE492:
  19:Pedal.cpp     **** ToneFilter tone(48000.f);
 1505              		.loc 17 19 24 is_stmt 0 view .LVU403
 1506 0054 254F     		ldr	r7, .L65+40
 1507              	.LBB493:
 1508              	.LBB489:
 1509              		.loc 22 32 7 view .LVU404
 1510 0056 C4E90023 		strd	r2, r3, [r4]
 1511 005a 0823     		movs	r3, #8
 1512 005c C4E90755 		strd	r5, r5, [r4, #28]
 1513 0060 C4E90213 		strd	r1, r3, [r4, #8]
 1514 0064 FFF7FEFF 		bl	_ZN5daisy6System6GetNowEv
 1515              	.LVL93:
 1516 0068 0123     		movs	r3, #1
 1517              	.LBE489:
 1518              	.LBE493:
  19:Pedal.cpp     **** ToneFilter tone(48000.f);
 1519              		.loc 17 19 24 view .LVU405
 1520 006a 9FED210A 		vldr.32	s0, .L65+44
 1521              	.LBB494:
 1522              	.LBB490:
 1523              		.loc 22 32 7 view .LVU406
 1524 006e A4F86030 		strh	r3, [r4, #96]	@ movhi
 1525              	.LVL94:
 1526              		.loc 22 32 7 view .LVU407
 1527 0072 E562     		str	r5, [r4, #44]
ARM GAS  /var/folders/fs/ht5wlc7s7b56r9p0ngl7ssgc0000gn/T//ccz1LIsm.s 			page 56


 1528 0074 A565     		str	r5, [r4, #88]
 1529 0076 A062     		str	r0, [r4, #40]
 1530              	.LBE490:
 1531              	.LBE494:
  19:Pedal.cpp     **** ToneFilter tone(48000.f);
 1532              		.loc 17 19 24 view .LVU408
 1533 0078 3846     		mov	r0, r7
 1534              	.LBB495:
 1535              	.LBB491:
 1536              		.loc 22 32 7 view .LVU409
 1537 007a E565     		str	r5, [r4, #92]
 1538              	.LBE491:
 1539              	.LBE495:
  19:Pedal.cpp     **** ToneFilter tone(48000.f);
 1540              		.loc 17 19 24 view .LVU410
 1541 007c FFF7FEFF 		bl	_ZN10ToneFilterC1Ef
 1542              	.LVL95:
  19:Pedal.cpp     **** ToneFilter tone(48000.f);
 1543              		.loc 17 19 12 view .LVU411
 1544 0080 3246     		mov	r2, r6
 1545 0082 1C49     		ldr	r1, .L65+48
 1546 0084 3846     		mov	r0, r7
 1547 0086 FFF7FEFF 		bl	__aeabi_atexit
 1548              	.LVL96:
 1549              	.LBB496:
 1550              	.LBI496:
  36:../../DaisySP//Source/Dynamics/crossfade.h ****     ~CrossFade() {}
 1551              		.loc 13 36 5 is_stmt 1 view .LVU412
  36:../../DaisySP//Source/Dynamics/crossfade.h ****     ~CrossFade() {}
 1552              		.loc 13 36 5 is_stmt 0 view .LVU413
 1553              	.LBE496:
  20:Pedal.cpp     **** static CrossFade crossFade;
 1554              		.loc 17 20 18 view .LVU414
 1555 008a 3246     		mov	r2, r6
 1556 008c 1A49     		ldr	r1, .L65+52
 1557 008e 1B48     		ldr	r0, .L65+56
 1558 0090 FFF7FEFF 		bl	__aeabi_atexit
 1559              	.LVL97:
  21:Pedal.cpp     **** DelayLine<float, MAX_DELAY> DSY_SDRAM_BSS delayMems[4];
 1560              		.loc 17 21 54 is_stmt 1 view .LVU415
  27:Pedal.cpp     **** Parameter toneParam;
 1561              		.loc 17 27 11 is_stmt 0 view .LVU416
 1562 0094 1A4C     		ldr	r4, .L65+60
  21:Pedal.cpp     **** DelayLine<float, MAX_DELAY> DSY_SDRAM_BSS delayMems[4];
 1563              		.loc 17 21 43 view .LVU417
 1564 0096 3246     		mov	r2, r6
 1565 0098 1A49     		ldr	r1, .L65+64
 1566 009a 2846     		mov	r0, r5
 1567 009c FFF7FEFF 		bl	__aeabi_atexit
 1568              	.LVL98:
 1569              	.LBB497:
 1570              	.LBI497:
  15:../../DaisySP//Source/Synthesis/oscillator.h ****     ~Oscillator() {}
 1571              		.loc 11 15 5 is_stmt 1 view .LVU418
  15:../../DaisySP//Source/Synthesis/oscillator.h ****     ~Oscillator() {}
 1572              		.loc 11 15 5 is_stmt 0 view .LVU419
 1573              	.LBE497:
ARM GAS  /var/folders/fs/ht5wlc7s7b56r9p0ngl7ssgc0000gn/T//ccz1LIsm.s 			page 57


  23:Pedal.cpp     **** Oscillator osc;
 1574              		.loc 17 23 12 view .LVU420
 1575 00a0 3246     		mov	r2, r6
 1576 00a2 1949     		ldr	r1, .L65+68
 1577 00a4 1948     		ldr	r0, .L65+72
 1578 00a6 FFF7FEFF 		bl	__aeabi_atexit
 1579              	.LVL99:
 1580              	.LBB498:
 1581              	.LBI498:
  25:../../libDaisy//src/hid/parameter.h ****     /** Destructor */
 1582              		.loc 1 25 5 is_stmt 1 view .LVU421
 1583              	.LBB499:
 1584              	.LBB500:
 1585              	.LBI500:
  21:../../libDaisy//src/hid/ctrl.h ****     /** destructor */
 1586              		.loc 2 21 5 view .LVU422
  21:../../libDaisy//src/hid/ctrl.h ****     /** destructor */
 1587              		.loc 2 21 5 is_stmt 0 view .LVU423
 1588              	.LBE500:
 1589              	.LBE499:
 1590              	.LBE498:
  27:Pedal.cpp     **** Parameter toneParam;
 1591              		.loc 17 27 11 view .LVU424
 1592 00aa 3246     		mov	r2, r6
 1593 00ac 2146     		mov	r1, r4
 1594 00ae 1848     		ldr	r0, .L65+76
 1595 00b0 FFF7FEFF 		bl	__aeabi_atexit
 1596              	.LVL100:
 1597              	.LBB501:
 1598              	.LBI501:
  25:../../libDaisy//src/hid/parameter.h ****     /** Destructor */
 1599              		.loc 1 25 5 is_stmt 1 view .LVU425
 1600              	.LBB502:
 1601              	.LBB503:
 1602              	.LBI503:
  21:../../libDaisy//src/hid/ctrl.h ****     /** destructor */
 1603              		.loc 2 21 5 view .LVU426
  21:../../libDaisy//src/hid/ctrl.h ****     /** destructor */
 1604              		.loc 2 21 5 is_stmt 0 view .LVU427
 1605              	.LBE503:
 1606              	.LBE502:
 1607              	.LBE501:
  28:Pedal.cpp     **** Parameter bpmParam;
 1608              		.loc 17 28 11 view .LVU428
 1609 00b4 3246     		mov	r2, r6
 1610 00b6 2146     		mov	r1, r4
 1611 00b8 1648     		ldr	r0, .L65+80
 1612              	.LBE506:
 1613              	.LBE510:
 1614              		.loc 17 179 1 view .LVU429
 1615 00ba BDE8F840 		pop	{r3, r4, r5, r6, r7, lr}
 1616              		.cfi_restore 14
 1617              		.cfi_restore 7
 1618              		.cfi_restore 6
 1619              		.cfi_restore 5
 1620              		.cfi_restore 4
 1621              		.cfi_restore 3
ARM GAS  /var/folders/fs/ht5wlc7s7b56r9p0ngl7ssgc0000gn/T//ccz1LIsm.s 			page 58


 1622              		.cfi_def_cfa_offset 0
 1623              	.LBB511:
 1624              	.LBB507:
  28:Pedal.cpp     **** Parameter bpmParam;
 1625              		.loc 17 28 11 view .LVU430
 1626 00be FFF7FEBF 		b	__aeabi_atexit
 1627              	.LVL101:
 1628              	.L66:
 1629 00c2 00BF     		.align	2
 1630              	.L65:
 1631 00c4 00000000 		.word	.LANCHOR0
 1632 00c8 00000000 		.word	__dso_handle
 1633 00cc 00000000 		.word	.LANCHOR15
 1634 00d0 00000000 		.word	_ZN5daisy10DaisyPetalD1Ev
 1635 00d4 00000000 		.word	.LANCHOR3
 1636 00d8 00000000 		.word	_ZN7daisysp7BalanceD1Ev
 1637 00dc 00000000 		.word	.LANCHOR5
 1638 00e0 00000000 		.word	.LANCHOR8
 1639 00e4 0000E03F 		.word	1071644672
 1640 00e8 00003040 		.word	1076887552
 1641 00ec 00000000 		.word	.LANCHOR12
 1642 00f0 00803B47 		.word	1195081728
 1643 00f4 00000000 		.word	_ZN10ToneFilterD1Ev
 1644 00f8 00000000 		.word	_ZN7daisysp9CrossFadeD1Ev
 1645 00fc 00000000 		.word	.LANCHOR4
 1646 0100 00000000 		.word	_ZN5daisy9ParameterD1Ev
 1647 0104 00000000 		.word	__tcf_0
 1648 0108 00000000 		.word	_ZN7daisysp10OscillatorD1Ev
 1649 010c 00000000 		.word	.LANCHOR6
 1650 0110 00000000 		.word	.LANCHOR1
 1651 0114 00000000 		.word	.LANCHOR2
 1652              	.LBE507:
 1653              	.LBE511:
 1654              		.cfi_endproc
 1655              	.LFE5401:
 1657              		.section	.init_array,"aw",%init_array
 1658              		.align	2
 1659 0000 00000000 		.word	_GLOBAL__sub_I_hw(target1)
 1660              		.global	color
 1661              		.global	bpm
 1662              		.global	toneVal
 1663              		.global	feedback
 1664              		.global	dryWet
 1665              		.global	bypass
 1666              		.global	bpmParam
 1667              		.global	toneParam
 1668              		.global	osc
 1669              		.global	delayMems
 1670              		.global	tone
 1671              		.global	tapTempo
 1672              		.global	balance
 1673              		.global	delay
 1674              		.global	hw
 1675              		.section	.rodata
 1676              		.align	2
 1677              		.set	.LANCHOR15,. + 0
 1678              	.LC0:
ARM GAS  /var/folders/fs/ht5wlc7s7b56r9p0ngl7ssgc0000gn/T//ccz1LIsm.s 			page 59


 1679 0000 0000     		.short	0
 1680 0002 0100     		.short	1
 1681 0004 0100     		.short	1
 1682 0006 0100     		.short	1
 1683 0008 0100     		.short	1
 1684 000a 0100     		.short	1
 1685 000c 0100     		.short	1
 1686 000e 0100     		.short	1
 1687 0010 0100     		.short	1
 1688 0012 0100     		.short	1
 1689 0014 0100     		.short	1
 1690 0016 0100     		.short	1
 1691 0018 0200     		.short	2
 1692 001a 0200     		.short	2
 1693 001c 0200     		.short	2
 1694 001e 0200     		.short	2
 1695 0020 0200     		.short	2
 1696 0022 0200     		.short	2
 1697 0024 0200     		.short	2
 1698 0026 0300     		.short	3
 1699 0028 0300     		.short	3
 1700 002a 0400     		.short	4
 1701 002c 0400     		.short	4
 1702 002e 0500     		.short	5
 1703 0030 0500     		.short	5
 1704 0032 0600     		.short	6
 1705 0034 0700     		.short	7
 1706 0036 0800     		.short	8
 1707 0038 0800     		.short	8
 1708 003a 0900     		.short	9
 1709 003c 0A00     		.short	10
 1710 003e 0B00     		.short	11
 1711 0040 0C00     		.short	12
 1712 0042 0D00     		.short	13
 1713 0044 0F00     		.short	15
 1714 0046 1000     		.short	16
 1715 0048 1100     		.short	17
 1716 004a 1200     		.short	18
 1717 004c 1400     		.short	20
 1718 004e 1500     		.short	21
 1719 0050 1700     		.short	23
 1720 0052 1900     		.short	25
 1721 0054 1A00     		.short	26
 1722 0056 1C00     		.short	28
 1723 0058 1E00     		.short	30
 1724 005a 2000     		.short	32
 1725 005c 2200     		.short	34
 1726 005e 2400     		.short	36
 1727 0060 2600     		.short	38
 1728 0062 2800     		.short	40
 1729 0064 2B00     		.short	43
 1730 0066 2D00     		.short	45
 1731 0068 3000     		.short	48
 1732 006a 3200     		.short	50
 1733 006c 3500     		.short	53
 1734 006e 3800     		.short	56
 1735 0070 3B00     		.short	59
ARM GAS  /var/folders/fs/ht5wlc7s7b56r9p0ngl7ssgc0000gn/T//ccz1LIsm.s 			page 60


 1736 0072 3E00     		.short	62
 1737 0074 4100     		.short	65
 1738 0076 4400     		.short	68
 1739 0078 4700     		.short	71
 1740 007a 4B00     		.short	75
 1741 007c 4E00     		.short	78
 1742 007e 5200     		.short	82
 1743 0080 5500     		.short	85
 1744 0082 5900     		.short	89
 1745 0084 5D00     		.short	93
 1746 0086 6100     		.short	97
 1747 0088 6500     		.short	101
 1748 008a 6900     		.short	105
 1749 008c 6E00     		.short	110
 1750 008e 7200     		.short	114
 1751 0090 7700     		.short	119
 1752 0092 7B00     		.short	123
 1753 0094 8000     		.short	128
 1754 0096 8500     		.short	133
 1755 0098 8A00     		.short	138
 1756 009a 8F00     		.short	143
 1757 009c 9500     		.short	149
 1758 009e 9A00     		.short	154
 1759 00a0 9F00     		.short	159
 1760 00a2 A500     		.short	165
 1761 00a4 AB00     		.short	171
 1762 00a6 B100     		.short	177
 1763 00a8 B700     		.short	183
 1764 00aa BD00     		.short	189
 1765 00ac C300     		.short	195
 1766 00ae CA00     		.short	202
 1767 00b0 D000     		.short	208
 1768 00b2 D700     		.short	215
 1769 00b4 DE00     		.short	222
 1770 00b6 E500     		.short	229
 1771 00b8 EC00     		.short	236
 1772 00ba F300     		.short	243
 1773 00bc FA00     		.short	250
 1774 00be 0201     		.short	258
 1775 00c0 0A01     		.short	266
 1776 00c2 1101     		.short	273
 1777 00c4 1901     		.short	281
 1778 00c6 2201     		.short	290
 1779 00c8 2A01     		.short	298
 1780 00ca 3201     		.short	306
 1781 00cc 3B01     		.short	315
 1782 00ce 4401     		.short	324
 1783 00d0 4C01     		.short	332
 1784 00d2 5501     		.short	341
 1785 00d4 5F01     		.short	351
 1786 00d6 6801     		.short	360
 1787 00d8 7101     		.short	369
 1788 00da 7B01     		.short	379
 1789 00dc 8501     		.short	389
 1790 00de 8F01     		.short	399
 1791 00e0 9901     		.short	409
 1792 00e2 A301     		.short	419
ARM GAS  /var/folders/fs/ht5wlc7s7b56r9p0ngl7ssgc0000gn/T//ccz1LIsm.s 			page 61


 1793 00e4 AE01     		.short	430
 1794 00e6 B801     		.short	440
 1795 00e8 C301     		.short	451
 1796 00ea CE01     		.short	462
 1797 00ec D901     		.short	473
 1798 00ee E501     		.short	485
 1799 00f0 F001     		.short	496
 1800 00f2 FC01     		.short	508
 1801 00f4 0802     		.short	520
 1802 00f6 1402     		.short	532
 1803 00f8 2002     		.short	544
 1804 00fa 2C02     		.short	556
 1805 00fc 3902     		.short	569
 1806 00fe 4602     		.short	582
 1807 0100 5202     		.short	594
 1808 0102 6002     		.short	608
 1809 0104 6D02     		.short	621
 1810 0106 7A02     		.short	634
 1811 0108 8802     		.short	648
 1812 010a 9602     		.short	662
 1813 010c A402     		.short	676
 1814 010e B202     		.short	690
 1815 0110 C002     		.short	704
 1816 0112 CF02     		.short	719
 1817 0114 DE02     		.short	734
 1818 0116 ED02     		.short	749
 1819 0118 FC02     		.short	764
 1820 011a 0B03     		.short	779
 1821 011c 1B03     		.short	795
 1822 011e 2B03     		.short	811
 1823 0120 3B03     		.short	827
 1824 0122 4B03     		.short	843
 1825 0124 5B03     		.short	859
 1826 0126 6C03     		.short	876
 1827 0128 7D03     		.short	893
 1828 012a 8E03     		.short	910
 1829 012c 9F03     		.short	927
 1830 012e B003     		.short	944
 1831 0130 C203     		.short	962
 1832 0132 D403     		.short	980
 1833 0134 E603     		.short	998
 1834 0136 F803     		.short	1016
 1835 0138 0A04     		.short	1034
 1836 013a 1D04     		.short	1053
 1837 013c 3004     		.short	1072
 1838 013e 4304     		.short	1091
 1839 0140 5604     		.short	1110
 1840 0142 6A04     		.short	1130
 1841 0144 7E04     		.short	1150
 1842 0146 9204     		.short	1170
 1843 0148 A604     		.short	1190
 1844 014a BA04     		.short	1210
 1845 014c CF04     		.short	1231
 1846 014e E404     		.short	1252
 1847 0150 F904     		.short	1273
 1848 0152 0E05     		.short	1294
 1849 0154 2405     		.short	1316
ARM GAS  /var/folders/fs/ht5wlc7s7b56r9p0ngl7ssgc0000gn/T//ccz1LIsm.s 			page 62


 1850 0156 3A05     		.short	1338
 1851 0158 5005     		.short	1360
 1852 015a 6605     		.short	1382
 1853 015c 7C05     		.short	1404
 1854 015e 9305     		.short	1427
 1855 0160 AA05     		.short	1450
 1856 0162 C105     		.short	1473
 1857 0164 D905     		.short	1497
 1858 0166 F005     		.short	1520
 1859 0168 0806     		.short	1544
 1860 016a 2006     		.short	1568
 1861 016c 3906     		.short	1593
 1862 016e 5106     		.short	1617
 1863 0170 6A06     		.short	1642
 1864 0172 8306     		.short	1667
 1865 0174 9D06     		.short	1693
 1866 0176 B606     		.short	1718
 1867 0178 D006     		.short	1744
 1868 017a EA06     		.short	1770
 1869 017c 0507     		.short	1797
 1870 017e 1F07     		.short	1823
 1871 0180 3A07     		.short	1850
 1872 0182 5507     		.short	1877
 1873 0184 7107     		.short	1905
 1874 0186 8C07     		.short	1932
 1875 0188 A807     		.short	1960
 1876 018a C407     		.short	1988
 1877 018c E107     		.short	2017
 1878 018e FD07     		.short	2045
 1879 0190 1A08     		.short	2074
 1880 0192 3708     		.short	2103
 1881 0194 5508     		.short	2133
 1882 0196 7208     		.short	2162
 1883 0198 9008     		.short	2192
 1884 019a AF08     		.short	2223
 1885 019c CD08     		.short	2253
 1886 019e EC08     		.short	2284
 1887 01a0 0B09     		.short	2315
 1888 01a2 2A09     		.short	2346
 1889 01a4 4A09     		.short	2378
 1890 01a6 6A09     		.short	2410
 1891 01a8 8A09     		.short	2442
 1892 01aa AA09     		.short	2474
 1893 01ac CB09     		.short	2507
 1894 01ae EC09     		.short	2540
 1895 01b0 0D0A     		.short	2573
 1896 01b2 2E0A     		.short	2606
 1897 01b4 500A     		.short	2640
 1898 01b6 720A     		.short	2674
 1899 01b8 940A     		.short	2708
 1900 01ba B70A     		.short	2743
 1901 01bc DA0A     		.short	2778
 1902 01be FD0A     		.short	2813
 1903 01c0 210B     		.short	2849
 1904 01c2 440B     		.short	2884
 1905 01c4 680B     		.short	2920
 1906 01c6 8D0B     		.short	2957
ARM GAS  /var/folders/fs/ht5wlc7s7b56r9p0ngl7ssgc0000gn/T//ccz1LIsm.s 			page 63


 1907 01c8 B10B     		.short	2993
 1908 01ca D60B     		.short	3030
 1909 01cc FB0B     		.short	3067
 1910 01ce 210C     		.short	3105
 1911 01d0 470C     		.short	3143
 1912 01d2 6D0C     		.short	3181
 1913 01d4 930C     		.short	3219
 1914 01d6 BA0C     		.short	3258
 1915 01d8 E10C     		.short	3297
 1916 01da 080D     		.short	3336
 1917 01dc 300D     		.short	3376
 1918 01de 580D     		.short	3416
 1919 01e0 800D     		.short	3456
 1920 01e2 A80D     		.short	3496
 1921 01e4 D10D     		.short	3537
 1922 01e6 FA0D     		.short	3578
 1923 01e8 230E     		.short	3619
 1924 01ea 4D0E     		.short	3661
 1925 01ec 770E     		.short	3703
 1926 01ee A10E     		.short	3745
 1927 01f0 CC0E     		.short	3788
 1928 01f2 F70E     		.short	3831
 1929 01f4 220F     		.short	3874
 1930 01f6 4E0F     		.short	3918
 1931 01f8 7A0F     		.short	3962
 1932 01fa A60F     		.short	4006
 1933 01fc D20F     		.short	4050
 1934 01fe FF0F     		.short	4095
 1935              		.section	.bss._ZL9crossFade,"aw",%nobits
 1936              		.align	2
 1937              		.set	.LANCHOR4,. + 0
 1940              	_ZL9crossFade:
 1941 0000 00000000 		.space	8
 1941      00000000 
 1942              		.section	.bss.balance,"aw",%nobits
 1943              		.align	2
 1944              		.set	.LANCHOR5,. + 0
 1947              	balance:
 1948 0000 00000000 		.space	28
 1948      00000000 
 1948      00000000 
 1948      00000000 
 1948      00000000 
 1949              		.section	.bss.bpm,"aw",%nobits
 1950              		.align	2
 1951              		.set	.LANCHOR13,. + 0
 1954              	bpm:
 1955 0000 00000000 		.space	4
 1956              		.section	.bss.bpmParam,"aw",%nobits
 1957              		.align	2
 1958              		.set	.LANCHOR2,. + 0
 1961              	bpmParam:
 1962 0000 00000000 		.space	56
 1962      00000000 
 1962      00000000 
 1962      00000000 
 1962      00000000 
ARM GAS  /var/folders/fs/ht5wlc7s7b56r9p0ngl7ssgc0000gn/T//ccz1LIsm.s 			page 64


 1963              		.section	.bss.color,"aw",%nobits
 1964              		.align	2
 1965              		.set	.LANCHOR14,. + 0
 1968              	color:
 1969 0000 00000000 		.space	4
 1970              		.section	.bss.delay,"aw",%nobits
 1971              		.align	2
 1972              		.set	.LANCHOR3,. + 0
 1975              	delay:
 1976 0000 00000000 		.space	112
 1976      00000000 
 1976      00000000 
 1976      00000000 
 1976      00000000 
 1977              		.section	.bss.dryWet,"aw",%nobits
 1978              		.align	2
 1979              		.set	.LANCHOR9,. + 0
 1982              	dryWet:
 1983 0000 00000000 		.space	4
 1984              		.section	.bss.feedback,"aw",%nobits
 1985              		.align	2
 1986              		.set	.LANCHOR10,. + 0
 1989              	feedback:
 1990 0000 00000000 		.space	4
 1991              		.section	.bss.hw,"aw",%nobits
 1992              		.align	2
 1993              		.set	.LANCHOR0,. + 0
 1996              	hw:
 1997 0000 00000000 		.space	1756
 1997      00000000 
 1997      00000000 
 1997      00000000 
 1997      00000000 
 1998              		.section	.bss.osc,"aw",%nobits
 1999              		.align	2
 2000              		.set	.LANCHOR6,. + 0
 2003              	osc:
 2004 0000 00000000 		.space	48
 2004      00000000 
 2004      00000000 
 2004      00000000 
 2004      00000000 
 2005              		.section	.bss.tapTempo,"aw",%nobits
 2006              		.align	2
 2007              		.set	.LANCHOR8,. + 0
 2010              	tapTempo:
 2011 0000 00000000 		.space	100
 2011      00000000 
 2011      00000000 
 2011      00000000 
 2011      00000000 
 2012              		.section	.bss.tone,"aw",%nobits
 2013              		.align	2
 2014              		.set	.LANCHOR12,. + 0
 2017              	tone:
 2018 0000 00000000 		.space	60
 2018      00000000 
ARM GAS  /var/folders/fs/ht5wlc7s7b56r9p0ngl7ssgc0000gn/T//ccz1LIsm.s 			page 65


 2018      00000000 
 2018      00000000 
 2018      00000000 
 2019              		.section	.bss.toneParam,"aw",%nobits
 2020              		.align	2
 2021              		.set	.LANCHOR1,. + 0
 2024              	toneParam:
 2025 0000 00000000 		.space	56
 2025      00000000 
 2025      00000000 
 2025      00000000 
 2025      00000000 
 2026              		.section	.bss.toneVal,"aw",%nobits
 2027              		.align	2
 2028              		.set	.LANCHOR11,. + 0
 2031              	toneVal:
 2032 0000 00000000 		.space	4
 2033              		.section	.data.bypass,"aw"
 2034              		.set	.LANCHOR7,. + 0
 2037              	bypass:
 2038 0000 01       		.byte	1
 2039              		.section	.sdram_bss,"aw"
 2040              		.align	2
 2043              	delayMems:
 2044 0000 00000000 		.space	1536048
 2044      00000000 
 2044      00000000 
 2044      00000000 
 2044      00000000 
 2045              		.text
 2046              	.Letext0:
 2047              		.file 23 "/Library/DaisyToolchain/0.2.0/arm/arm-none-eabi/include/machine/_default_types.h"
 2048              		.file 24 "/Library/DaisyToolchain/0.2.0/arm/arm-none-eabi/include/sys/_stdint.h"
 2049              		.file 25 "/Library/DaisyToolchain/0.2.0/arm/arm-none-eabi/include/stdint.h"
 2050              		.file 26 "/Library/DaisyToolchain/0.2.0/arm/lib/gcc/arm-none-eabi/10.3.1/include/stddef.h"
 2051              		.file 27 "/Library/DaisyToolchain/0.2.0/arm/arm-none-eabi/include/c++/10.3.1/cmath"
 2052              		.file 28 "/Library/DaisyToolchain/0.2.0/arm/arm-none-eabi/include/c++/10.3.1/bits/std_abs.h"
 2053              		.file 29 "/Library/DaisyToolchain/0.2.0/arm/arm-none-eabi/include/c++/10.3.1/cstdlib"
 2054              		.file 30 "/Library/DaisyToolchain/0.2.0/arm/arm-none-eabi/include/c++/10.3.1/cstdint"
 2055              		.file 31 "/Library/DaisyToolchain/0.2.0/arm/arm-none-eabi/include/c++/10.3.1/type_traits"
 2056              		.file 32 "/Library/DaisyToolchain/0.2.0/arm/arm-none-eabi/include/c++/10.3.1/debug/debug.h"
 2057              		.file 33 "/Library/DaisyToolchain/0.2.0/arm/arm-none-eabi/include/c++/10.3.1/arm-none-eabi/thumb/v
 2058              		.file 34 "/Library/DaisyToolchain/0.2.0/arm/arm-none-eabi/include/c++/10.3.1/bits/algorithmfwd.h"
 2059              		.file 35 "/Library/DaisyToolchain/0.2.0/arm/arm-none-eabi/include/c++/10.3.1/bits/stl_pair.h"
 2060              		.file 36 "/Library/DaisyToolchain/0.2.0/arm/arm-none-eabi/include/c++/10.3.1/bits/exception_ptr.h"
 2061              		.file 37 "/Library/DaisyToolchain/0.2.0/arm/arm-none-eabi/include/c++/10.3.1/cstdarg"
 2062              		.file 38 "/Library/DaisyToolchain/0.2.0/arm/arm-none-eabi/include/c++/10.3.1/cstdio"
 2063              		.file 39 "/Library/DaisyToolchain/0.2.0/arm/arm-none-eabi/include/c++/10.3.1/cstring"
 2064              		.file 40 "/Library/DaisyToolchain/0.2.0/arm/arm-none-eabi/include/c++/10.3.1/cwchar"
 2065              		.file 41 "/Library/DaisyToolchain/0.2.0/arm/arm-none-eabi/include/c++/10.3.1/clocale"
 2066              		.file 42 "/Library/DaisyToolchain/0.2.0/arm/arm-none-eabi/include/c++/10.3.1/bits/basic_string.h"
 2067              		.file 43 "/Library/DaisyToolchain/0.2.0/arm/arm-none-eabi/include/c++/10.3.1/bits/stl_iterator.h"
 2068              		.file 44 "/Library/DaisyToolchain/0.2.0/arm/arm-none-eabi/include/c++/10.3.1/bits/predefined_ops.h
 2069              		.file 45 "/Library/DaisyToolchain/0.2.0/arm/arm-none-eabi/include/sys/_types.h"
 2070              		.file 46 "/Library/DaisyToolchain/0.2.0/arm/arm-none-eabi/include/sys/reent.h"
 2071              		.file 47 "/Library/DaisyToolchain/0.2.0/arm/arm-none-eabi/include/sys/lock.h"
 2072              		.file 48 "/Library/DaisyToolchain/0.2.0/arm/arm-none-eabi/include/math.h"
ARM GAS  /var/folders/fs/ht5wlc7s7b56r9p0ngl7ssgc0000gn/T//ccz1LIsm.s 			page 66


 2073              		.file 49 "/Library/DaisyToolchain/0.2.0/arm/arm-none-eabi/include/stdlib.h"
 2074              		.file 50 "/Library/DaisyToolchain/0.2.0/arm/arm-none-eabi/include/c++/10.3.1/math.h"
 2075              		.file 51 "/Library/DaisyToolchain/0.2.0/arm/arm-none-eabi/include/c++/10.3.1/stdlib.h"
 2076              		.file 52 "../../libDaisy//src/daisy_core.h"
 2077              		.file 53 "../../libDaisy//src/per/tim.h"
 2078              		.file 54 "../../libDaisy//src/per/sai.h"
 2079              		.file 55 "../../libDaisy//src/util/wav_format.h"
 2080              		.file 56 "../../libDaisy//src/hid/led.h"
 2081              		.file 57 "../../libDaisy//src/util/color.h"
 2082              		.file 58 "../../libDaisy//src/hid/rgb_led.h"
 2083              		.file 59 "../../libDaisy//src/dev/max11300.h"
 2084              		.file 60 "../../libDaisy//src/per/gpio.h"
 2085              		.file 61 "../../libDaisy//src/dev/sdram.h"
 2086              		.file 62 "/Library/DaisyToolchain/0.2.0/arm/lib/gcc/arm-none-eabi/10.3.1/include/stdarg.h"
 2087              		.file 63 "/Library/DaisyToolchain/0.2.0/arm/arm-none-eabi/include/stdio.h"
 2088              		.file 64 "/Library/DaisyToolchain/0.2.0/arm/arm-none-eabi/include/string.h"
 2089              		.file 65 "../../DaisySP//Source/Control/adenv.h"
 2090              		.file 66 "../../DaisySP//Source/Utility/dsp.h"
 2091              		.file 67 "../../DaisySP//Source/Utility/delayline.h"
 2092              		.file 68 "delayline_reverse.h"
 2093              		.file 69 "/Library/DaisyToolchain/0.2.0/arm/arm-none-eabi/include/wchar.h"
 2094              		.file 70 "/Library/DaisyToolchain/0.2.0/arm/arm-none-eabi/include/locale.h"
 2095              		.file 71 "Terrarium.h"
 2096              		.file 72 "Delay.h"
 2097              		.file 73 "../../libDaisy//src/dev/sr_595.h"
 2098              		.file 74 "<built-in>"
ARM GAS  /var/folders/fs/ht5wlc7s7b56r9p0ngl7ssgc0000gn/T//ccz1LIsm.s 			page 67


DEFINED SYMBOLS
                            *ABS*:0000000000000000 Pedal.cpp
/var/folders/fs/ht5wlc7s7b56r9p0ngl7ssgc0000gn/T//ccz1LIsm.s:19     .text._ZN5daisy9ParameterD2Ev:0000000000000000 $t
/var/folders/fs/ht5wlc7s7b56r9p0ngl7ssgc0000gn/T//ccz1LIsm.s:26     .text._ZN5daisy9ParameterD2Ev:0000000000000000 _ZN5daisy9ParameterD2Ev
/var/folders/fs/ht5wlc7s7b56r9p0ngl7ssgc0000gn/T//ccz1LIsm.s:26     .text._ZN5daisy9ParameterD2Ev:0000000000000000 _ZN5daisy9ParameterD1Ev
/var/folders/fs/ht5wlc7s7b56r9p0ngl7ssgc0000gn/T//ccz1LIsm.s:49     .text._ZN5daisy10DaisyPetalD2Ev:0000000000000000 $t
/var/folders/fs/ht5wlc7s7b56r9p0ngl7ssgc0000gn/T//ccz1LIsm.s:56     .text._ZN5daisy10DaisyPetalD2Ev:0000000000000000 _ZN5daisy10DaisyPetalD2Ev
/var/folders/fs/ht5wlc7s7b56r9p0ngl7ssgc0000gn/T//ccz1LIsm.s:56     .text._ZN5daisy10DaisyPetalD2Ev:0000000000000000 _ZN5daisy10DaisyPetalD1Ev
/var/folders/fs/ht5wlc7s7b56r9p0ngl7ssgc0000gn/T//ccz1LIsm.s:118    .text._ZN7daisysp10OscillatorD2Ev:0000000000000000 $t
/var/folders/fs/ht5wlc7s7b56r9p0ngl7ssgc0000gn/T//ccz1LIsm.s:125    .text._ZN7daisysp10OscillatorD2Ev:0000000000000000 _ZN7daisysp10OscillatorD2Ev
/var/folders/fs/ht5wlc7s7b56r9p0ngl7ssgc0000gn/T//ccz1LIsm.s:125    .text._ZN7daisysp10OscillatorD2Ev:0000000000000000 _ZN7daisysp10OscillatorD1Ev
/var/folders/fs/ht5wlc7s7b56r9p0ngl7ssgc0000gn/T//ccz1LIsm.s:142    .text._ZN7daisysp7BalanceD2Ev:0000000000000000 $t
/var/folders/fs/ht5wlc7s7b56r9p0ngl7ssgc0000gn/T//ccz1LIsm.s:149    .text._ZN7daisysp7BalanceD2Ev:0000000000000000 _ZN7daisysp7BalanceD2Ev
/var/folders/fs/ht5wlc7s7b56r9p0ngl7ssgc0000gn/T//ccz1LIsm.s:149    .text._ZN7daisysp7BalanceD2Ev:0000000000000000 _ZN7daisysp7BalanceD1Ev
/var/folders/fs/ht5wlc7s7b56r9p0ngl7ssgc0000gn/T//ccz1LIsm.s:166    .text._ZN7daisysp9CrossFadeD2Ev:0000000000000000 $t
/var/folders/fs/ht5wlc7s7b56r9p0ngl7ssgc0000gn/T//ccz1LIsm.s:173    .text._ZN7daisysp9CrossFadeD2Ev:0000000000000000 _ZN7daisysp9CrossFadeD2Ev
/var/folders/fs/ht5wlc7s7b56r9p0ngl7ssgc0000gn/T//ccz1LIsm.s:173    .text._ZN7daisysp9CrossFadeD2Ev:0000000000000000 _ZN7daisysp9CrossFadeD1Ev
/var/folders/fs/ht5wlc7s7b56r9p0ngl7ssgc0000gn/T//ccz1LIsm.s:190    .text._ZN10ToneFilterD2Ev:0000000000000000 $t
/var/folders/fs/ht5wlc7s7b56r9p0ngl7ssgc0000gn/T//ccz1LIsm.s:197    .text._ZN10ToneFilterD2Ev:0000000000000000 _ZN10ToneFilterD2Ev
/var/folders/fs/ht5wlc7s7b56r9p0ngl7ssgc0000gn/T//ccz1LIsm.s:197    .text._ZN10ToneFilterD2Ev:0000000000000000 _ZN10ToneFilterD1Ev
/var/folders/fs/ht5wlc7s7b56r9p0ngl7ssgc0000gn/T//ccz1LIsm.s:226    .text.__tcf_0:0000000000000000 $t
/var/folders/fs/ht5wlc7s7b56r9p0ngl7ssgc0000gn/T//ccz1LIsm.s:232    .text.__tcf_0:0000000000000000 __tcf_0
/var/folders/fs/ht5wlc7s7b56r9p0ngl7ssgc0000gn/T//ccz1LIsm.s:246    .text._Z10initParamsv:0000000000000000 $t
/var/folders/fs/ht5wlc7s7b56r9p0ngl7ssgc0000gn/T//ccz1LIsm.s:253    .text._Z10initParamsv:0000000000000000 _Z10initParamsv
/var/folders/fs/ht5wlc7s7b56r9p0ngl7ssgc0000gn/T//ccz1LIsm.s:324    .text._Z10initParamsv:0000000000000058 $d
/var/folders/fs/ht5wlc7s7b56r9p0ngl7ssgc0000gn/T//ccz1LIsm.s:332    .text.startup.main:0000000000000000 $t
/var/folders/fs/ht5wlc7s7b56r9p0ngl7ssgc0000gn/T//ccz1LIsm.s:339    .text.startup.main:0000000000000000 main
/var/folders/fs/ht5wlc7s7b56r9p0ngl7ssgc0000gn/T//ccz1LIsm.s:616    .text.startup.main:00000000000000bc $d
/var/folders/fs/ht5wlc7s7b56r9p0ngl7ssgc0000gn/T//ccz1LIsm.s:2043   .sdram_bss:0000000000000000 delayMems
/var/folders/fs/ht5wlc7s7b56r9p0ngl7ssgc0000gn/T//ccz1LIsm.s:1064   .text._Z13AudioCallbackPKPKfPPfj:0000000000000000 _Z13AudioCallbackPKPKfPPfj
/var/folders/fs/ht5wlc7s7b56r9p0ngl7ssgc0000gn/T//ccz1LIsm.s:630    .text._Z15processControlsv:0000000000000000 $t
/var/folders/fs/ht5wlc7s7b56r9p0ngl7ssgc0000gn/T//ccz1LIsm.s:637    .text._Z15processControlsv:0000000000000000 _Z15processControlsv
/var/folders/fs/ht5wlc7s7b56r9p0ngl7ssgc0000gn/T//ccz1LIsm.s:1036   .text._Z15processControlsv:0000000000000194 $d
/var/folders/fs/ht5wlc7s7b56r9p0ngl7ssgc0000gn/T//ccz1LIsm.s:1057   .text._Z13AudioCallbackPKPKfPPfj:0000000000000000 $t
/var/folders/fs/ht5wlc7s7b56r9p0ngl7ssgc0000gn/T//ccz1LIsm.s:1248   .text._Z13AudioCallbackPKPKfPPfj:000000000000008c $d
/var/folders/fs/ht5wlc7s7b56r9p0ngl7ssgc0000gn/T//ccz1LIsm.s:1257   .text.startup._GLOBAL__sub_I_hw:0000000000000000 $t
/var/folders/fs/ht5wlc7s7b56r9p0ngl7ssgc0000gn/T//ccz1LIsm.s:1263   .text.startup._GLOBAL__sub_I_hw:0000000000000000 _GLOBAL__sub_I_hw
/var/folders/fs/ht5wlc7s7b56r9p0ngl7ssgc0000gn/T//ccz1LIsm.s:1631   .text.startup._GLOBAL__sub_I_hw:00000000000000c4 $d
/var/folders/fs/ht5wlc7s7b56r9p0ngl7ssgc0000gn/T//ccz1LIsm.s:1658   .init_array:0000000000000000 $d
/var/folders/fs/ht5wlc7s7b56r9p0ngl7ssgc0000gn/T//ccz1LIsm.s:1968   .bss.color:0000000000000000 color
/var/folders/fs/ht5wlc7s7b56r9p0ngl7ssgc0000gn/T//ccz1LIsm.s:1954   .bss.bpm:0000000000000000 bpm
/var/folders/fs/ht5wlc7s7b56r9p0ngl7ssgc0000gn/T//ccz1LIsm.s:2031   .bss.toneVal:0000000000000000 toneVal
/var/folders/fs/ht5wlc7s7b56r9p0ngl7ssgc0000gn/T//ccz1LIsm.s:1989   .bss.feedback:0000000000000000 feedback
/var/folders/fs/ht5wlc7s7b56r9p0ngl7ssgc0000gn/T//ccz1LIsm.s:1982   .bss.dryWet:0000000000000000 dryWet
/var/folders/fs/ht5wlc7s7b56r9p0ngl7ssgc0000gn/T//ccz1LIsm.s:2037   .data.bypass:0000000000000000 bypass
/var/folders/fs/ht5wlc7s7b56r9p0ngl7ssgc0000gn/T//ccz1LIsm.s:1961   .bss.bpmParam:0000000000000000 bpmParam
/var/folders/fs/ht5wlc7s7b56r9p0ngl7ssgc0000gn/T//ccz1LIsm.s:2024   .bss.toneParam:0000000000000000 toneParam
/var/folders/fs/ht5wlc7s7b56r9p0ngl7ssgc0000gn/T//ccz1LIsm.s:2003   .bss.osc:0000000000000000 osc
/var/folders/fs/ht5wlc7s7b56r9p0ngl7ssgc0000gn/T//ccz1LIsm.s:2017   .bss.tone:0000000000000000 tone
/var/folders/fs/ht5wlc7s7b56r9p0ngl7ssgc0000gn/T//ccz1LIsm.s:2010   .bss.tapTempo:0000000000000000 tapTempo
/var/folders/fs/ht5wlc7s7b56r9p0ngl7ssgc0000gn/T//ccz1LIsm.s:1947   .bss.balance:0000000000000000 balance
/var/folders/fs/ht5wlc7s7b56r9p0ngl7ssgc0000gn/T//ccz1LIsm.s:1975   .bss.delay:0000000000000000 delay
/var/folders/fs/ht5wlc7s7b56r9p0ngl7ssgc0000gn/T//ccz1LIsm.s:1996   .bss.hw:0000000000000000 hw
/var/folders/fs/ht5wlc7s7b56r9p0ngl7ssgc0000gn/T//ccz1LIsm.s:1676   .rodata:0000000000000000 $d
/var/folders/fs/ht5wlc7s7b56r9p0ngl7ssgc0000gn/T//ccz1LIsm.s:1936   .bss._ZL9crossFade:0000000000000000 $d
/var/folders/fs/ht5wlc7s7b56r9p0ngl7ssgc0000gn/T//ccz1LIsm.s:1940   .bss._ZL9crossFade:0000000000000000 _ZL9crossFade
/var/folders/fs/ht5wlc7s7b56r9p0ngl7ssgc0000gn/T//ccz1LIsm.s:1943   .bss.balance:0000000000000000 $d
ARM GAS  /var/folders/fs/ht5wlc7s7b56r9p0ngl7ssgc0000gn/T//ccz1LIsm.s 			page 68


/var/folders/fs/ht5wlc7s7b56r9p0ngl7ssgc0000gn/T//ccz1LIsm.s:1950   .bss.bpm:0000000000000000 $d
/var/folders/fs/ht5wlc7s7b56r9p0ngl7ssgc0000gn/T//ccz1LIsm.s:1957   .bss.bpmParam:0000000000000000 $d
/var/folders/fs/ht5wlc7s7b56r9p0ngl7ssgc0000gn/T//ccz1LIsm.s:1964   .bss.color:0000000000000000 $d
/var/folders/fs/ht5wlc7s7b56r9p0ngl7ssgc0000gn/T//ccz1LIsm.s:1971   .bss.delay:0000000000000000 $d
/var/folders/fs/ht5wlc7s7b56r9p0ngl7ssgc0000gn/T//ccz1LIsm.s:1978   .bss.dryWet:0000000000000000 $d
/var/folders/fs/ht5wlc7s7b56r9p0ngl7ssgc0000gn/T//ccz1LIsm.s:1985   .bss.feedback:0000000000000000 $d
/var/folders/fs/ht5wlc7s7b56r9p0ngl7ssgc0000gn/T//ccz1LIsm.s:1992   .bss.hw:0000000000000000 $d
/var/folders/fs/ht5wlc7s7b56r9p0ngl7ssgc0000gn/T//ccz1LIsm.s:1999   .bss.osc:0000000000000000 $d
/var/folders/fs/ht5wlc7s7b56r9p0ngl7ssgc0000gn/T//ccz1LIsm.s:2006   .bss.tapTempo:0000000000000000 $d
/var/folders/fs/ht5wlc7s7b56r9p0ngl7ssgc0000gn/T//ccz1LIsm.s:2013   .bss.tone:0000000000000000 $d
/var/folders/fs/ht5wlc7s7b56r9p0ngl7ssgc0000gn/T//ccz1LIsm.s:2020   .bss.toneParam:0000000000000000 $d
/var/folders/fs/ht5wlc7s7b56r9p0ngl7ssgc0000gn/T//ccz1LIsm.s:2027   .bss.toneVal:0000000000000000 $d
/var/folders/fs/ht5wlc7s7b56r9p0ngl7ssgc0000gn/T//ccz1LIsm.s:2040   .sdram_bss:0000000000000000 $d
                           .group:0000000000000000 _ZN5daisy9ParameterD5Ev
                           .group:0000000000000000 _ZN5daisy10DaisyPetalD5Ev
                           .group:0000000000000000 _ZN7daisysp10OscillatorD5Ev
                           .group:0000000000000000 _ZN7daisysp7BalanceD5Ev
                           .group:0000000000000000 _ZN7daisysp9CrossFadeD5Ev
                           .group:0000000000000000 _ZN10ToneFilterD5Ev

UNDEFINED SYMBOLS
_ZN5daisy9Parameter4InitENS_13AnalogControlEffNS0_5CurveE
_ZN5daisy10DaisyPetal4InitEb
_ZN5daisy10DaisyPetal17SetAudioBlockSizeEj
_ZN5daisy10DaisyPetal18SetAudioSampleRateENS_9SaiHandle6Config10SampleRateE
_ZN5daisy10DaisyPetal8StartAdcEv
_ZN5Delay9initDelayEPN7daisysp9DelayLineIfLj96000EEE
_ZN5Delay6setBPMEf
_ZN5daisy10DaisyPetal15AudioSampleRateEv
_ZN7daisysp7Balance4InitEf
_ZN7daisysp10Oscillator12CalcPhaseIncEf
_ZN5daisy10DaisyPetal10StartAudioEPFvPKPKfPPfjE
_ZN8TapTempo6updateEb
_ZN8TapTempo6getBPMEv
_ZN5Delay11disableHeadERKi
_ZN5daisy13AnalogControl7ProcessEv
_ZN5Delay11setFeedbackERKf
_ZN5daisy9Parameter7ProcessEv
_ZN10ToneFilter7setFreqEf
_ZN7daisysp10Oscillator7ProcessEv
_ZN5Delay13setModulationERKf
_ZN5Delay5clearEv
_ZN5Delay10enableHeadERKi
_ZN8TapTempo6setBPMEf
_ZN5daisy10DaisyPetal21ProcessAnalogControlsEv
_ZN5daisy10DaisyPetal22ProcessDigitalControlsEv
_ZN5Delay7processEf
_ZN10ToneFilter7processEf
_ZN7daisysp9CrossFade7ProcessERfS1_
memcpy
__aeabi_atexit
_ZN5DelayC1Ev
_ZN5daisy6System6GetNowEv
_ZN10ToneFilterC1Ef
__dso_handle
